(dp0
V42.200.252.36
p1
ccopy_reg
_reconstructor
p2
(cip
IP
p3
c__builtin__
object
p4
Ntp5
Rp6
(dp7
S'ip'
p8
g1
sS'rank'
p9
F0.0
sS'netblock'
p10
S''
p11
sS'lastseen'
p12
g11
sS'asname'
p13
g11
sS'asn'
p14
VAS4760
p15
sS'firstseen'
p16
g11
sbsV117.102.119.155
p17
g2
(g3
g4
Ntp18
Rp19
(dp20
g8
V117.102.119.155
p21
sg9
F0.0
sg10
g11
sg12
g11
sg13
g11
sg14
VAS17451
p22
sg16
g11
sbsV201.235.76.117
p23
g2
(g3
g4
Ntp24
Rp25
(dp26
g8
V201.235.76.117
p27
sg9
F0.0
sg10
g11
sg12
g11
sg13
g11
sg14
VAS10481
p28
sg16
g11
sbsV42.200.252.13
p29
g2
(g3
g4
Ntp30
Rp31
(dp32
g8
V42.200.252.13
p33
sg9
F0.0
sg10
g11
sg12
g11
sg13
g11
sg14
VAS4760
p34
sg16
g11
sbsV190.14.240.206
p35
g2
(g3
g4
Ntp36
Rp37
(dp38
g8
V190.14.240.206
p39
sg9
F0.0
sg10
g11
sg12
g11
sg13
g11
sg14
VAS27951
p40
sg16
g11
sbsV223.197.185.224
p41
g2
(g3
g4
Ntp42
Rp43
(dp44
g8
g41
sg9
F0.0
sg10
g11
sg12
g11
sg13
g11
sg14
VAS4760
p45
sg16
g11
sbsV23.30.73.254
p46
g2
(g3
g4
Ntp47
Rp48
(dp49
g8
g46
sg9
F0.0
sg10
g11
sg12
g11
sg13
g11
sg14
VAS7922
p50
sg16
g11
sbsV190.151.33.14
p51
g2
(g3
g4
Ntp52
Rp53
(dp54
g8
V190.151.33.14
p55
sg9
F0.0
sg10
g11
sg12
g11
sg13
g11
sg14
VAS6471
p56
sg16
g11
sbsV182.92.212.186
p57
g2
(g3
g4
Ntp58
Rp59
(dp60
g8
V182.92.212.186
p61
sg9
F0.0
sg10
g11
sg12
g11
sg13
g11
sg14
VAS37963
p62
sg16
g11
sbsV38.122.247.222
p63
g2
(g3
g4
Ntp64
Rp65
(dp66
g8
V38.122.247.222
p67
sg9
F0.0
sg10
g11
sg12
g11
sg13
g11
sg14
VAS174
p68
sg16
g11
sbsV101.200.192.204
p69
g2
(g3
g4
Ntp70
Rp71
(dp72
g8
g69
sg9
F0.0
sg10
g11
sg12
g11
sg13
g11
sg14
VAS37963
p73
sg16
g11
sbsV130.149.22.165
p74
g2
(g3
g4
Ntp75
Rp76
(dp77
g8
V130.149.22.165
p78
sg9
F0.0
sg10
g11
sg12
g11
sg13
g11
sg14
VAS680
p79
sg16
g11
sbsV104.196.10.21
p80
g2
(g3
g4
Ntp81
Rp82
(dp83
g8
V104.196.10.21
p84
sg9
F0.0
sg10
g11
sg12
g11
sg13
g11
sg14
VAS15169
p85
sg16
g11
sbsV167.58.105.75
p86
g2
(g3
g4
Ntp87
Rp88
(dp89
g8
g86
sg9
F0.0
sg10
g11
sg12
g11
sg13
g11
sg14
VAS6057
p90
sg16
g11
sbsV200.195.170.130
p91
g2
(g3
g4
Ntp92
Rp93
(dp94
g8
V200.195.170.130
p95
sg9
F0.0
sg10
g11
sg12
g11
sg13
g11
sg14
VAS14868
p96
sg16
g11
sbsV85.214.99.114
p97
g2
(g3
g4
Ntp98
Rp99
(dp100
g8
V85.214.99.114
p101
sg9
F0.0
sg10
g11
sg12
g11
sg13
g11
sg14
VAS6724
p102
sg16
g11
sbsV103.6.205.164
p103
g2
(g3
g4
Ntp104
Rp105
(dp106
g8
V103.6.205.164
p107
sg9
F0.0
sg10
g11
sg12
g11
sg13
g11
sg14
VAS58503
p108
sg16
g11
sbsV24.206.14.37
p109
g2
(g3
g4
Ntp110
Rp111
(dp112
g8
V24.206.14.37
p113
sg9
F0.0
sg10
g11
sg12
g11
sg13
g11
sg14
VAS15146
p114
sg16
g11
sbsV12.71.140.107
p115
g2
(g3
g4
Ntp116
Rp117
(dp118
g8
V12.71.140.107
p119
sg9
F0.0
sg10
g11
sg12
g11
sg13
g11
sg14
VAS7018
p120
sg16
g11
sbsV71.8.207.70
p121
g2
(g3
g4
Ntp122
Rp123
(dp124
g8
V71.8.207.70
p125
sg9
F0.0
sg10
g11
sg12
g11
sg13
g11
sg14
VAS20115
p126
sg16
g11
sbsV14.136.206.197
p127
g2
(g3
g4
Ntp128
Rp129
(dp130
g8
V14.136.206.197
p131
sg9
F0.0
sg10
g11
sg12
g11
sg13
g11
sg14
VAS10103
p132
sg16
g11
sbsV77.40.152.130
p133
g2
(g3
g4
Ntp134
Rp135
(dp136
g8
V77.40.152.130
p137
sg9
F0.0
sg10
g11
sg12
g11
sg13
g11
sg14
VAS5381
p138
sg16
g11
sbsV46.101.242.186
p139
g2
(g3
g4
Ntp140
Rp141
(dp142
g8
V46.101.242.186
p143
sg9
F0.0
sg10
g11
sg12
g11
sg13
g11
sg14
VAS201229
p144
sg16
g11
sbsV186.219.48.66
p145
g2
(g3
g4
Ntp146
Rp147
(dp148
g8
V186.219.48.66
p149
sg9
F0.0
sg10
g11
sg12
g11
sg13
g11
sg14
VAS52678
p150
sg16
g11
sbsV123.57.157.242
p151
g2
(g3
g4
Ntp152
Rp153
(dp154
g8
V123.57.157.242
p155
sg9
F0.0
sg10
g11
sg12
g11
sg13
g11
sg14
VAS37963
p156
sg16
g11
sbsV117.27.89.146
p157
g2
(g3
g4
Ntp158
Rp159
(dp160
g8
V117.27.89.146
p161
sg9
F0.0
sg10
g11
sg12
g11
sg13
g11
sg14
VAS4134
p162
sg16
g11
sbsV220.137.9.189
p163
g2
(g3
g4
Ntp164
Rp165
(dp166
g8
V220.137.9.189
p167
sg9
F0.0
sg10
g11
sg12
g11
sg13
g11
sg14
VAS3462
p168
sg16
g11
sbsV98.172.81.119
p169
g2
(g3
g4
Ntp170
Rp171
(dp172
g8
V98.172.81.119
p173
sg9
F0.0
sg10
g11
sg12
g11
sg13
g11
sg14
VAS22773
p174
sg16
g11
sbsV202.162.198.43
p175
g2
(g3
g4
Ntp176
Rp177
(dp178
g8
V202.162.198.43
p179
sg9
F0.0
sg10
g11
sg12
g11
sg13
g11
sg14
VAS23679
p180
sg16
g11
sbsV196.61.11.107
p181
g2
(g3
g4
Ntp182
Rp183
(dp184
g8
V196.61.11.107
p185
sg9
F0.0
sg10
g11
sg12
g11
sg13
g11
sg14
VAS328075
p186
sg16
g11
sbsV93.204.255.12
p187
g2
(g3
g4
Ntp188
Rp189
(dp190
g8
V93.204.255.12
p191
sg9
F0.0
sg10
g11
sg12
g11
sg13
g11
sg14
VAS3320
p192
sg16
g11
sbsV112.74.219.18
p193
g2
(g3
g4
Ntp194
Rp195
(dp196
g8
V112.74.219.18
p197
sg9
F0.0
sg10
g11
sg12
g11
sg13
g11
sg14
VAS37963
p198
sg16
g11
sbsV67.23.249.9
p199
g2
(g3
g4
Ntp200
Rp201
(dp202
g8
g199
sg9
F0.0
sg10
g11
sg12
g11
sg13
g11
sg14
VAS33182
p203
sg16
g11
sbsV193.226.169.146
p204
g2
(g3
g4
Ntp205
Rp206
(dp207
g8
g204
sg9
F0.0
sg10
g11
sg12
g11
sg13
g11
sg14
VAS5588
p208
sg16
g11
sbsV190.216.202.25
p209
g2
(g3
g4
Ntp210
Rp211
(dp212
g8
V190.216.202.25
p213
sg9
F0.0
sg10
g11
sg12
g11
sg13
g11
sg14
VAS3549
p214
sg16
g11
sbsV179.185.78.251
p215
g2
(g3
g4
Ntp216
Rp217
(dp218
g8
V179.185.78.251
p219
sg9
F0.0
sg10
g11
sg12
g11
sg13
g11
sg14
VAS18881
p220
sg16
g11
sbsV62.210.70.193
p221
g2
(g3
g4
Ntp222
Rp223
(dp224
g8
V62.210.70.193
p225
sg9
F0.0
sg10
g11
sg12
g11
sg13
g11
sg14
VAS12876
p226
sg16
g11
sbsV190.161.97.37
p227
g2
(g3
g4
Ntp228
Rp229
(dp230
g8
V190.161.97.37
p231
sg9
F0.0
sg10
g11
sg12
g11
sg13
g11
sg14
VAS22047
p232
sg16
g11
sbsV179.124.9.181
p233
g2
(g3
g4
Ntp234
Rp235
(dp236
g8
V179.124.9.181
p237
sg9
F0.0
sg10
g11
sg12
g11
sg13
g11
sg14
VAS263609
p238
sg16
g11
sbsV201.151.165.198
p239
g2
(g3
g4
Ntp240
Rp241
(dp242
g8
g239
sg9
F0.0
sg10
g11
sg12
g11
sg13
g11
sg14
VAS11172
p243
sg16
g11
sbsV81.130.168.69
p244
g2
(g3
g4
Ntp245
Rp246
(dp247
g8
V81.130.168.69
p248
sg9
F0.0
sg10
g11
sg12
g11
sg13
g11
sg14
VAS2856
p249
sg16
g11
sbsV187.108.38.205
p250
g2
(g3
g4
Ntp251
Rp252
(dp253
g8
V187.108.38.205
p254
sg9
F0.0
sg10
g11
sg12
g11
sg13
g11
sg14
VAS28669
p255
sg16
g11
sbsV190.213.183.60
p256
g2
(g3
g4
Ntp257
Rp258
(dp259
g8
g256
sg9
F0.0
sg10
g11
sg12
g11
sg13
g11
sg14
VAS27665
p260
sg16
g11
sbsV187.108.38.203
p261
g2
(g3
g4
Ntp262
Rp263
(dp264
g8
V187.108.38.203
p265
sg9
F0.0
sg10
g11
sg12
g11
sg13
g11
sg14
VAS28669
p266
sg16
g11
sbsV81.200.59.186
p267
g2
(g3
g4
Ntp268
Rp269
(dp270
g8
V81.200.59.186
p271
sg9
F0.0
sg10
g11
sg12
g11
sg13
g11
sg14
VAS41046
p272
sg16
g11
sbsV13.81.205.203
p273
g2
(g3
g4
Ntp274
Rp275
(dp276
g8
V13.81.205.203
p277
sg9
F0.0
sg10
g11
sg12
g11
sg13
g11
sg14
VAS8075
p278
sg16
g11
sbsV223.197.255.20
p279
g2
(g3
g4
Ntp280
Rp281
(dp282
g8
V223.197.255.20
p283
sg9
F0.0
sg10
g11
sg12
g11
sg13
g11
sg14
VAS4760
p284
sg16
g11
sbsV27.100.44.80
p285
g2
(g3
g4
Ntp286
Rp287
(dp288
g8
V27.100.44.80
p289
sg9
F0.0
sg10
g11
sg12
g11
sg13
g11
sg14
VAS45458
p290
sg16
g11
sbsV96.38.32.130
p291
g2
(g3
g4
Ntp292
Rp293
(dp294
g8
g291
sg9
F0.0
sg10
g11
sg12
g11
sg13
g11
sg14
VAS20115
p295
sg16
g11
sbsV54.207.96.152
p296
g2
(g3
g4
Ntp297
Rp298
(dp299
g8
V54.207.96.152
p300
sg9
F0.0
sg10
g11
sg12
g11
sg13
g11
sg14
VAS16509
p301
sg16
g11
sbsV183.88.67.249
p302
g2
(g3
g4
Ntp303
Rp304
(dp305
g8
V183.88.67.249
p306
sg9
F0.0
sg10
g11
sg12
g11
sg13
g11
sg14
VAS45758
p307
sg16
g11
sbsV72.29.88.211
p308
g2
(g3
g4
Ntp309
Rp310
(dp311
g8
g308
sg9
F0.0
sg10
g11
sg12
g11
sg13
g11
sg14
VAS33182
p312
sg16
g11
sbsV179.126.141.249
p313
g2
(g3
g4
Ntp314
Rp315
(dp316
g8
V179.126.141.249
p317
sg9
F0.0
sg10
g11
sg12
g11
sg13
g11
sg14
VAS53006
p318
sg16
g11
sbsV62.23.15.237
p319
g2
(g3
g4
Ntp320
Rp321
(dp322
g8
V62.23.15.237
p323
sg9
F0.0
sg10
g11
sg12
g11
sg13
g11
sg14
VAS8220
p324
sg16
g11
sbsV200.153.162.10
p325
g2
(g3
g4
Ntp326
Rp327
(dp328
g8
V200.153.162.10
p329
sg9
F0.0
sg10
g11
sg12
g11
sg13
g11
sg14
VAS27699
p330
sg16
g11
sbsV208.3.90.233
p331
g2
(g3
g4
Ntp332
Rp333
(dp334
g8
g331
sg9
F0.0
sg10
g11
sg12
g11
sg13
g11
sg14
VAS15265
p335
sg16
g11
sbsV62.227.198.24
p336
g2
(g3
g4
Ntp337
Rp338
(dp339
g8
V62.227.198.24
p340
sg9
F0.0
sg10
g11
sg12
g11
sg13
g11
sg14
VAS3320
p341
sg16
g11
sbsV202.57.130.93
p342
g2
(g3
g4
Ntp343
Rp344
(dp345
g8
V202.57.130.93
p346
sg9
F0.0
sg10
g11
sg12
g11
sg13
g11
sg14
VAS7654
p347
sg16
g11
sbsV203.190.173.81
p348
g2
(g3
g4
Ntp349
Rp350
(dp351
g8
g348
sg9
F0.0
sg10
g11
sg12
g11
sg13
g11
sg14
VAS7552
p352
sg16
g11
sbsV177.41.133.101
p353
g2
(g3
g4
Ntp354
Rp355
(dp356
g8
g353
sg9
F0.0
sg10
g11
sg12
g11
sg13
g11
sg14
VAS18881
p357
sg16
g11
sbsV5.9.89.102
p358
g2
(g3
g4
Ntp359
Rp360
(dp361
g8
V5.9.89.102
p362
sg9
F0.0
sg10
g11
sg12
g11
sg13
g11
sg14
VAS24940
p363
sg16
g11
sbsV67.215.1.42
p364
g2
(g3
g4
Ntp365
Rp366
(dp367
g8
V67.215.1.42
p368
sg9
F0.0
sg10
g11
sg12
g11
sg13
g11
sg14
VAS36666
p369
sg16
g11
sbsV74.63.50.176
p370
g2
(g3
g4
Ntp371
Rp372
(dp373
g8
V74.63.50.176
p374
sg9
F0.0
sg10
g11
sg12
g11
sg13
g11
sg14
VAS29791
p375
sg16
g11
sbsV54.87.87.144
p376
g2
(g3
g4
Ntp377
Rp378
(dp379
g8
V54.87.87.144
p380
sg9
F0.0
sg10
g11
sg12
g11
sg13
g11
sg14
VAS14618
p381
sg16
g11
sbsV123.176.6.146
p382
g2
(g3
g4
Ntp383
Rp384
(dp385
g8
V123.176.6.146
p386
sg9
F0.0
sg10
g11
sg12
g11
sg13
g11
sg14
VAS7642
p387
sg16
g11
sbsV89.36.37.140
p388
g2
(g3
g4
Ntp389
Rp390
(dp391
g8
V89.36.37.140
p392
sg9
F0.0
sg10
g11
sg12
g11
sg13
g11
sg14
VAS20524
p393
sg16
g11
sbsV67.205.76.101
p394
g2
(g3
g4
Ntp395
Rp396
(dp397
g8
g394
sg9
F0.0
sg10
g11
sg12
g11
sg13
g11
sg14
VAS32613
p398
sg16
g11
sbsV52.44.196.51
p399
g2
(g3
g4
Ntp400
Rp401
(dp402
g8
V52.44.196.51
p403
sg9
F0.0
sg10
g11
sg12
g11
sg13
g11
sg14
VAS14618
p404
sg16
g11
sbsV216.97.239.13
p405
g2
(g3
g4
Ntp406
Rp407
(dp408
g8
g405
sg9
F0.0
sg10
g11
sg12
g11
sg13
g11
sg14
VAS15244
p409
sg16
g11
sbsV190.60.232.197
p410
g2
(g3
g4
Ntp411
Rp412
(dp413
g8
V190.60.232.197
p414
sg9
F0.0
sg10
g11
sg12
g11
sg13
g11
sg14
VAS18747
p415
sg16
g11
sbsV101.200.146.91
p416
g2
(g3
g4
Ntp417
Rp418
(dp419
g8
V101.200.146.91
p420
sg9
F0.0
sg10
g11
sg12
g11
sg13
g11
sg14
VAS37963
p421
sg16
g11
sbsV62.181.225.186
p422
g2
(g3
g4
Ntp423
Rp424
(dp425
g8
V62.181.225.186
p426
sg9
F0.0
sg10
g11
sg12
g11
sg13
g11
sg14
VAS21195
p427
sg16
g11
sbsV217.29.100.47
p428
g2
(g3
g4
Ntp429
Rp430
(dp431
g8
V217.29.100.47
p432
sg9
F0.0
sg10
g11
sg12
g11
sg13
g11
sg14
VAS48427
p433
sg16
g11
sbsV202.170.112.202
p434
g2
(g3
g4
Ntp435
Rp436
(dp437
g8
g434
sg9
F0.0
sg10
g11
sg12
g11
sg13
g11
sg14
VAS23884
p438
sg16
g11
sbsV24.96.91.159
p439
g2
(g3
g4
Ntp440
Rp441
(dp442
g8
V24.96.91.159
p443
sg9
F0.0
sg10
g11
sg12
g11
sg13
g11
sg14
VAS12083
p444
sg16
g11
sbsV88.198.22.184
p445
g2
(g3
g4
Ntp446
Rp447
(dp448
g8
V88.198.22.184
p449
sg9
F0.0
sg10
g11
sg12
g11
sg13
g11
sg14
VAS24940
p450
sg16
g11
sbsV42.200.164.21
p451
g2
(g3
g4
Ntp452
Rp453
(dp454
g8
V42.200.164.21
p455
sg9
F0.0
sg10
g11
sg12
g11
sg13
g11
sg14
VAS4760
p456
sg16
g11
sbsV2400:cb00:2048:1::6811:6ea6
p457
g2
(g3
g4
Ntp458
Rp459
(dp460
g8
g457
sg9
F0.0
sg10
g11
sg12
g11
sg13
g11
sg14
VAS37955
p461
sg16
g11
sbsV220.246.37.52
p462
g2
(g3
g4
Ntp463
Rp464
(dp465
g8
V220.246.37.52
p466
sg9
F0.0
sg10
g11
sg12
g11
sg13
g11
sg14
VAS4760
p467
sg16
g11
sbsV173.18.244.252
p468
g2
(g3
g4
Ntp469
Rp470
(dp471
g8
V173.18.244.252
p472
sg9
F0.0
sg10
g11
sg12
g11
sg13
g11
sg14
VAS30036
p473
sg16
g11
sbsV167.114.102.233
p474
g2
(g3
g4
Ntp475
Rp476
(dp477
g8
V167.114.102.233
p478
sg9
F0.0
sg10
g11
sg12
g11
sg13
g11
sg14
VAS16276
p479
sg16
g11
sbsV23.99.59.128
p480
g2
(g3
g4
Ntp481
Rp482
(dp483
g8
V23.99.59.128
p484
sg9
F0.0
sg10
g11
sg12
g11
sg13
g11
sg14
VAS8075
p485
sg16
g11
sbsV182.92.170.25
p486
g2
(g3
g4
Ntp487
Rp488
(dp489
g8
g486
sg9
F0.0
sg10
g11
sg12
g11
sg13
g11
sg14
VAS37963
p490
sg16
g11
sbsV194.3.162.168
p491
g2
(g3
g4
Ntp492
Rp493
(dp494
g8
V194.3.162.168
p495
sg9
F0.0
sg10
g11
sg12
g11
sg13
g11
sg14
VAS3215
p496
sg16
g11
sbsV108.80.69.65
p497
g2
(g3
g4
Ntp498
Rp499
(dp500
g8
g497
sg9
F0.0
sg10
g11
sg12
g11
sg13
g11
sg14
VAS7018
p501
sg16
g11
sbsV92.50.93.126
p502
g2
(g3
g4
Ntp503
Rp504
(dp505
g8
V92.50.93.126
p506
sg9
F0.0
sg10
g11
sg12
g11
sg13
g11
sg14
VAS6830
p507
sg16
g11
sbsV129.144.41.93
p508
g2
(g3
g4
Ntp509
Rp510
(dp511
g8
V129.144.41.93
p512
sg9
F0.0
sg10
g11
sg12
g11
sg13
g11
sg14
VAS7160
p513
sg16
g11
sbsV196.219.30.40
p514
g2
(g3
g4
Ntp515
Rp516
(dp517
g8
V196.219.30.40
p518
sg9
F0.0
sg10
g11
sg12
g11
sg13
g11
sg14
VAS8452
p519
sg16
g11
sbsV186.250.92.90
p520
g2
(g3
g4
Ntp521
Rp522
(dp523
g8
V186.250.92.90
p524
sg9
F0.0
sg10
g11
sg12
g11
sg13
g11
sg14
VAS262967
p525
sg16
g11
sbsV42.3.9.190
p526
g2
(g3
g4
Ntp527
Rp528
(dp529
g8
g526
sg9
F0.0
sg10
g11
sg12
g11
sg13
g11
sg14
VAS4760
p530
sg16
g11
sbsV220.135.28.15
p531
g2
(g3
g4
Ntp532
Rp533
(dp534
g8
V220.135.28.15
p535
sg9
F0.0
sg10
g11
sg12
g11
sg13
g11
sg14
VAS3462
p536
sg16
g11
sbsV202.170.112.206
p537
g2
(g3
g4
Ntp538
Rp539
(dp540
g8
g537
sg9
F0.0
sg10
g11
sg12
g11
sg13
g11
sg14
VAS23884
p541
sg16
g11
sbsV211.193.193.48
p542
g2
(g3
g4
Ntp543
Rp544
(dp545
g8
V211.193.193.48
p546
sg9
F0.0
sg10
g11
sg12
g11
sg13
g11
sg14
VAS4793
p547
sg16
g11
sbsV216.92.142.166
p548
g2
(g3
g4
Ntp549
Rp550
(dp551
g8
V216.92.142.166
p552
sg9
F0.0
sg10
g11
sg12
g11
sg13
g11
sg14
VAS7859
p553
sg16
g11
sbsV52.26.177.245
p554
g2
(g3
g4
Ntp555
Rp556
(dp557
g8
V52.26.177.245
p558
sg9
F0.0
sg10
g11
sg12
g11
sg13
g11
sg14
VAS16509
p559
sg16
g11
sbsV187.63.193.110
p560
g2
(g3
g4
Ntp561
Rp562
(dp563
g8
V187.63.193.110
p564
sg9
F0.0
sg10
g11
sg12
g11
sg13
g11
sg14
VAS53050
p565
sg16
g11
sbsV85.229.85.17
p566
g2
(g3
g4
Ntp567
Rp568
(dp569
g8
V85.229.85.17
p570
sg9
F0.0
sg10
g11
sg12
g11
sg13
g11
sg14
VAS2119
p571
sg16
g11
sbsV139.196.107.47
p572
g2
(g3
g4
Ntp573
Rp574
(dp575
g8
V139.196.107.47
p576
sg9
F0.0
sg10
g11
sg12
g11
sg13
g11
sg14
VAS37963
p577
sg16
g11
sbsV196.0.7.186
p578
g2
(g3
g4
Ntp579
Rp580
(dp581
g8
V196.0.7.186
p582
sg9
F0.0
sg10
g11
sg12
g11
sg13
g11
sg14
VAS21491
p583
sg16
g11
sbsV138.186.185.158
p584
g2
(g3
g4
Ntp585
Rp586
(dp587
g8
V138.186.185.158
p588
sg9
F0.0
sg10
g11
sg12
g11
sg13
g11
sg14
VAS61784
p589
sg16
g11
sbsV174.140.166.189
p590
g2
(g3
g4
Ntp591
Rp592
(dp593
g8
V174.140.166.189
p594
sg9
F0.0
sg10
g11
sg12
g11
sg13
g11
sg14
VAS46816
p595
sg16
g11
sbsV85.10.199.200
p596
g2
(g3
g4
Ntp597
Rp598
(dp599
g8
V85.10.199.200
p600
sg9
F0.0
sg10
g11
sg12
g11
sg13
g11
sg14
VAS24940
p601
sg16
g11
sbsV162.254.167.244
p602
g2
(g3
g4
Ntp603
Rp604
(dp605
g8
g602
sg9
F0.0
sg10
g11
sg12
g11
sg13
g11
sg14
VAS20013
p606
sg16
g11
sbsV212.33.231.11
p607
g2
(g3
g4
Ntp608
Rp609
(dp610
g8
V212.33.231.11
p611
sg9
F0.0
sg10
g11
sg12
g11
sg13
g11
sg14
VAS12768
p612
sg16
g11
sbsV105.255.156.208
p613
g2
(g3
g4
Ntp614
Rp615
(dp616
g8
V105.255.156.208
p617
sg9
F0.0
sg10
g11
sg12
g11
sg13
g11
sg14
VAS36994
p618
sg16
g11
sbsV89.135.52.5
p619
g2
(g3
g4
Ntp620
Rp621
(dp622
g8
V89.135.52.5
p623
sg9
F0.0
sg10
g11
sg12
g11
sg13
g11
sg14
VAS6830
p624
sg16
g11
sbsV64.237.211.20
p625
g2
(g3
g4
Ntp626
Rp627
(dp628
g8
V64.237.211.20
p629
sg9
F0.0
sg10
g11
sg12
g11
sg13
g11
sg14
VAS10396
p630
sg16
g11
sbsV217.92.141.113
p631
g2
(g3
g4
Ntp632
Rp633
(dp634
g8
V217.92.141.113
p635
sg9
F0.0
sg10
g11
sg12
g11
sg13
g11
sg14
VAS3320
p636
sg16
g11
sbsV184.145.95.120
p637
g2
(g3
g4
Ntp638
Rp639
(dp640
g8
V184.145.95.120
p641
sg9
F0.0
sg10
g11
sg12
g11
sg13
g11
sg14
VAS577
p642
sg16
g11
sbsV210.82.62.250
p643
g2
(g3
g4
Ntp644
Rp645
(dp646
g8
V210.82.62.250
p647
sg9
F0.0
sg10
g11
sg12
g11
sg13
g11
sg14
VAS4808
p648
sg16
g11
sbsV58.138.140.204
p649
g2
(g3
g4
Ntp650
Rp651
(dp652
g8
V58.138.140.204
p653
sg9
F0.0
sg10
g11
sg12
g11
sg13
g11
sg14
VAS2497
p654
sg16
g11
sbsV217.8.62.237
p655
g2
(g3
g4
Ntp656
Rp657
(dp658
g8
V217.8.62.237
p659
sg9
F0.0
sg10
g11
sg12
g11
sg13
g11
sg14
VAS29562
p660
sg16
g11
sbsV167.250.177.178
p661
g2
(g3
g4
Ntp662
Rp663
(dp664
g8
V167.250.177.178
p665
sg9
F0.0
sg10
g11
sg12
g11
sg13
g11
sg14
VAS265209
p666
sg16
g11
sbsV95.211.147.233
p667
g2
(g3
g4
Ntp668
Rp669
(dp670
g8
V95.211.147.233
p671
sg9
F0.0
sg10
g11
sg12
g11
sg13
g11
sg14
VAS60781
p672
sg16
g11
sbsV206.253.174.136
p673
g2
(g3
g4
Ntp674
Rp675
(dp676
g8
V206.253.174.136
p677
sg9
F0.0
sg10
g11
sg12
g11
sg13
g11
sg14
VAS32632
p678
sg16
g11
sbsV190.110.204.219
p679
g2
(g3
g4
Ntp680
Rp681
(dp682
g8
V190.110.204.219
p683
sg9
F0.0
sg10
g11
sg12
g11
sg13
g11
sg14
VAS22724
p684
sg16
g11
sbsV208.104.92.202
p685
g2
(g3
g4
Ntp686
Rp687
(dp688
g8
V208.104.92.202
p689
sg9
F0.0
sg10
g11
sg12
g11
sg13
g11
sg14
VAS14615
p690
sg16
g11
sbsV201.237.119.150
p691
g2
(g3
g4
Ntp692
Rp693
(dp694
g8
g691
sg9
F0.0
sg10
g11
sg12
g11
sg13
g11
sg14
VAS11830
p695
sg16
g11
sbsV217.167.140.183
p696
g2
(g3
g4
Ntp697
Rp698
(dp699
g8
V217.167.140.183
p700
sg9
F0.0
sg10
g11
sg12
g11
sg13
g11
sg14
VAS3215
p701
sg16
g11
sbsV50.204.130.205
p702
g2
(g3
g4
Ntp703
Rp704
(dp705
g8
V50.204.130.205
p706
sg9
F0.0
sg10
g11
sg12
g11
sg13
g11
sg14
VAS7922
p707
sg16
g11
sbsV140.86.33.7
p708
g2
(g3
g4
Ntp709
Rp710
(dp711
g8
g708
sg9
F0.0
sg10
g11
sg12
g11
sg13
g11
sg14
VAS7160
p712
sg16
g11
sbsV85.25.119.138
p713
g2
(g3
g4
Ntp714
Rp715
(dp716
g8
V85.25.119.138
p717
sg9
F0.0
sg10
g11
sg12
g11
sg13
g11
sg14
VAS8972
p718
sg16
g11
sbsV68.179.69.49
p719
g2
(g3
g4
Ntp720
Rp721
(dp722
g8
V68.179.69.49
p723
sg9
F0.0
sg10
g11
sg12
g11
sg13
g11
sg14
VAS20161
p724
sg16
g11
sbsV35.185.99.64
p725
g2
(g3
g4
Ntp726
Rp727
(dp728
g8
V35.185.99.64
p729
sg9
F0.0
sg10
g11
sg12
g11
sg13
g11
sg14
VAS15169
p730
sg16
g11
sbsV187.4.207.241
p731
g2
(g3
g4
Ntp732
Rp733
(dp734
g8
V187.4.207.241
p735
sg9
F0.0
sg10
g11
sg12
g11
sg13
g11
sg14
VAS8167
p736
sg16
g11
sbsV75.18.169.145
p737
g2
(g3
g4
Ntp738
Rp739
(dp740
g8
V75.18.169.145
p741
sg9
F0.0
sg10
g11
sg12
g11
sg13
g11
sg14
VAS7018
p742
sg16
g11
sbsV223.197.201.151
p743
g2
(g3
g4
Ntp744
Rp745
(dp746
g8
V223.197.201.151
p747
sg9
F0.0
sg10
g11
sg12
g11
sg13
g11
sg14
VAS4760
p748
sg16
g11
sbsV217.114.220.233
p749
g2
(g3
g4
Ntp750
Rp751
(dp752
g8
g749
sg9
F0.0
sg10
g11
sg12
g11
sg13
g11
sg14
VAS31103
p753
sg16
g11
sbsV64.147.93.13
p754
g2
(g3
g4
Ntp755
Rp756
(dp757
g8
g754
sg9
F0.0
sg10
g11
sg12
g11
sg13
g11
sg14
VAS32020
p758
sg16
g11
sbsV72.27.221.113
p759
g2
(g3
g4
Ntp760
Rp761
(dp762
g8
V72.27.221.113
p763
sg9
F0.0
sg10
g11
sg12
g11
sg13
g11
sg14
VAS30689
p764
sg16
g11
sbsV219.76.181.53
p765
g2
(g3
g4
Ntp766
Rp767
(dp768
g8
V219.76.181.53
p769
sg9
F0.0
sg10
g11
sg12
g11
sg13
g11
sg14
VAS4760
p770
sg16
g11
sbsV79.134.23.48
p771
g2
(g3
g4
Ntp772
Rp773
(dp774
g8
V79.134.23.48
p775
sg9
F0.0
sg10
g11
sg12
g11
sg13
g11
sg14
VAS8427
p776
sg16
g11
sbsV187.18.105.62
p777
g2
(g3
g4
Ntp778
Rp779
(dp780
g8
V187.18.105.62
p781
sg9
F0.0
sg10
g11
sg12
g11
sg13
g11
sg14
VAS22689
p782
sg16
g11
sbsV115.29.76.85
p783
g2
(g3
g4
Ntp784
Rp785
(dp786
g8
V115.29.76.85
p787
sg9
F0.0
sg10
g11
sg12
g11
sg13
g11
sg14
VAS37963
p788
sg16
g11
sbsV176.62.216.177
p789
g2
(g3
g4
Ntp790
Rp791
(dp792
g8
g789
sg9
F0.0
sg10
g11
sg12
g11
sg13
g11
sg14
VAS44999
p793
sg16
g11
sbsV54.255.145.34
p794
g2
(g3
g4
Ntp795
Rp796
(dp797
g8
V54.255.145.34
p798
sg9
F0.0
sg10
g11
sg12
g11
sg13
g11
sg14
VAS16509
p799
sg16
g11
sbsV134.213.133.205
p800
g2
(g3
g4
Ntp801
Rp802
(dp803
g8
g800
sg9
F0.0
sg10
g11
sg12
g11
sg13
g11
sg14
VAS15395
p804
sg16
g11
sbsV151.80.45.126
p805
g2
(g3
g4
Ntp806
Rp807
(dp808
g8
V151.80.45.126
p809
sg9
F0.0
sg10
g11
sg12
g11
sg13
g11
sg14
VAS16276
p810
sg16
g11
sbsV82.244.183.137
p811
g2
(g3
g4
Ntp812
Rp813
(dp814
g8
V82.244.183.137
p815
sg9
F0.0
sg10
g11
sg12
g11
sg13
g11
sg14
VAS12322
p816
sg16
g11
sbsV103.56.235.83
p817
g2
(g3
g4
Ntp818
Rp819
(dp820
g8
V103.56.235.83
p821
sg9
F0.0
sg10
g11
sg12
g11
sg13
g11
sg14
VAS23947
p822
sg16
g11
sbsV181.164.71.231
p823
g2
(g3
g4
Ntp824
Rp825
(dp826
g8
g823
sg9
F0.0
sg10
g11
sg12
g11
sg13
g11
sg14
VAS10318
p827
sg16
g11
sbsV75.80.220.247
p828
g2
(g3
g4
Ntp829
Rp830
(dp831
g8
V75.80.220.247
p832
sg9
F0.0
sg10
g11
sg12
g11
sg13
g11
sg14
VAS20001
p833
sg16
g11
sbsV62.161.105.118
p834
g2
(g3
g4
Ntp835
Rp836
(dp837
g8
V62.161.105.118
p838
sg9
F0.0
sg10
g11
sg12
g11
sg13
g11
sg14
VAS3215
p839
sg16
g11
sbsV181.143.3.106
p840
g2
(g3
g4
Ntp841
Rp842
(dp843
g8
V181.143.3.106
p844
sg9
F0.0
sg10
g11
sg12
g11
sg13
g11
sg14
VAS13489
p845
sg16
g11
sbsV187.60.214.90
p846
g2
(g3
g4
Ntp847
Rp848
(dp849
g8
V187.60.214.90
p850
sg9
F0.0
sg10
g11
sg12
g11
sg13
g11
sg14
VAS28158
p851
sg16
g11
sbsV52.91.217.31
p852
g2
(g3
g4
Ntp853
Rp854
(dp855
g8
V52.91.217.31
p856
sg9
F0.0
sg10
g11
sg12
g11
sg13
g11
sg14
VAS14618
p857
sg16
g11
sbsV203.176.142.84
p858
g2
(g3
g4
Ntp859
Rp860
(dp861
g8
V203.176.142.84
p862
sg9
F0.0
sg10
g11
sg12
g11
sg13
g11
sg14
VAS38235
p863
sg16
g11
sbsV35.185.99.82
p864
g2
(g3
g4
Ntp865
Rp866
(dp867
g8
V35.185.99.82
p868
sg9
F0.0
sg10
g11
sg12
g11
sg13
g11
sg14
VAS15169
p869
sg16
g11
sbsV201.215.19.103
p870
g2
(g3
g4
Ntp871
Rp872
(dp873
g8
g870
sg9
F0.0
sg10
g11
sg12
g11
sg13
g11
sg14
VAS22047
p874
sg16
g11
sbsV142.11.192.199
p875
g2
(g3
g4
Ntp876
Rp877
(dp878
g8
g875
sg9
F0.0
sg10
g11
sg12
g11
sg13
g11
sg14
VAS54290
p879
sg16
g11
sbsV54.145.241.36
p880
g2
(g3
g4
Ntp881
Rp882
(dp883
g8
V54.145.241.36
p884
sg9
F0.0
sg10
g11
sg12
g11
sg13
g11
sg14
VAS14618
p885
sg16
g11
sbsV223.197.226.230
p886
g2
(g3
g4
Ntp887
Rp888
(dp889
g8
V223.197.226.230
p890
sg9
F0.0
sg10
g11
sg12
g11
sg13
g11
sg14
VAS4760
p891
sg16
g11
sbsV81.169.185.64
p892
g2
(g3
g4
Ntp893
Rp894
(dp895
g8
g892
sg9
F0.0
sg10
g11
sg12
g11
sg13
g11
sg14
VAS6724
p896
sg16
g11
sbsV182.75.131.51
p897
g2
(g3
g4
Ntp898
Rp899
(dp900
g8
V182.75.131.51
p901
sg9
F0.0
sg10
g11
sg12
g11
sg13
g11
sg14
VAS9498
p902
sg16
g11
sbsV59.115.220.176
p903
g2
(g3
g4
Ntp904
Rp905
(dp906
g8
V59.115.220.176
p907
sg9
F0.0
sg10
g11
sg12
g11
sg13
g11
sg14
VAS3462
p908
sg16
g11
sbsV195.160.232.108
p909
g2
(g3
g4
Ntp910
Rp911
(dp912
g8
V195.160.232.108
p913
sg9
F0.0
sg10
g11
sg12
g11
sg13
g11
sg14
VAS28776
p914
sg16
g11
sbsV217.57.19.250
p915
g2
(g3
g4
Ntp916
Rp917
(dp918
g8
V217.57.19.250
p919
sg9
F0.0
sg10
g11
sg12
g11
sg13
g11
sg14
VAS3269
p920
sg16
g11
sbsV71.57.34.132
p921
g2
(g3
g4
Ntp922
Rp923
(dp924
g8
V71.57.34.132
p925
sg9
F0.0
sg10
g11
sg12
g11
sg13
g11
sg14
VAS7922
p926
sg16
g11
sbsV78.188.7.191
p927
g2
(g3
g4
Ntp928
Rp929
(dp930
g8
V78.188.7.191
p931
sg9
F0.0
sg10
g11
sg12
g11
sg13
g11
sg14
VAS9121
p932
sg16
g11
sbsV85.43.183.139
p933
g2
(g3
g4
Ntp934
Rp935
(dp936
g8
V85.43.183.139
p937
sg9
F0.0
sg10
g11
sg12
g11
sg13
g11
sg14
VAS3269
p938
sg16
g11
sbsV76.19.124.143
p939
g2
(g3
g4
Ntp940
Rp941
(dp942
g8
V76.19.124.143
p943
sg9
F0.0
sg10
g11
sg12
g11
sg13
g11
sg14
VAS7922
p944
sg16
g11
sbsV90.228.255.6
p945
g2
(g3
g4
Ntp946
Rp947
(dp948
g8
V90.228.255.6
p949
sg9
F0.0
sg10
g11
sg12
g11
sg13
g11
sg14
VAS3301
p950
sg16
g11
sbsV84.232.146.190
p951
g2
(g3
g4
Ntp952
Rp953
(dp954
g8
V84.232.146.190
p955
sg9
F0.0
sg10
g11
sg12
g11
sg13
g11
sg14
VAS8708
p956
sg16
g11
sbsV62.15.232.243
p957
g2
(g3
g4
Ntp958
Rp959
(dp960
g8
V62.15.232.243
p961
sg9
F0.0
sg10
g11
sg12
g11
sg13
g11
sg14
VAS12715
p962
sg16
g11
sbsV62.160.55.38
p963
g2
(g3
g4
Ntp964
Rp965
(dp966
g8
V62.160.55.38
p967
sg9
F0.0
sg10
g11
sg12
g11
sg13
g11
sg14
VAS3215
p968
sg16
g11
sbsV200.110.208.58
p969
g2
(g3
g4
Ntp970
Rp971
(dp972
g8
g969
sg9
F0.0
sg10
g11
sg12
g11
sg13
g11
sg14
VAS27870
p973
sg16
g11
sbsV62.15.232.245
p974
g2
(g3
g4
Ntp975
Rp976
(dp977
g8
V62.15.232.245
p978
sg9
F0.0
sg10
g11
sg12
g11
sg13
g11
sg14
VAS12715
p979
sg16
g11
sbsV193.104.79.69
p980
g2
(g3
g4
Ntp981
Rp982
(dp983
g8
V193.104.79.69
p984
sg9
F0.0
sg10
g11
sg12
g11
sg13
g11
sg14
VAS50020
p985
sg16
g11
sbsV62.15.232.248
p986
g2
(g3
g4
Ntp987
Rp988
(dp989
g8
V62.15.232.248
p990
sg9
F0.0
sg10
g11
sg12
g11
sg13
g11
sg14
VAS12715
p991
sg16
g11
sbsV62.15.232.249
p992
g2
(g3
g4
Ntp993
Rp994
(dp995
g8
V62.15.232.249
p996
sg9
F0.0
sg10
g11
sg12
g11
sg13
g11
sg14
VAS12715
p997
sg16
g11
sbsV208.70.196.25
p998
g2
(g3
g4
Ntp999
Rp1000
(dp1001
g8
V208.70.196.25
p1002
sg9
F0.0
sg10
g11
sg12
g11
sg13
g11
sg14
VAS18597
p1003
sg16
g11
sbsV194.2.189.71
p1004
g2
(g3
g4
Ntp1005
Rp1006
(dp1007
g8
V194.2.189.71
p1008
sg9
F0.0
sg10
g11
sg12
g11
sg13
g11
sg14
VAS3215
p1009
sg16
g11
sbsV201.116.197.114
p1010
g2
(g3
g4
Ntp1011
Rp1012
(dp1013
g8
V201.116.197.114
p1014
sg9
F0.0
sg10
g11
sg12
g11
sg13
g11
sg14
VAS8151
p1015
sg16
g11
sbsV193.180.221.132
p1016
g2
(g3
g4
Ntp1017
Rp1018
(dp1019
g8
g1016
sg9
F0.0
sg10
g11
sg12
g11
sg13
g11
sg14
VAS51747
p1020
sg16
g11
sbsV191.242.241.168
p1021
g2
(g3
g4
Ntp1022
Rp1023
(dp1024
g8
V191.242.241.168
p1025
sg9
F0.0
sg10
g11
sg12
g11
sg13
g11
sg14
VAS262318
p1026
sg16
g11
sbsV175.139.195.133
p1027
g2
(g3
g4
Ntp1028
Rp1029
(dp1030
g8
V175.139.195.133
p1031
sg9
F0.0
sg10
g11
sg12
g11
sg13
g11
sg14
VAS4788
p1032
sg16
g11
sbsV89.205.89.29
p1033
g2
(g3
g4
Ntp1034
Rp1035
(dp1036
g8
V89.205.89.29
p1037
sg9
F0.0
sg10
g11
sg12
g11
sg13
g11
sg14
VAS41557
p1038
sg16
g11
sbsV112.121.130.97
p1039
g2
(g3
g4
Ntp1040
Rp1041
(dp1042
g8
V112.121.130.97
p1043
sg9
F0.0
sg10
g11
sg12
g11
sg13
g11
sg14
VAS23884
p1044
sg16
g11
sbsV223.197.152.195
p1045
g2
(g3
g4
Ntp1046
Rp1047
(dp1048
g8
V223.197.152.195
p1049
sg9
F0.0
sg10
g11
sg12
g11
sg13
g11
sg14
VAS4760
p1050
sg16
g11
sbsV40.127.180.216
p1051
g2
(g3
g4
Ntp1052
Rp1053
(dp1054
g8
V40.127.180.216
p1055
sg9
F0.0
sg10
g11
sg12
g11
sg13
g11
sg14
VAS8075
p1056
sg16
g11
sbsV201.30.158.137
p1057
g2
(g3
g4
Ntp1058
Rp1059
(dp1060
g8
V201.30.158.137
p1061
sg9
F0.0
sg10
g11
sg12
g11
sg13
g11
sg14
VAS4230
p1062
sg16
g11
sbsV81.26.205.10
p1063
g2
(g3
g4
Ntp1064
Rp1065
(dp1066
g8
V81.26.205.10
p1067
sg9
F0.0
sg10
g11
sg12
g11
sg13
g11
sg14
VAS197167
p1068
sg16
g11
sbsV23.99.59.197
p1069
g2
(g3
g4
Ntp1070
Rp1071
(dp1072
g8
V23.99.59.197
p1073
sg9
F0.0
sg10
g11
sg12
g11
sg13
g11
sg14
VAS8075
p1074
sg16
g11
sbsV174.46.254.101
p1075
g2
(g3
g4
Ntp1076
Rp1077
(dp1078
g8
V174.46.254.101
p1079
sg9
F0.0
sg10
g11
sg12
g11
sg13
g11
sg14
VAS3549
p1080
sg16
g11
sbsV118.163.47.122
p1081
g2
(g3
g4
Ntp1082
Rp1083
(dp1084
g8
V118.163.47.122
p1085
sg9
F0.0
sg10
g11
sg12
g11
sg13
g11
sg14
VAS3462
p1086
sg16
g11
sbsV118.163.47.123
p1087
g2
(g3
g4
Ntp1088
Rp1089
(dp1090
g8
V118.163.47.123
p1091
sg9
F0.0
sg10
g11
sg12
g11
sg13
g11
sg14
VAS3462
p1092
sg16
g11
sbsV43.240.244.144
p1093
g2
(g3
g4
Ntp1094
Rp1095
(dp1096
g8
V43.240.244.144
p1097
sg9
F0.0
sg10
g11
sg12
g11
sg13
g11
sg14
VAS4808
p1098
sg16
g11
sbsV200.203.125.155
p1099
g2
(g3
g4
Ntp1100
Rp1101
(dp1102
g8
V200.203.125.155
p1103
sg9
F0.0
sg10
g11
sg12
g11
sg13
g11
sg14
VAS8167
p1104
sg16
g11
sbsV177.188.5.132
p1105
g2
(g3
g4
Ntp1106
Rp1107
(dp1108
g8
V177.188.5.132
p1109
sg9
F0.0
sg10
g11
sg12
g11
sg13
g11
sg14
VAS27699
p1110
sg16
g11
sbsV118.163.47.124
p1111
g2
(g3
g4
Ntp1112
Rp1113
(dp1114
g8
V118.163.47.124
p1115
sg9
F0.0
sg10
g11
sg12
g11
sg13
g11
sg14
VAS3462
p1116
sg16
g11
sbsV116.48.136.28
p1117
g2
(g3
g4
Ntp1118
Rp1119
(dp1120
g8
V116.48.136.28
p1121
sg9
F0.0
sg10
g11
sg12
g11
sg13
g11
sg14
VAS4760
p1122
sg16
g11
sbsV108.163.202.94
p1123
g2
(g3
g4
Ntp1124
Rp1125
(dp1126
g8
g1123
sg9
F0.0
sg10
g11
sg12
g11
sg13
g11
sg14
VAS32475
p1127
sg16
g11
sbsV65.48.133.105
p1128
g2
(g3
g4
Ntp1129
Rp1130
(dp1131
g8
V65.48.133.105
p1132
sg9
F0.0
sg10
g11
sg12
g11
sg13
g11
sg14
VAS11139
p1133
sg16
g11
sbsV223.197.250.54
p1134
g2
(g3
g4
Ntp1135
Rp1136
(dp1137
g8
V223.197.250.54
p1138
sg9
F0.0
sg10
g11
sg12
g11
sg13
g11
sg14
VAS4760
p1139
sg16
g11
sbsV34.248.178.86
p1140
g2
(g3
g4
Ntp1141
Rp1142
(dp1143
g8
V34.248.178.86
p1144
sg9
F0.0
sg10
g11
sg12
g11
sg13
g11
sg14
VAS16509
p1145
sg16
g11
sbsV200.24.214.86
p1146
g2
(g3
g4
Ntp1147
Rp1148
(dp1149
g8
V200.24.214.86
p1150
sg9
F0.0
sg10
g11
sg12
g11
sg13
g11
sg14
VAS19114
p1151
sg16
g11
sbsV202.191.187.92
p1152
g2
(g3
g4
Ntp1153
Rp1154
(dp1155
g8
V202.191.187.92
p1156
sg9
F0.0
sg10
g11
sg12
g11
sg13
g11
sg14
VAS9583
p1157
sg16
g11
sbsV31.192.230.109
p1158
g2
(g3
g4
Ntp1159
Rp1160
(dp1161
g8
V31.192.230.109
p1162
sg9
F0.0
sg10
g11
sg12
g11
sg13
g11
sg14
VAS43948
p1163
sg16
g11
sbsV144.76.14.156
p1164
g2
(g3
g4
Ntp1165
Rp1166
(dp1167
g8
V144.76.14.156
p1168
sg9
F0.0
sg10
g11
sg12
g11
sg13
g11
sg14
VAS24940
p1169
sg16
g11
sbsV52.6.243.217
p1170
g2
(g3
g4
Ntp1171
Rp1172
(dp1173
g8
V52.6.243.217
p1174
sg9
F0.0
sg10
g11
sg12
g11
sg13
g11
sg14
VAS14618
p1175
sg16
g11
sbsV149.5.2.36
p1176
g2
(g3
g4
Ntp1177
Rp1178
(dp1179
g8
V149.5.2.36
p1180
sg9
F0.0
sg10
g11
sg12
g11
sg13
g11
sg14
VAS174
p1181
sg16
g11
sbsV132.247.103.8
p1182
g2
(g3
g4
Ntp1183
Rp1184
(dp1185
g8
V132.247.103.8
p1186
sg9
F0.0
sg10
g11
sg12
g11
sg13
g11
sg14
VAS278
p1187
sg16
g11
sbsV24.218.54.49
p1188
g2
(g3
g4
Ntp1189
Rp1190
(dp1191
g8
V24.218.54.49
p1192
sg9
F0.0
sg10
g11
sg12
g11
sg13
g11
sg14
VAS7922
p1193
sg16
g11
sbsV78.134.54.32
p1194
g2
(g3
g4
Ntp1195
Rp1196
(dp1197
g8
V78.134.54.32
p1198
sg9
F0.0
sg10
g11
sg12
g11
sg13
g11
sg14
VAS35612
p1199
sg16
g11
sbsV85.11.45.12
p1200
g2
(g3
g4
Ntp1201
Rp1202
(dp1203
g8
V85.11.45.12
p1204
sg9
F0.0
sg10
g11
sg12
g11
sg13
g11
sg14
VAS34610
p1205
sg16
g11
sbsV87.157.96.173
p1206
g2
(g3
g4
Ntp1207
Rp1208
(dp1209
g8
V87.157.96.173
p1210
sg9
F0.0
sg10
g11
sg12
g11
sg13
g11
sg14
VAS3320
p1211
sg16
g11
sbsV177.99.240.66
p1212
g2
(g3
g4
Ntp1213
Rp1214
(dp1215
g8
V177.99.240.66
p1216
sg9
F0.0
sg10
g11
sg12
g11
sg13
g11
sg14
VAS18881
p1217
sg16
g11
sbsV194.213.44.45
p1218
g2
(g3
g4
Ntp1219
Rp1220
(dp1221
g8
V194.213.44.45
p1222
sg9
F0.0
sg10
g11
sg12
g11
sg13
g11
sg14
VAS5588
p1223
sg16
g11
sbsV92.63.240.174
p1224
g2
(g3
g4
Ntp1225
Rp1226
(dp1227
g8
V92.63.240.174
p1228
sg9
F0.0
sg10
g11
sg12
g11
sg13
g11
sg14
VAS44789
p1229
sg16
g11
sbsV104.131.207.50
p1230
g2
(g3
g4
Ntp1231
Rp1232
(dp1233
g8
g1230
sg9
F0.0
sg10
g11
sg12
g11
sg13
g11
sg14
VAS62567
p1234
sg16
g11
sbsV112.120.120.103
p1235
g2
(g3
g4
Ntp1236
Rp1237
(dp1238
g8
V112.120.120.103
p1239
sg9
F0.0
sg10
g11
sg12
g11
sg13
g11
sg14
VAS4760
p1240
sg16
g11
sbsV186.103.200.213
p1241
g2
(g3
g4
Ntp1242
Rp1243
(dp1244
g8
g1241
sg9
F0.0
sg10
g11
sg12
g11
sg13
g11
sg14
VAS15311
p1245
sg16
g11
sbsV213.80.171.54
p1246
g2
(g3
g4
Ntp1247
Rp1248
(dp1249
g8
V213.80.171.54
p1250
sg9
F0.0
sg10
g11
sg12
g11
sg13
g11
sg14
VAS15974
p1251
sg16
g11
sbsV45.115.36.35
p1252
g2
(g3
g4
Ntp1253
Rp1254
(dp1255
g8
V45.115.36.35
p1256
sg9
F0.0
sg10
g11
sg12
g11
sg13
g11
sg14
VAS24549
p1257
sg16
g11
sbsV84.90.166.214
p1258
g2
(g3
g4
Ntp1259
Rp1260
(dp1261
g8
V84.90.166.214
p1262
sg9
F0.0
sg10
g11
sg12
g11
sg13
g11
sg14
VAS13156
p1263
sg16
g11
sbsV175.45.92.162
p1264
g2
(g3
g4
Ntp1265
Rp1266
(dp1267
g8
V175.45.92.162
p1268
sg9
F0.0
sg10
g11
sg12
g11
sg13
g11
sg14
VAS4826
p1269
sg16
g11
sbsV223.197.235.64
p1270
g2
(g3
g4
Ntp1271
Rp1272
(dp1273
g8
V223.197.235.64
p1274
sg9
F0.0
sg10
g11
sg12
g11
sg13
g11
sg14
VAS4760
p1275
sg16
g11
sbsV27.254.30.166
p1276
g2
(g3
g4
Ntp1277
Rp1278
(dp1279
g8
V27.254.30.166
p1280
sg9
F0.0
sg10
g11
sg12
g11
sg13
g11
sg14
VAS4750
p1281
sg16
g11
sbsV190.52.191.50
p1282
g2
(g3
g4
Ntp1283
Rp1284
(dp1285
g8
V190.52.191.50
p1286
sg9
F0.0
sg10
g11
sg12
g11
sg13
g11
sg14
VAS27866
p1287
sg16
g11
sbsV67.43.216.130
p1288
g2
(g3
g4
Ntp1289
Rp1290
(dp1291
g8
V67.43.216.130
p1292
sg9
F0.0
sg10
g11
sg12
g11
sg13
g11
sg14
VAS394883
p1293
sg16
g11
sbsV42.200.236.196
p1294
g2
(g3
g4
Ntp1295
Rp1296
(dp1297
g8
V42.200.236.196
p1298
sg9
F0.0
sg10
g11
sg12
g11
sg13
g11
sg14
VAS4760
p1299
sg16
g11
sbsV84.44.160.230
p1300
g2
(g3
g4
Ntp1301
Rp1302
(dp1303
g8
V84.44.160.230
p1304
sg9
F0.0
sg10
g11
sg12
g11
sg13
g11
sg14
VAS8422
p1305
sg16
g11
sbsV54.207.52.19
p1306
g2
(g3
g4
Ntp1307
Rp1308
(dp1309
g8
g1306
sg9
F0.0
sg10
g11
sg12
g11
sg13
g11
sg14
VAS16509
p1310
sg16
g11
sbsV5.179.74.44
p1311
g2
(g3
g4
Ntp1312
Rp1313
(dp1314
g8
g1311
sg9
F0.0
sg10
g11
sg12
g11
sg13
g11
sg14
VAS59597
p1315
sg16
g11
sbsV173.215.247.253
p1316
g2
(g3
g4
Ntp1317
Rp1318
(dp1319
g8
g1316
sg9
F0.0
sg10
g11
sg12
g11
sg13
g11
sg14
VAS10396
p1320
sg16
g11
sbsV186.50.104.12
p1321
g2
(g3
g4
Ntp1322
Rp1323
(dp1324
g8
g1321
sg9
F0.0
sg10
g11
sg12
g11
sg13
g11
sg14
VAS6057
p1325
sg16
g11
sbsV85.25.105.239
p1326
g2
(g3
g4
Ntp1327
Rp1328
(dp1329
g8
g1326
sg9
F0.0
sg10
g11
sg12
g11
sg13
g11
sg14
VAS8972
p1330
sg16
g11
sbsV51.254.139.68
p1331
g2
(g3
g4
Ntp1332
Rp1333
(dp1334
g8
V51.254.139.68
p1335
sg9
F0.0
sg10
g11
sg12
g11
sg13
g11
sg14
VAS16276
p1336
sg16
g11
sbsV177.124.195.180
p1337
g2
(g3
g4
Ntp1338
Rp1339
(dp1340
g8
V177.124.195.180
p1341
sg9
F0.0
sg10
g11
sg12
g11
sg13
g11
sg14
VAS17222
p1342
sg16
g11
sbsV217.231.36.103
p1343
g2
(g3
g4
Ntp1344
Rp1345
(dp1346
g8
g1343
sg9
F0.0
sg10
g11
sg12
g11
sg13
g11
sg14
VAS3320
p1347
sg16
g11
sbsV195.81.66.137
p1348
g2
(g3
g4
Ntp1349
Rp1350
(dp1351
g8
V195.81.66.137
p1352
sg9
F0.0
sg10
g11
sg12
g11
sg13
g11
sg14
VAS8928
p1353
sg16
g11
sbsV200.166.254.242
p1354
g2
(g3
g4
Ntp1355
Rp1356
(dp1357
g8
V200.166.254.242
p1358
sg9
F0.0
sg10
g11
sg12
g11
sg13
g11
sg14
VAS4230
p1359
sg16
g11
sbsV187.16.114.146
p1360
g2
(g3
g4
Ntp1361
Rp1362
(dp1363
g8
V187.16.114.146
p1364
sg9
F0.0
sg10
g11
sg12
g11
sg13
g11
sg14
VAS17222
p1365
sg16
g11
sbsV91.242.138.11
p1366
g2
(g3
g4
Ntp1367
Rp1368
(dp1369
g8
V91.242.138.11
p1370
sg9
F0.0
sg10
g11
sg12
g11
sg13
g11
sg14
VAS48427
p1371
sg16
g11
sbsV217.165.113.138
p1372
g2
(g3
g4
Ntp1373
Rp1374
(dp1375
g8
V217.165.113.138
p1376
sg9
F0.0
sg10
g11
sg12
g11
sg13
g11
sg14
VAS5384
p1377
sg16
g11
sbsV98.23.186.165
p1378
g2
(g3
g4
Ntp1379
Rp1380
(dp1381
g8
V98.23.186.165
p1382
sg9
F0.0
sg10
g11
sg12
g11
sg13
g11
sg14
VAS7029
p1383
sg16
g11
sbsV199.204.187.51
p1384
g2
(g3
g4
Ntp1385
Rp1386
(dp1387
g8
g1384
sg9
F0.0
sg10
g11
sg12
g11
sg13
g11
sg14
VAS7363
p1388
sg16
g11
sbsV188.138.75.221
p1389
g2
(g3
g4
Ntp1390
Rp1391
(dp1392
g8
V188.138.75.221
p1393
sg9
F0.0
sg10
g11
sg12
g11
sg13
g11
sg14
VAS8972
p1394
sg16
g11
sbsV81.82.36.47
p1395
g2
(g3
g4
Ntp1396
Rp1397
(dp1398
g8
V81.82.36.47
p1399
sg9
F0.0
sg10
g11
sg12
g11
sg13
g11
sg14
VAS6848
p1400
sg16
g11
sbsV223.197.229.34
p1401
g2
(g3
g4
Ntp1402
Rp1403
(dp1404
g8
V223.197.229.34
p1405
sg9
F0.0
sg10
g11
sg12
g11
sg13
g11
sg14
VAS4760
p1406
sg16
g11
sbsV82.71.44.41
p1407
g2
(g3
g4
Ntp1408
Rp1409
(dp1410
g8
V82.71.44.41
p1411
sg9
F0.0
sg10
g11
sg12
g11
sg13
g11
sg14
VAS13037
p1412
sg16
g11
sbsV112.118.193.209
p1413
g2
(g3
g4
Ntp1414
Rp1415
(dp1416
g8
g1413
sg9
F0.0
sg10
g11
sg12
g11
sg13
g11
sg14
VAS4760
p1417
sg16
g11
sbsV210.66.142.117
p1418
g2
(g3
g4
Ntp1419
Rp1420
(dp1421
g8
V210.66.142.117
p1422
sg9
F0.0
sg10
g11
sg12
g11
sg13
g11
sg14
VAS4780
p1423
sg16
g11
sbsV68.186.50.29
p1424
g2
(g3
g4
Ntp1425
Rp1426
(dp1427
g8
V68.186.50.29
p1428
sg9
F0.0
sg10
g11
sg12
g11
sg13
g11
sg14
VAS20115
p1429
sg16
g11
sbsV82.135.27.167
p1430
g2
(g3
g4
Ntp1431
Rp1432
(dp1433
g8
V82.135.27.167
p1434
sg9
F0.0
sg10
g11
sg12
g11
sg13
g11
sg14
VAS8767
p1435
sg16
g11
sbsV82.79.184.241
p1436
g2
(g3
g4
Ntp1437
Rp1438
(dp1439
g8
V82.79.184.241
p1440
sg9
F0.0
sg10
g11
sg12
g11
sg13
g11
sg14
VAS8708
p1441
sg16
g11
sbsV86.125.99.232
p1442
g2
(g3
g4
Ntp1443
Rp1444
(dp1445
g8
V86.125.99.232
p1446
sg9
F0.0
sg10
g11
sg12
g11
sg13
g11
sg14
VAS8708
p1447
sg16
g11
sbsV140.247.116.186
p1448
g2
(g3
g4
Ntp1449
Rp1450
(dp1451
g8
V140.247.116.186
p1452
sg9
F0.0
sg10
g11
sg12
g11
sg13
g11
sg14
VAS1742
p1453
sg16
g11
sbsV94.103.42.8
p1454
g2
(g3
g4
Ntp1455
Rp1456
(dp1457
g8
V94.103.42.8
p1458
sg9
F0.0
sg10
g11
sg12
g11
sg13
g11
sg14
VAS47894
p1459
sg16
g11
sbsV124.193.132.20
p1460
g2
(g3
g4
Ntp1461
Rp1462
(dp1463
g8
V124.193.132.20
p1464
sg9
F0.0
sg10
g11
sg12
g11
sg13
g11
sg14
VAS17964
p1465
sg16
g11
sbsV111.93.49.2
p1466
g2
(g3
g4
Ntp1467
Rp1468
(dp1469
g8
V111.93.49.2
p1470
sg9
F0.0
sg10
g11
sg12
g11
sg13
g11
sg14
VAS45820
p1471
sg16
g11
sbsV188.109.104.91
p1472
g2
(g3
g4
Ntp1473
Rp1474
(dp1475
g8
g1472
sg9
F0.0
sg10
g11
sg12
g11
sg13
g11
sg14
VAS3209
p1476
sg16
g11
sbsV203.125.13.118
p1477
g2
(g3
g4
Ntp1478
Rp1479
(dp1480
g8
V203.125.13.118
p1481
sg9
F0.0
sg10
g11
sg12
g11
sg13
g11
sg14
VAS3758
p1482
sg16
g11
sbsV124.158.6.211
p1483
g2
(g3
g4
Ntp1484
Rp1485
(dp1486
g8
V124.158.6.211
p1487
sg9
F0.0
sg10
g11
sg12
g11
sg13
g11
sg14
VAS38732
p1488
sg16
g11
sbsV104.31.215.229
p1489
g2
(g3
g4
Ntp1490
Rp1491
(dp1492
g8
g1489
sg9
F0.0
sg10
g11
sg12
g11
sg13
g11
sg14
VAS13335
p1493
sg16
g11
sbsV52.91.36.185
p1494
g2
(g3
g4
Ntp1495
Rp1496
(dp1497
g8
V52.91.36.185
p1498
sg9
F0.0
sg10
g11
sg12
g11
sg13
g11
sg14
VAS14618
p1499
sg16
g11
sbsV86.43.98.147
p1500
g2
(g3
g4
Ntp1501
Rp1502
(dp1503
g8
V86.43.98.147
p1504
sg9
F0.0
sg10
g11
sg12
g11
sg13
g11
sg14
VAS5466
p1505
sg16
g11
sbsV219.145.109.30
p1506
g2
(g3
g4
Ntp1507
Rp1508
(dp1509
g8
V219.145.109.30
p1510
sg9
F0.0
sg10
g11
sg12
g11
sg13
g11
sg14
VAS4134
p1511
sg16
g11
sbsV187.34.126.60
p1512
g2
(g3
g4
Ntp1513
Rp1514
(dp1515
g8
V187.34.126.60
p1516
sg9
F0.0
sg10
g11
sg12
g11
sg13
g11
sg14
VAS27699
p1517
sg16
g11
sbsV94.56.90.60
p1518
g2
(g3
g4
Ntp1519
Rp1520
(dp1521
g8
V94.56.90.60
p1522
sg9
F0.0
sg10
g11
sg12
g11
sg13
g11
sg14
VAS5384
p1523
sg16
g11
sbsV203.86.153.103
p1524
g2
(g3
g4
Ntp1525
Rp1526
(dp1527
g8
V203.86.153.103
p1528
sg9
F0.0
sg10
g11
sg12
g11
sg13
g11
sg14
VAS4515
p1529
sg16
g11
sbsV220.246.76.78
p1530
g2
(g3
g4
Ntp1531
Rp1532
(dp1533
g8
V220.246.76.78
p1534
sg9
F0.0
sg10
g11
sg12
g11
sg13
g11
sg14
VAS4760
p1535
sg16
g11
sbsV186.208.65.76
p1536
g2
(g3
g4
Ntp1537
Rp1538
(dp1539
g8
V186.208.65.76
p1540
sg9
F0.0
sg10
g11
sg12
g11
sg13
g11
sg14
VAS262740
p1541
sg16
g11
sbsV168.187.98.175
p1542
g2
(g3
g4
Ntp1543
Rp1544
(dp1545
g8
V168.187.98.175
p1546
sg9
F0.0
sg10
g11
sg12
g11
sg13
g11
sg14
VAS6412
p1547
sg16
g11
sbsV104.24.211.182
p1548
g2
(g3
g4
Ntp1549
Rp1550
(dp1551
g8
g1548
sg9
F0.0
sg10
g11
sg12
g11
sg13
g11
sg14
VAS13335
p1552
sg16
g11
sbsV38.65.136.143
p1553
g2
(g3
g4
Ntp1554
Rp1555
(dp1556
g8
V38.65.136.143
p1557
sg9
F0.0
sg10
g11
sg12
g11
sg13
g11
sg14
VAS174
p1558
sg16
g11
sbsV128.211.239.54
p1559
g2
(g3
g4
Ntp1560
Rp1561
(dp1562
g8
g1559
sg9
F0.0
sg10
g11
sg12
g11
sg13
g11
sg14
VAS17
p1563
sg16
g11
sbsV92.234.245.120
p1564
g2
(g3
g4
Ntp1565
Rp1566
(dp1567
g8
V92.234.245.120
p1568
sg9
F0.0
sg10
g11
sg12
g11
sg13
g11
sg14
VAS5089
p1569
sg16
g11
sbsV72.197.12.43
p1570
g2
(g3
g4
Ntp1571
Rp1572
(dp1573
g8
V72.197.12.43
p1574
sg9
F0.0
sg10
g11
sg12
g11
sg13
g11
sg14
VAS22773
p1575
sg16
g11
sbsV74.63.50.186
p1576
g2
(g3
g4
Ntp1577
Rp1578
(dp1579
g8
V74.63.50.186
p1580
sg9
F0.0
sg10
g11
sg12
g11
sg13
g11
sg14
VAS29791
p1581
sg16
g11
sbsV201.175.12.107
p1582
g2
(g3
g4
Ntp1583
Rp1584
(dp1585
g8
V201.175.12.107
p1586
sg9
F0.0
sg10
g11
sg12
g11
sg13
g11
sg14
VAS22908
p1587
sg16
g11
sbsV185.26.171.186
p1588
g2
(g3
g4
Ntp1589
Rp1590
(dp1591
g8
V185.26.171.186
p1592
sg9
F0.0
sg10
g11
sg12
g11
sg13
g11
sg14
VAS60738
p1593
sg16
g11
sbsV79.118.135.27
p1594
g2
(g3
g4
Ntp1595
Rp1596
(dp1597
g8
V79.118.135.27
p1598
sg9
F0.0
sg10
g11
sg12
g11
sg13
g11
sg14
VAS8708
p1599
sg16
g11
sbsV89.212.244.39
p1600
g2
(g3
g4
Ntp1601
Rp1602
(dp1603
g8
V89.212.244.39
p1604
sg9
F0.0
sg10
g11
sg12
g11
sg13
g11
sg14
VAS34779
p1605
sg16
g11
sbsV139.124.244.85
p1606
g2
(g3
g4
Ntp1607
Rp1608
(dp1609
g8
V139.124.244.85
p1610
sg9
F0.0
sg10
g11
sg12
g11
sg13
g11
sg14
VAS2200
p1611
sg16
g11
sbsV35.185.52.254
p1612
g2
(g3
g4
Ntp1613
Rp1614
(dp1615
g8
V35.185.52.254
p1616
sg9
F0.0
sg10
g11
sg12
g11
sg13
g11
sg14
VAS15169
p1617
sg16
g11
sbsV80.59.49.38
p1618
g2
(g3
g4
Ntp1619
Rp1620
(dp1621
g8
g1618
sg9
F0.0
sg10
g11
sg12
g11
sg13
g11
sg14
VAS3352
p1622
sg16
g11
sbsV83.254.134.36
p1623
g2
(g3
g4
Ntp1624
Rp1625
(dp1626
g8
V83.254.134.36
p1627
sg9
F0.0
sg10
g11
sg12
g11
sg13
g11
sg14
VAS39651
p1628
sg16
g11
sbsV45.117.239.197
p1629
g2
(g3
g4
Ntp1630
Rp1631
(dp1632
g8
V45.117.239.197
p1633
sg9
F0.0
sg10
g11
sg12
g11
sg13
g11
sg14
VAS133421
p1634
sg16
g11
sbsV89.216.122.97
p1635
g2
(g3
g4
Ntp1636
Rp1637
(dp1638
g8
V89.216.122.97
p1639
sg9
F0.0
sg10
g11
sg12
g11
sg13
g11
sg14
VAS31042
p1640
sg16
g11
sbsV201.62.91.125
p1641
g2
(g3
g4
Ntp1642
Rp1643
(dp1644
g8
g1641
sg9
F0.0
sg10
g11
sg12
g11
sg13
g11
sg14
VAS28634
p1645
sg16
g11
sbsV62.28.225.59
p1646
g2
(g3
g4
Ntp1647
Rp1648
(dp1649
g8
V62.28.225.59
p1650
sg9
F0.0
sg10
g11
sg12
g11
sg13
g11
sg14
VAS15525
p1651
sg16
g11
sbsV194.141.4.18
p1652
g2
(g3
g4
Ntp1653
Rp1654
(dp1655
g8
V194.141.4.18
p1656
sg9
F0.0
sg10
g11
sg12
g11
sg13
g11
sg14
VAS6802
p1657
sg16
g11
sbsV112.120.100.155
p1658
g2
(g3
g4
Ntp1659
Rp1660
(dp1661
g8
V112.120.100.155
p1662
sg9
F0.0
sg10
g11
sg12
g11
sg13
g11
sg14
VAS4760
p1663
sg16
g11
sbsV179.24.12.137
p1664
g2
(g3
g4
Ntp1665
Rp1666
(dp1667
g8
g1664
sg9
F0.0
sg10
g11
sg12
g11
sg13
g11
sg14
VAS6057
p1668
sg16
g11
sbsV203.198.137.105
p1669
g2
(g3
g4
Ntp1670
Rp1671
(dp1672
g8
g1669
sg9
F0.0
sg10
g11
sg12
g11
sg13
g11
sg14
VAS4760
p1673
sg16
g11
sbsV190.80.165.72
p1674
g2
(g3
g4
Ntp1675
Rp1676
(dp1677
g8
V190.80.165.72
p1678
sg9
F0.0
sg10
g11
sg12
g11
sg13
g11
sg14
VAS6400
p1679
sg16
g11
sbsV212.45.30.220
p1680
g2
(g3
g4
Ntp1681
Rp1682
(dp1683
g8
V212.45.30.220
p1684
sg9
F0.0
sg10
g11
sg12
g11
sg13
g11
sg14
VAS8732
p1685
sg16
g11
sbsV138.197.48.193
p1686
g2
(g3
g4
Ntp1687
Rp1688
(dp1689
g8
g1686
sg9
F0.0
sg10
g11
sg12
g11
sg13
g11
sg14
VAS393406
p1690
sg16
g11
sbsV124.49.112.185
p1691
g2
(g3
g4
Ntp1692
Rp1693
(dp1694
g8
V124.49.112.185
p1695
sg9
F0.0
sg10
g11
sg12
g11
sg13
g11
sg14
VAS17858
p1696
sg16
g11
sbsV201.55.140.36
p1697
g2
(g3
g4
Ntp1698
Rp1699
(dp1700
g8
V201.55.140.36
p1701
sg9
F0.0
sg10
g11
sg12
g11
sg13
g11
sg14
VAS28620
p1702
sg16
g11
sbsV52.3.47.23
p1703
g2
(g3
g4
Ntp1704
Rp1705
(dp1706
g8
V52.3.47.23
p1707
sg9
F0.0
sg10
g11
sg12
g11
sg13
g11
sg14
VAS14618
p1708
sg16
g11
sbsV50.242.57.197
p1709
g2
(g3
g4
Ntp1710
Rp1711
(dp1712
g8
V50.242.57.197
p1713
sg9
F0.0
sg10
g11
sg12
g11
sg13
g11
sg14
VAS7922
p1714
sg16
g11
sbsV212.175.88.238
p1715
g2
(g3
g4
Ntp1716
Rp1717
(dp1718
g8
V212.175.88.238
p1719
sg9
F0.0
sg10
g11
sg12
g11
sg13
g11
sg14
VAS9121
p1720
sg16
g11
sbsV212.156.91.238
p1721
g2
(g3
g4
Ntp1722
Rp1723
(dp1724
g8
V212.156.91.238
p1725
sg9
F0.0
sg10
g11
sg12
g11
sg13
g11
sg14
VAS9121
p1726
sg16
g11
sbsV112.120.91.78
p1727
g2
(g3
g4
Ntp1728
Rp1729
(dp1730
g8
V112.120.91.78
p1731
sg9
F0.0
sg10
g11
sg12
g11
sg13
g11
sg14
VAS4760
p1732
sg16
g11
sbsV113.106.1.153
p1733
g2
(g3
g4
Ntp1734
Rp1735
(dp1736
g8
g1733
sg9
F0.0
sg10
g11
sg12
g11
sg13
g11
sg14
VAS4134
p1737
sg16
g11
sbsV45.55.75.125
p1738
g2
(g3
g4
Ntp1739
Rp1740
(dp1741
g8
V45.55.75.125
p1742
sg9
F0.0
sg10
g11
sg12
g11
sg13
g11
sg14
VAS393406
p1743
sg16
g11
sbsV122.227.225.76
p1744
g2
(g3
g4
Ntp1745
Rp1746
(dp1747
g8
V122.227.225.76
p1748
sg9
F0.0
sg10
g11
sg12
g11
sg13
g11
sg14
VAS4134
p1749
sg16
g11
sbsV181.209.239.156
p1750
g2
(g3
g4
Ntp1751
Rp1752
(dp1753
g8
V181.209.239.156
p1754
sg9
F0.0
sg10
g11
sg12
g11
sg13
g11
sg14
VAS14754
p1755
sg16
g11
sbsV201.158.223.170
p1756
g2
(g3
g4
Ntp1757
Rp1758
(dp1759
g8
g1756
sg9
F0.0
sg10
g11
sg12
g11
sg13
g11
sg14
VAS6503
p1760
sg16
g11
sbsV88.26.252.210
p1761
g2
(g3
g4
Ntp1762
Rp1763
(dp1764
g8
V88.26.252.210
p1765
sg9
F0.0
sg10
g11
sg12
g11
sg13
g11
sg14
VAS3352
p1766
sg16
g11
sbsV177.134.41.154
p1767
g2
(g3
g4
Ntp1768
Rp1769
(dp1770
g8
V177.134.41.154
p1771
sg9
F0.0
sg10
g11
sg12
g11
sg13
g11
sg14
VAS18881
p1772
sg16
g11
sbsV91.121.223.89
p1773
g2
(g3
g4
Ntp1774
Rp1775
(dp1776
g8
g1773
sg9
F0.0
sg10
g11
sg12
g11
sg13
g11
sg14
VAS16276
p1777
sg16
g11
sbsV210.187.31.221
p1778
g2
(g3
g4
Ntp1779
Rp1780
(dp1781
g8
V210.187.31.221
p1782
sg9
F0.0
sg10
g11
sg12
g11
sg13
g11
sg14
VAS4788
p1783
sg16
g11
sbsV193.227.5.221
p1784
g2
(g3
g4
Ntp1785
Rp1786
(dp1787
g8
V193.227.5.221
p1788
sg9
F0.0
sg10
g11
sg12
g11
sg13
g11
sg14
VAS2561
p1789
sg16
g11
sbsV83.111.38.136
p1790
g2
(g3
g4
Ntp1791
Rp1792
(dp1793
g8
V83.111.38.136
p1794
sg9
F0.0
sg10
g11
sg12
g11
sg13
g11
sg14
VAS5384
p1795
sg16
g11
sbsV83.111.38.135
p1796
g2
(g3
g4
Ntp1797
Rp1798
(dp1799
g8
V83.111.38.135
p1800
sg9
F0.0
sg10
g11
sg12
g11
sg13
g11
sg14
VAS5384
p1801
sg16
g11
sbsV5.9.240.86
p1802
g2
(g3
g4
Ntp1803
Rp1804
(dp1805
g8
V5.9.240.86
p1806
sg9
F0.0
sg10
g11
sg12
g11
sg13
g11
sg14
VAS24940
p1807
sg16
g11
sbsV200.142.111.154
p1808
g2
(g3
g4
Ntp1809
Rp1810
(dp1811
g8
V200.142.111.154
p1812
sg9
F0.0
sg10
g11
sg12
g11
sg13
g11
sg14
VAS17222
p1813
sg16
g11
sbsV223.197.202.224
p1814
g2
(g3
g4
Ntp1815
Rp1816
(dp1817
g8
V223.197.202.224
p1818
sg9
F0.0
sg10
g11
sg12
g11
sg13
g11
sg14
VAS4760
p1819
sg16
g11
sbsV123.56.157.215
p1820
g2
(g3
g4
Ntp1821
Rp1822
(dp1823
g8
V123.56.157.215
p1824
sg9
F0.0
sg10
g11
sg12
g11
sg13
g11
sg14
VAS37963
p1825
sg16
g11
sbsV24.216.98.169
p1826
g2
(g3
g4
Ntp1827
Rp1828
(dp1829
g8
g1826
sg9
F0.0
sg10
g11
sg12
g11
sg13
g11
sg14
VAS20115
p1830
sg16
g11
sbsV77.238.99.52
p1831
g2
(g3
g4
Ntp1832
Rp1833
(dp1834
g8
V77.238.99.52
p1835
sg9
F0.0
sg10
g11
sg12
g11
sg13
g11
sg14
VAS199599
p1836
sg16
g11
sbsV187.60.50.64
p1837
g2
(g3
g4
Ntp1838
Rp1839
(dp1840
g8
V187.60.50.64
p1841
sg9
F0.0
sg10
g11
sg12
g11
sg13
g11
sg14
VAS28151
p1842
sg16
g11
sbsV38.124.174.112
p1843
g2
(g3
g4
Ntp1844
Rp1845
(dp1846
g8
V38.124.174.112
p1847
sg9
F0.0
sg10
g11
sg12
g11
sg13
g11
sg14
VAS174
p1848
sg16
g11
sbsV223.197.180.232
p1849
g2
(g3
g4
Ntp1850
Rp1851
(dp1852
g8
V223.197.180.232
p1853
sg9
F0.0
sg10
g11
sg12
g11
sg13
g11
sg14
VAS4760
p1854
sg16
g11
sbsV200.21.193.181
p1855
g2
(g3
g4
Ntp1856
Rp1857
(dp1858
g8
V200.21.193.181
p1859
sg9
F0.0
sg10
g11
sg12
g11
sg13
g11
sg14
VAS3816
p1860
sg16
g11
sbsV5.135.195.225
p1861
g2
(g3
g4
Ntp1862
Rp1863
(dp1864
g8
V5.135.195.225
p1865
sg9
F0.0
sg10
g11
sg12
g11
sg13
g11
sg14
VAS16276
p1866
sg16
g11
sbsV187.60.50.63
p1867
g2
(g3
g4
Ntp1868
Rp1869
(dp1870
g8
V187.60.50.63
p1871
sg9
F0.0
sg10
g11
sg12
g11
sg13
g11
sg14
VAS28151
p1872
sg16
g11
sbsV84.200.85.44
p1873
g2
(g3
g4
Ntp1874
Rp1875
(dp1876
g8
V84.200.85.44
p1877
sg9
F0.0
sg10
g11
sg12
g11
sg13
g11
sg14
VAS31400
p1878
sg16
g11
sbsV186.42.186.170
p1879
g2
(g3
g4
Ntp1880
Rp1881
(dp1882
g8
V186.42.186.170
p1883
sg9
F0.0
sg10
g11
sg12
g11
sg13
g11
sg14
VAS14420
p1884
sg16
g11
sbsV186.231.148.85
p1885
g2
(g3
g4
Ntp1886
Rp1887
(dp1888
g8
g1885
sg9
F0.0
sg10
g11
sg12
g11
sg13
g11
sg14
VAS26615
p1889
sg16
g11
sbsV85.126.85.98
p1890
g2
(g3
g4
Ntp1891
Rp1892
(dp1893
g8
g1890
sg9
F0.0
sg10
g11
sg12
g11
sg13
g11
sg14
VAS6830
p1894
sg16
g11
sbsV183.62.220.180
p1895
g2
(g3
g4
Ntp1896
Rp1897
(dp1898
g8
V183.62.220.180
p1899
sg9
F0.0
sg10
g11
sg12
g11
sg13
g11
sg14
VAS4134
p1900
sg16
g11
sbsV210.187.19.28
p1901
g2
(g3
g4
Ntp1902
Rp1903
(dp1904
g8
V210.187.19.28
p1905
sg9
F0.0
sg10
g11
sg12
g11
sg13
g11
sg14
VAS4788
p1906
sg16
g11
sbsV178.248.39.104
p1907
g2
(g3
g4
Ntp1908
Rp1909
(dp1910
g8
V178.248.39.104
p1911
sg9
F0.0
sg10
g11
sg12
g11
sg13
g11
sg14
VAS34555
p1912
sg16
g11
sbsV187.141.145.3
p1913
g2
(g3
g4
Ntp1914
Rp1915
(dp1916
g8
V187.141.145.3
p1917
sg9
F0.0
sg10
g11
sg12
g11
sg13
g11
sg14
VAS8151
p1918
sg16
g11
sbsV187.16.4.41
p1919
g2
(g3
g4
Ntp1920
Rp1921
(dp1922
g8
V187.16.4.41
p1923
sg9
F0.0
sg10
g11
sg12
g11
sg13
g11
sg14
VAS263162
p1924
sg16
g11
sbsV217.160.110.108
p1925
g2
(g3
g4
Ntp1926
Rp1927
(dp1928
g8
V217.160.110.108
p1929
sg9
F0.0
sg10
g11
sg12
g11
sg13
g11
sg14
VAS8560
p1930
sg16
g11
sbsV151.80.135.206
p1931
g2
(g3
g4
Ntp1932
Rp1933
(dp1934
g8
V151.80.135.206
p1935
sg9
F0.0
sg10
g11
sg12
g11
sg13
g11
sg14
VAS16276
p1936
sg16
g11
sbsV52.11.207.17
p1937
g2
(g3
g4
Ntp1938
Rp1939
(dp1940
g8
V52.11.207.17
p1941
sg9
F0.0
sg10
g11
sg12
g11
sg13
g11
sg14
VAS16509
p1942
sg16
g11
sbsV108.161.132.109
p1943
g2
(g3
g4
Ntp1944
Rp1945
(dp1946
g8
V108.161.132.109
p1947
sg9
F0.0
sg10
g11
sg12
g11
sg13
g11
sg14
VAS55045
p1948
sg16
g11
sbsV197.253.22.245
p1949
g2
(g3
g4
Ntp1950
Rp1951
(dp1952
g8
V197.253.22.245
p1953
sg9
F0.0
sg10
g11
sg12
g11
sg13
g11
sg14
VAS37282
p1954
sg16
g11
sbsV200.80.201.217
p1955
g2
(g3
g4
Ntp1956
Rp1957
(dp1958
g8
V200.80.201.217
p1959
sg9
F0.0
sg10
g11
sg12
g11
sg13
g11
sg14
VAS11664
p1960
sg16
g11
sbsV201.120.73.231
p1961
g2
(g3
g4
Ntp1962
Rp1963
(dp1964
g8
V201.120.73.231
p1965
sg9
F0.0
sg10
g11
sg12
g11
sg13
g11
sg14
VAS8151
p1966
sg16
g11
sbsV52.38.210.15
p1967
g2
(g3
g4
Ntp1968
Rp1969
(dp1970
g8
V52.38.210.15
p1971
sg9
F0.0
sg10
g11
sg12
g11
sg13
g11
sg14
VAS16509
p1972
sg16
g11
sbsV177.55.195.47
p1973
g2
(g3
g4
Ntp1974
Rp1975
(dp1976
g8
g1973
sg9
F0.0
sg10
g11
sg12
g11
sg13
g11
sg14
VAS28210
p1977
sg16
g11
sbsV186.46.6.178
p1978
g2
(g3
g4
Ntp1979
Rp1980
(dp1981
g8
V186.46.6.178
p1982
sg9
F0.0
sg10
g11
sg12
g11
sg13
g11
sg14
VAS14420
p1983
sg16
g11
sbsV64.13.205.190
p1984
g2
(g3
g4
Ntp1985
Rp1986
(dp1987
g8
V64.13.205.190
p1988
sg9
F0.0
sg10
g11
sg12
g11
sg13
g11
sg14
VAS31815
p1989
sg16
g11
sbsV140.114.38.250
p1990
g2
(g3
g4
Ntp1991
Rp1992
(dp1993
g8
V140.114.38.250
p1994
sg9
F0.0
sg10
g11
sg12
g11
sg13
g11
sg14
VAS18047
p1995
sg16
g11
sbsV58.152.41.153
p1996
g2
(g3
g4
Ntp1997
Rp1998
(dp1999
g8
V58.152.41.153
p2000
sg9
F0.0
sg10
g11
sg12
g11
sg13
g11
sg14
VAS4760
p2001
sg16
g11
sbsV190.19.31.185
p2002
g2
(g3
g4
Ntp2003
Rp2004
(dp2005
g8
V190.19.31.185
p2006
sg9
F0.0
sg10
g11
sg12
g11
sg13
g11
sg14
VAS10481
p2007
sg16
g11
sbsV192.99.220.97
p2008
g2
(g3
g4
Ntp2009
Rp2010
(dp2011
g8
V192.99.220.97
p2012
sg9
F0.0
sg10
g11
sg12
g11
sg13
g11
sg14
VAS16276
p2013
sg16
g11
sbsV218.103.32.123
p2014
g2
(g3
g4
Ntp2015
Rp2016
(dp2017
g8
V218.103.32.123
p2018
sg9
F0.0
sg10
g11
sg12
g11
sg13
g11
sg14
VAS4760
p2019
sg16
g11
sbsV177.95.66.22
p2020
g2
(g3
g4
Ntp2021
Rp2022
(dp2023
g8
g2020
sg9
F0.0
sg10
g11
sg12
g11
sg13
g11
sg14
VAS27699
p2024
sg16
g11
sbsV114.143.192.179
p2025
g2
(g3
g4
Ntp2026
Rp2027
(dp2028
g8
V114.143.192.179
p2029
sg9
F0.0
sg10
g11
sg12
g11
sg13
g11
sg14
VAS17762
p2030
sg16
g11
sbsV67.231.251.21
p2031
g2
(g3
g4
Ntp2032
Rp2033
(dp2034
g8
g2031
sg9
F0.0
sg10
g11
sg12
g11
sg13
g11
sg14
VAS40244
p2035
sg16
g11
sbsV103.15.60.95
p2036
g2
(g3
g4
Ntp2037
Rp2038
(dp2039
g8
V103.15.60.95
p2040
sg9
F0.0
sg10
g11
sg12
g11
sg13
g11
sg14
VAS59164
p2041
sg16
g11
sbsV209.87.234.94
p2042
g2
(g3
g4
Ntp2043
Rp2044
(dp2045
g8
V209.87.234.94
p2046
sg9
F0.0
sg10
g11
sg12
g11
sg13
g11
sg14
VAS13319
p2047
sg16
g11
sbsV186.95.39.83
p2048
g2
(g3
g4
Ntp2049
Rp2050
(dp2051
g8
V186.95.39.83
p2052
sg9
F0.0
sg10
g11
sg12
g11
sg13
g11
sg14
VAS8048
p2053
sg16
g11
sbsV79.172.201.107
p2054
g2
(g3
g4
Ntp2055
Rp2056
(dp2057
g8
V79.172.201.107
p2058
sg9
F0.0
sg10
g11
sg12
g11
sg13
g11
sg14
VAS62292
p2059
sg16
g11
sbsV75.99.179.38
p2060
g2
(g3
g4
Ntp2061
Rp2062
(dp2063
g8
V75.99.179.38
p2064
sg9
F0.0
sg10
g11
sg12
g11
sg13
g11
sg14
VAS6128
p2065
sg16
g11
sbsV74.93.155.13
p2066
g2
(g3
g4
Ntp2067
Rp2068
(dp2069
g8
V74.93.155.13
p2070
sg9
F0.0
sg10
g11
sg12
g11
sg13
g11
sg14
VAS7922
p2071
sg16
g11
sbsV68.37.66.18
p2072
g2
(g3
g4
Ntp2073
Rp2074
(dp2075
g8
V68.37.66.18
p2076
sg9
F0.0
sg10
g11
sg12
g11
sg13
g11
sg14
VAS7922
p2077
sg16
g11
sbsV217.92.53.211
p2078
g2
(g3
g4
Ntp2079
Rp2080
(dp2081
g8
g2078
sg9
F0.0
sg10
g11
sg12
g11
sg13
g11
sg14
VAS3320
p2082
sg16
g11
sbsV36.225.32.6
p2083
g2
(g3
g4
Ntp2084
Rp2085
(dp2086
g8
V36.225.32.6
p2087
sg9
F0.0
sg10
g11
sg12
g11
sg13
g11
sg14
VAS3462
p2088
sg16
g11
sbsV93.237.145.105
p2089
g2
(g3
g4
Ntp2090
Rp2091
(dp2092
g8
V93.237.145.105
p2093
sg9
F0.0
sg10
g11
sg12
g11
sg13
g11
sg14
VAS3320
p2094
sg16
g11
sbsV195.46.10.195
p2095
g2
(g3
g4
Ntp2096
Rp2097
(dp2098
g8
V195.46.10.195
p2099
sg9
F0.0
sg10
g11
sg12
g11
sg13
g11
sg14
VAS12361
p2100
sg16
g11
sbsV118.101.11.84
p2101
g2
(g3
g4
Ntp2102
Rp2103
(dp2104
g8
V118.101.11.84
p2105
sg9
F0.0
sg10
g11
sg12
g11
sg13
g11
sg14
VAS4788
p2106
sg16
g11
sbsV121.123.150.51
p2107
g2
(g3
g4
Ntp2108
Rp2109
(dp2110
g8
V121.123.150.51
p2111
sg9
F0.0
sg10
g11
sg12
g11
sg13
g11
sg14
VAS9534
p2112
sg16
g11
sbsV182.239.169.101
p2113
g2
(g3
g4
Ntp2114
Rp2115
(dp2116
g8
V182.239.169.101
p2117
sg9
F0.0
sg10
g11
sg12
g11
sg13
g11
sg14
VAS4739
p2118
sg16
g11
sbsV65.87.215.19
p2119
g2
(g3
g4
Ntp2120
Rp2121
(dp2122
g8
g2119
sg9
F0.0
sg10
g11
sg12
g11
sg13
g11
sg14
VAS20472
p2123
sg16
g11
sbsV220.167.118.181
p2124
g2
(g3
g4
Ntp2125
Rp2126
(dp2127
g8
V220.167.118.181
p2128
sg9
F0.0
sg10
g11
sg12
g11
sg13
g11
sg14
VAS4134
p2129
sg16
g11
sbsV200.217.24.30
p2130
g2
(g3
g4
Ntp2131
Rp2132
(dp2133
g8
V200.217.24.30
p2134
sg9
F0.0
sg10
g11
sg12
g11
sg13
g11
sg14
VAS7738
p2135
sg16
g11
sbsV178.33.116.51
p2136
g2
(g3
g4
Ntp2137
Rp2138
(dp2139
g8
V178.33.116.51
p2140
sg9
F0.0
sg10
g11
sg12
g11
sg13
g11
sg14
VAS16276
p2141
sg16
g11
sbsV188.247.61.90
p2142
g2
(g3
g4
Ntp2143
Rp2144
(dp2145
g8
V188.247.61.90
p2146
sg9
F0.0
sg10
g11
sg12
g11
sg13
g11
sg14
VAS39442
p2147
sg16
g11
sbsV138.94.113.178
p2148
g2
(g3
g4
Ntp2149
Rp2150
(dp2151
g8
V138.94.113.178
p2152
sg9
F0.0
sg10
g11
sg12
g11
sg13
g11
sg14
VAS52866
p2153
sg16
g11
sbsV88.85.239.100
p2154
g2
(g3
g4
Ntp2155
Rp2156
(dp2157
g8
V88.85.239.100
p2158
sg9
F0.0
sg10
g11
sg12
g11
sg13
g11
sg14
VAS29684
p2159
sg16
g11
sbsV73.219.119.153
p2160
g2
(g3
g4
Ntp2161
Rp2162
(dp2163
g8
V73.219.119.153
p2164
sg9
F0.0
sg10
g11
sg12
g11
sg13
g11
sg14
VAS7922
p2165
sg16
g11
sbsV85.105.39.251
p2166
g2
(g3
g4
Ntp2167
Rp2168
(dp2169
g8
V85.105.39.251
p2170
sg9
F0.0
sg10
g11
sg12
g11
sg13
g11
sg14
VAS9121
p2171
sg16
g11
sbsV203.128.246.254
p2172
g2
(g3
g4
Ntp2173
Rp2174
(dp2175
g8
V203.128.246.254
p2176
sg9
F0.0
sg10
g11
sg12
g11
sg13
g11
sg14
VAS24088
p2177
sg16
g11
sbsV223.197.163.170
p2178
g2
(g3
g4
Ntp2179
Rp2180
(dp2181
g8
V223.197.163.170
p2182
sg9
F0.0
sg10
g11
sg12
g11
sg13
g11
sg14
VAS4760
p2183
sg16
g11
sbsV95.68.252.180
p2184
g2
(g3
g4
Ntp2185
Rp2186
(dp2187
g8
V95.68.252.180
p2188
sg9
F0.0
sg10
g11
sg12
g11
sg13
g11
sg14
VAS12389
p2189
sg16
g11
sbsV184.177.173.169
p2190
g2
(g3
g4
Ntp2191
Rp2192
(dp2193
g8
V184.177.173.169
p2194
sg9
F0.0
sg10
g11
sg12
g11
sg13
g11
sg14
VAS22773
p2195
sg16
g11
sbsV78.186.195.129
p2196
g2
(g3
g4
Ntp2197
Rp2198
(dp2199
g8
V78.186.195.129
p2200
sg9
F0.0
sg10
g11
sg12
g11
sg13
g11
sg14
VAS9121
p2201
sg16
g11
sbsV158.106.204.226
p2202
g2
(g3
g4
Ntp2203
Rp2204
(dp2205
g8
V158.106.204.226
p2206
sg9
F0.0
sg10
g11
sg12
g11
sg13
g11
sg14
VAS46450
p2207
sg16
g11
sbsV191.85.172.168
p2208
g2
(g3
g4
Ntp2209
Rp2210
(dp2211
g8
V191.85.172.168
p2212
sg9
F0.0
sg10
g11
sg12
g11
sg13
g11
sg14
VAS22927
p2213
sg16
g11
sbsV91.183.201.229
p2214
g2
(g3
g4
Ntp2215
Rp2216
(dp2217
g8
V91.183.201.229
p2218
sg9
F0.0
sg10
g11
sg12
g11
sg13
g11
sg14
VAS5432
p2219
sg16
g11
sbsV173.231.129.193
p2220
g2
(g3
g4
Ntp2221
Rp2222
(dp2223
g8
V173.231.129.193
p2224
sg9
F0.0
sg10
g11
sg12
g11
sg13
g11
sg14
VAS29791
p2225
sg16
g11
sbsV42.200.250.178
p2226
g2
(g3
g4
Ntp2227
Rp2228
(dp2229
g8
V42.200.250.178
p2230
sg9
F0.0
sg10
g11
sg12
g11
sg13
g11
sg14
VAS4760
p2231
sg16
g11
sbsV179.61.83.79
p2232
g2
(g3
g4
Ntp2233
Rp2234
(dp2235
g8
V179.61.83.79
p2236
sg9
F0.0
sg10
g11
sg12
g11
sg13
g11
sg14
VAS264656
p2237
sg16
g11
sbsV120.24.210.119
p2238
g2
(g3
g4
Ntp2239
Rp2240
(dp2241
g8
V120.24.210.119
p2242
sg9
F0.0
sg10
g11
sg12
g11
sg13
g11
sg14
VAS37963
p2243
sg16
g11
sbsV190.188.100.156
p2244
g2
(g3
g4
Ntp2245
Rp2246
(dp2247
g8
V190.188.100.156
p2248
sg9
F0.0
sg10
g11
sg12
g11
sg13
g11
sg14
VAS10481
p2249
sg16
g11
sbsV211.240.71.38
p2250
g2
(g3
g4
Ntp2251
Rp2252
(dp2253
g8
V211.240.71.38
p2254
sg9
F0.0
sg10
g11
sg12
g11
sg13
g11
sg14
VAS4663
p2255
sg16
g11
sbsV54.254.183.8
p2256
g2
(g3
g4
Ntp2257
Rp2258
(dp2259
g8
g2256
sg9
F0.0
sg10
g11
sg12
g11
sg13
g11
sg14
VAS16509
p2260
sg16
g11
sbsV58.152.39.63
p2261
g2
(g3
g4
Ntp2262
Rp2263
(dp2264
g8
V58.152.39.63
p2265
sg9
F0.0
sg10
g11
sg12
g11
sg13
g11
sg14
VAS4760
p2266
sg16
g11
sbsV24.139.44.195
p2267
g2
(g3
g4
Ntp2268
Rp2269
(dp2270
g8
V24.139.44.195
p2271
sg9
F0.0
sg10
g11
sg12
g11
sg13
g11
sg14
VAS11976
p2272
sg16
g11
sbsV52.76.102.231
p2273
g2
(g3
g4
Ntp2274
Rp2275
(dp2276
g8
V52.76.102.231
p2277
sg9
F0.0
sg10
g11
sg12
g11
sg13
g11
sg14
VAS16509
p2278
sg16
g11
sbsV82.208.131.132
p2279
g2
(g3
g4
Ntp2280
Rp2281
(dp2282
g8
V82.208.131.132
p2283
sg9
F0.0
sg10
g11
sg12
g11
sg13
g11
sg14
VAS6830
p2284
sg16
g11
sbsV213.97.227.152
p2285
g2
(g3
g4
Ntp2286
Rp2287
(dp2288
g8
V213.97.227.152
p2289
sg9
F0.0
sg10
g11
sg12
g11
sg13
g11
sg14
VAS3352
p2290
sg16
g11
sbsV31.148.255.48
p2291
g2
(g3
g4
Ntp2292
Rp2293
(dp2294
g8
g2291
sg9
F0.0
sg10
g11
sg12
g11
sg13
g11
sg14
VAS47702
p2295
sg16
g11
sbsV104.199.231.18
p2296
g2
(g3
g4
Ntp2297
Rp2298
(dp2299
g8
V104.199.231.18
p2300
sg9
F0.0
sg10
g11
sg12
g11
sg13
g11
sg14
VAS15169
p2301
sg16
g11
sbsV178.248.39.150
p2302
g2
(g3
g4
Ntp2303
Rp2304
(dp2305
g8
V178.248.39.150
p2306
sg9
F0.0
sg10
g11
sg12
g11
sg13
g11
sg14
VAS34555
p2307
sg16
g11
sbsV179.51.74.5
p2308
g2
(g3
g4
Ntp2309
Rp2310
(dp2311
g8
V179.51.74.5
p2312
sg9
F0.0
sg10
g11
sg12
g11
sg13
g11
sg14
VAS52471
p2313
sg16
g11
sbsV85.214.155.253
p2314
g2
(g3
g4
Ntp2315
Rp2316
(dp2317
g8
V85.214.155.253
p2318
sg9
F0.0
sg10
g11
sg12
g11
sg13
g11
sg14
VAS6724
p2319
sg16
g11
sbsV213.77.26.86
p2320
g2
(g3
g4
Ntp2321
Rp2322
(dp2323
g8
V213.77.26.86
p2324
sg9
F0.0
sg10
g11
sg12
g11
sg13
g11
sg14
VAS5617
p2325
sg16
g11
sbsV213.77.26.87
p2326
g2
(g3
g4
Ntp2327
Rp2328
(dp2329
g8
V213.77.26.87
p2330
sg9
F0.0
sg10
g11
sg12
g11
sg13
g11
sg14
VAS5617
p2331
sg16
g11
sbsV223.197.184.174
p2332
g2
(g3
g4
Ntp2333
Rp2334
(dp2335
g8
V223.197.184.174
p2336
sg9
F0.0
sg10
g11
sg12
g11
sg13
g11
sg14
VAS4760
p2337
sg16
g11
sbsV213.77.26.85
p2338
g2
(g3
g4
Ntp2339
Rp2340
(dp2341
g8
V213.77.26.85
p2342
sg9
F0.0
sg10
g11
sg12
g11
sg13
g11
sg14
VAS5617
p2343
sg16
g11
sbsV108.61.221.125
p2344
g2
(g3
g4
Ntp2345
Rp2346
(dp2347
g8
V108.61.221.125
p2348
sg9
F0.0
sg10
g11
sg12
g11
sg13
g11
sg14
VAS20473
p2349
sg16
g11
sbsV201.33.200.18
p2350
g2
(g3
g4
Ntp2351
Rp2352
(dp2353
g8
V201.33.200.18
p2354
sg9
F0.0
sg10
g11
sg12
g11
sg13
g11
sg14
VAS28284
p2355
sg16
g11
sbsV85.236.191.80
p2356
g2
(g3
g4
Ntp2357
Rp2358
(dp2359
g8
V85.236.191.80
p2360
sg9
F0.0
sg10
g11
sg12
g11
sg13
g11
sg14
VAS35032
p2361
sg16
g11
sbsV89.239.191.69
p2362
g2
(g3
g4
Ntp2363
Rp2364
(dp2365
g8
V89.239.191.69
p2366
sg9
F0.0
sg10
g11
sg12
g11
sg13
g11
sg14
VAS12389
p2367
sg16
g11
sbsV65.38.211.147
p2368
g2
(g3
g4
Ntp2369
Rp2370
(dp2371
g8
V65.38.211.147
p2372
sg9
F0.0
sg10
g11
sg12
g11
sg13
g11
sg14
VAS11992
p2373
sg16
g11
sbsV175.138.66.100
p2374
g2
(g3
g4
Ntp2375
Rp2376
(dp2377
g8
V175.138.66.100
p2378
sg9
F0.0
sg10
g11
sg12
g11
sg13
g11
sg14
VAS4788
p2379
sg16
g11
sbsV27.124.116.110
p2380
g2
(g3
g4
Ntp2381
Rp2382
(dp2383
g8
g2380
sg9
F0.0
sg10
g11
sg12
g11
sg13
g11
sg14
VAS38719
p2384
sg16
g11
sbsV219.76.190.200
p2385
g2
(g3
g4
Ntp2386
Rp2387
(dp2388
g8
V219.76.190.200
p2389
sg9
F0.0
sg10
g11
sg12
g11
sg13
g11
sg14
VAS4760
p2390
sg16
g11
sbsV24.139.11.69
p2391
g2
(g3
g4
Ntp2392
Rp2393
(dp2394
g8
V24.139.11.69
p2395
sg9
F0.0
sg10
g11
sg12
g11
sg13
g11
sg14
VAS23184
p2396
sg16
g11
sbsV69.55.137.214
p2397
g2
(g3
g4
Ntp2398
Rp2399
(dp2400
g8
V69.55.137.214
p2401
sg9
F0.0
sg10
g11
sg12
g11
sg13
g11
sg14
VAS23127
p2402
sg16
g11
sbsV163.200.81.94
p2403
g2
(g3
g4
Ntp2404
Rp2405
(dp2406
g8
V163.200.81.94
p2407
sg9
F0.0
sg10
g11
sg12
g11
sg13
g11
sg14
VAS2018
p2408
sg16
g11
sbsV219.76.187.218
p2409
g2
(g3
g4
Ntp2410
Rp2411
(dp2412
g8
V219.76.187.218
p2413
sg9
F0.0
sg10
g11
sg12
g11
sg13
g11
sg14
VAS4760
p2414
sg16
g11
sbsV201.86.187.31
p2415
g2
(g3
g4
Ntp2416
Rp2417
(dp2418
g8
V201.86.187.31
p2419
sg9
F0.0
sg10
g11
sg12
g11
sg13
g11
sg14
VAS18881
p2420
sg16
g11
sbsV77.93.128.10
p2421
g2
(g3
g4
Ntp2422
Rp2423
(dp2424
g8
g2421
sg9
F0.0
sg10
g11
sg12
g11
sg13
g11
sg14
VAS60648
p2425
sg16
g11
sbsV159.203.113.117
p2426
g2
(g3
g4
Ntp2427
Rp2428
(dp2429
g8
V159.203.113.117
p2430
sg9
F0.0
sg10
g11
sg12
g11
sg13
g11
sg14
VAS393406
p2431
sg16
g11
sbsV70.39.147.58
p2432
g2
(g3
g4
Ntp2433
Rp2434
(dp2435
g8
g2432
sg9
F0.0
sg10
g11
sg12
g11
sg13
g11
sg14
VAS54641
p2436
sg16
g11
sbsV203.183.93.139
p2437
g2
(g3
g4
Ntp2438
Rp2439
(dp2440
g8
g2437
sg9
F0.0
sg10
g11
sg12
g11
sg13
g11
sg14
VAS2554
p2441
sg16
g11
sbsV120.76.154.191
p2442
g2
(g3
g4
Ntp2443
Rp2444
(dp2445
g8
V120.76.154.191
p2446
sg9
F0.0
sg10
g11
sg12
g11
sg13
g11
sg14
VAS37963
p2447
sg16
g11
sbsV112.120.74.77
p2448
g2
(g3
g4
Ntp2449
Rp2450
(dp2451
g8
V112.120.74.77
p2452
sg9
F0.0
sg10
g11
sg12
g11
sg13
g11
sg14
VAS4760
p2453
sg16
g11
sbsV203.116.137.100
p2454
g2
(g3
g4
Ntp2455
Rp2456
(dp2457
g8
V203.116.137.100
p2458
sg9
F0.0
sg10
g11
sg12
g11
sg13
g11
sg14
VAS4657
p2459
sg16
g11
sbsV223.197.234.72
p2460
g2
(g3
g4
Ntp2461
Rp2462
(dp2463
g8
V223.197.234.72
p2464
sg9
F0.0
sg10
g11
sg12
g11
sg13
g11
sg14
VAS4760
p2465
sg16
g11
sbsV177.69.250.65
p2466
g2
(g3
g4
Ntp2467
Rp2468
(dp2469
g8
V177.69.250.65
p2470
sg9
F0.0
sg10
g11
sg12
g11
sg13
g11
sg14
VAS16735
p2471
sg16
g11
sbsV190.248.136.53
p2472
g2
(g3
g4
Ntp2473
Rp2474
(dp2475
g8
V190.248.136.53
p2476
sg9
F0.0
sg10
g11
sg12
g11
sg13
g11
sg14
VAS13489
p2477
sg16
g11
sbsV187.217.87.235
p2478
g2
(g3
g4
Ntp2479
Rp2480
(dp2481
g8
V187.217.87.235
p2482
sg9
F0.0
sg10
g11
sg12
g11
sg13
g11
sg14
VAS8151
p2483
sg16
g11
sbsV185.110.20.170
p2484
g2
(g3
g4
Ntp2485
Rp2486
(dp2487
g8
V185.110.20.170
p2488
sg9
F0.0
sg10
g11
sg12
g11
sg13
g11
sg14
VAS12874
p2489
sg16
g11
sbsV43.242.241.218
p2490
g2
(g3
g4
Ntp2491
Rp2492
(dp2493
g8
V43.242.241.218
p2494
sg9
F0.0
sg10
g11
sg12
g11
sg13
g11
sg14
VAS17882
p2495
sg16
g11
sbsV46.101.238.243
p2496
g2
(g3
g4
Ntp2497
Rp2498
(dp2499
g8
V46.101.238.243
p2500
sg9
F0.0
sg10
g11
sg12
g11
sg13
g11
sg14
VAS201229
p2501
sg16
g11
sbsV87.106.136.145
p2502
g2
(g3
g4
Ntp2503
Rp2504
(dp2505
g8
V87.106.136.145
p2506
sg9
F0.0
sg10
g11
sg12
g11
sg13
g11
sg14
VAS8560
p2507
sg16
g11
sbsV80.152.253.191
p2508
g2
(g3
g4
Ntp2509
Rp2510
(dp2511
g8
V80.152.253.191
p2512
sg9
F0.0
sg10
g11
sg12
g11
sg13
g11
sg14
VAS3320
p2513
sg16
g11
sbsV79.229.173.118
p2514
g2
(g3
g4
Ntp2515
Rp2516
(dp2517
g8
V79.229.173.118
p2518
sg9
F0.0
sg10
g11
sg12
g11
sg13
g11
sg14
VAS3320
p2519
sg16
g11
sbsV188.85.159.185
p2520
g2
(g3
g4
Ntp2521
Rp2522
(dp2523
g8
V188.85.159.185
p2524
sg9
F0.0
sg10
g11
sg12
g11
sg13
g11
sg14
VAS12430
p2525
sg16
g11
sbsV217.253.99.113
p2526
g2
(g3
g4
Ntp2527
Rp2528
(dp2529
g8
V217.253.99.113
p2530
sg9
F0.0
sg10
g11
sg12
g11
sg13
g11
sg14
VAS3320
p2531
sg16
g11
sbsV177.53.32.77
p2532
g2
(g3
g4
Ntp2533
Rp2534
(dp2535
g8
g2532
sg9
F0.0
sg10
g11
sg12
g11
sg13
g11
sg14
VAS262457
p2536
sg16
g11
sbsV194.250.50.137
p2537
g2
(g3
g4
Ntp2538
Rp2539
(dp2540
g8
V194.250.50.137
p2541
sg9
F0.0
sg10
g11
sg12
g11
sg13
g11
sg14
VAS3215
p2542
sg16
g11
sbsV175.136.242.41
p2543
g2
(g3
g4
Ntp2544
Rp2545
(dp2546
g8
V175.136.242.41
p2547
sg9
F0.0
sg10
g11
sg12
g11
sg13
g11
sg14
VAS4788
p2548
sg16
g11
sbsV46.101.199.59
p2549
g2
(g3
g4
Ntp2550
Rp2551
(dp2552
g8
V46.101.199.59
p2553
sg9
F0.0
sg10
g11
sg12
g11
sg13
g11
sg14
VAS201229
p2554
sg16
g11
sbsV219.76.179.37
p2555
g2
(g3
g4
Ntp2556
Rp2557
(dp2558
g8
V219.76.179.37
p2559
sg9
F0.0
sg10
g11
sg12
g11
sg13
g11
sg14
VAS4760
p2560
sg16
g11
sbsV182.19.4.220
p2561
g2
(g3
g4
Ntp2562
Rp2563
(dp2564
g8
V182.19.4.220
p2565
sg9
F0.0
sg10
g11
sg12
g11
sg13
g11
sg14
VAS55410
p2566
sg16
g11
sbsV93.211.178.14
p2567
g2
(g3
g4
Ntp2568
Rp2569
(dp2570
g8
V93.211.178.14
p2571
sg9
F0.0
sg10
g11
sg12
g11
sg13
g11
sg14
VAS3320
p2572
sg16
g11
sbsV122.116.164.114
p2573
g2
(g3
g4
Ntp2574
Rp2575
(dp2576
g8
g2573
sg9
F0.0
sg10
g11
sg12
g11
sg13
g11
sg14
VAS3462
p2577
sg16
g11
sbsV85.234.189.249
p2578
g2
(g3
g4
Ntp2579
Rp2580
(dp2581
g8
g2578
sg9
F0.0
sg10
g11
sg12
g11
sg13
g11
sg14
VAS48680
p2582
sg16
g11
sbsV84.246.0.193
p2583
g2
(g3
g4
Ntp2584
Rp2585
(dp2586
g8
V84.246.0.193
p2587
sg9
F0.0
sg10
g11
sg12
g11
sg13
g11
sg14
VAS28685
p2588
sg16
g11
sbsV92.212.27.28
p2589
g2
(g3
g4
Ntp2590
Rp2591
(dp2592
g8
g2589
sg9
F0.0
sg10
g11
sg12
g11
sg13
g11
sg14
VAS3209
p2593
sg16
g11
sbsV93.207.56.18
p2594
g2
(g3
g4
Ntp2595
Rp2596
(dp2597
g8
g2594
sg9
F0.0
sg10
g11
sg12
g11
sg13
g11
sg14
VAS3320
p2598
sg16
g11
sbsV173.83.94.154
p2599
g2
(g3
g4
Ntp2600
Rp2601
(dp2602
g8
g2599
sg9
F0.0
sg10
g11
sg12
g11
sg13
g11
sg14
VAS32392
p2603
sg16
g11
sbsV81.218.41.96
p2604
g2
(g3
g4
Ntp2605
Rp2606
(dp2607
g8
V81.218.41.96
p2608
sg9
F0.0
sg10
g11
sg12
g11
sg13
g11
sg14
VAS8551
p2609
sg16
g11
sbsV152.173.13.150
p2610
g2
(g3
g4
Ntp2611
Rp2612
(dp2613
g8
V152.173.13.150
p2614
sg9
F0.0
sg10
g11
sg12
g11
sg13
g11
sg14
VAS7418
p2615
sg16
g11
sbsV49.231.149.16
p2616
g2
(g3
g4
Ntp2617
Rp2618
(dp2619
g8
V49.231.149.16
p2620
sg9
F0.0
sg10
g11
sg12
g11
sg13
g11
sg14
VAS45458
p2621
sg16
g11
sbsV213.114.239.155
p2622
g2
(g3
g4
Ntp2623
Rp2624
(dp2625
g8
V213.114.239.155
p2626
sg9
F0.0
sg10
g11
sg12
g11
sg13
g11
sg14
VAS2119
p2627
sg16
g11
sbsV80.18.171.82
p2628
g2
(g3
g4
Ntp2629
Rp2630
(dp2631
g8
V80.18.171.82
p2632
sg9
F0.0
sg10
g11
sg12
g11
sg13
g11
sg14
VAS3269
p2633
sg16
g11
sbsV5.158.71.249
p2634
g2
(g3
g4
Ntp2635
Rp2636
(dp2637
g8
V5.158.71.249
p2638
sg9
F0.0
sg10
g11
sg12
g11
sg13
g11
sg14
VAS199181
p2639
sg16
g11
sbsV80.69.162.115
p2640
g2
(g3
g4
Ntp2641
Rp2642
(dp2643
g8
V80.69.162.115
p2644
sg9
F0.0
sg10
g11
sg12
g11
sg13
g11
sg14
VAS31211
p2645
sg16
g11
sbsV192.241.124.134
p2646
g2
(g3
g4
Ntp2647
Rp2648
(dp2649
g8
g2646
sg9
F0.0
sg10
g11
sg12
g11
sg13
g11
sg14
VAS55286
p2650
sg16
g11
sbsV213.153.182.82
p2651
g2
(g3
g4
Ntp2652
Rp2653
(dp2654
g8
V213.153.182.82
p2655
sg9
F0.0
sg10
g11
sg12
g11
sg13
g11
sg14
VAS34984
p2656
sg16
g11
sbsV186.155.192.149
p2657
g2
(g3
g4
Ntp2658
Rp2659
(dp2660
g8
V186.155.192.149
p2661
sg9
F0.0
sg10
g11
sg12
g11
sg13
g11
sg14
VAS19429
p2662
sg16
g11
sbsV104.196.114.170
p2663
g2
(g3
g4
Ntp2664
Rp2665
(dp2666
g8
V104.196.114.170
p2667
sg9
F0.0
sg10
g11
sg12
g11
sg13
g11
sg14
VAS15169
p2668
sg16
g11
sbsV200.145.241.88
p2669
g2
(g3
g4
Ntp2670
Rp2671
(dp2672
g8
V200.145.241.88
p2673
sg9
F0.0
sg10
g11
sg12
g11
sg13
g11
sg14
VAS53166
p2674
sg16
g11
sbsV41.33.225.82
p2675
g2
(g3
g4
Ntp2676
Rp2677
(dp2678
g8
V41.33.225.82
p2679
sg9
F0.0
sg10
g11
sg12
g11
sg13
g11
sg14
VAS8452
p2680
sg16
g11
sbsV41.33.225.83
p2681
g2
(g3
g4
Ntp2682
Rp2683
(dp2684
g8
V41.33.225.83
p2685
sg9
F0.0
sg10
g11
sg12
g11
sg13
g11
sg14
VAS8452
p2686
sg16
g11
sbsV41.33.225.80
p2687
g2
(g3
g4
Ntp2688
Rp2689
(dp2690
g8
V41.33.225.80
p2691
sg9
F0.0
sg10
g11
sg12
g11
sg13
g11
sg14
VAS8452
p2692
sg16
g11
sbsV54.213.142.168
p2693
g2
(g3
g4
Ntp2694
Rp2695
(dp2696
g8
V54.213.142.168
p2697
sg9
F0.0
sg10
g11
sg12
g11
sg13
g11
sg14
VAS16509
p2698
sg16
g11
sbsV41.33.225.84
p2699
g2
(g3
g4
Ntp2700
Rp2701
(dp2702
g8
V41.33.225.84
p2703
sg9
F0.0
sg10
g11
sg12
g11
sg13
g11
sg14
VAS8452
p2704
sg16
g11
sbsV41.33.225.85
p2705
g2
(g3
g4
Ntp2706
Rp2707
(dp2708
g8
V41.33.225.85
p2709
sg9
F0.0
sg10
g11
sg12
g11
sg13
g11
sg14
VAS8452
p2710
sg16
g11
sbsV201.69.129.161
p2711
g2
(g3
g4
Ntp2712
Rp2713
(dp2714
g8
g2711
sg9
F0.0
sg10
g11
sg12
g11
sg13
g11
sg14
VAS27699
p2715
sg16
g11
sbsV52.87.36.190
p2716
g2
(g3
g4
Ntp2717
Rp2718
(dp2719
g8
V52.87.36.190
p2720
sg9
F0.0
sg10
g11
sg12
g11
sg13
g11
sg14
VAS14618
p2721
sg16
g11
sbsV208.180.143.219
p2722
g2
(g3
g4
Ntp2723
Rp2724
(dp2725
g8
g2722
sg9
F0.0
sg10
g11
sg12
g11
sg13
g11
sg14
VAS19108
p2726
sg16
g11
sbsV54.153.54.246
p2727
g2
(g3
g4
Ntp2728
Rp2729
(dp2730
g8
g2727
sg9
F0.0
sg10
g11
sg12
g11
sg13
g11
sg14
VAS16509
p2731
sg16
g11
sbsV139.162.191.146
p2732
g2
(g3
g4
Ntp2733
Rp2734
(dp2735
g8
g2732
sg9
F0.0
sg10
g11
sg12
g11
sg13
g11
sg14
VAS63949
p2736
sg16
g11
sbsV70.38.55.2
p2737
g2
(g3
g4
Ntp2738
Rp2739
(dp2740
g8
V70.38.55.2
p2741
sg9
F0.0
sg10
g11
sg12
g11
sg13
g11
sg14
VAS32613
p2742
sg16
g11
sbsV70.38.55.3
p2743
g2
(g3
g4
Ntp2744
Rp2745
(dp2746
g8
V70.38.55.3
p2747
sg9
F0.0
sg10
g11
sg12
g11
sg13
g11
sg14
VAS32613
p2748
sg16
g11
sbsV95.168.206.93
p2749
g2
(g3
g4
Ntp2750
Rp2751
(dp2752
g8
V95.168.206.93
p2753
sg9
F0.0
sg10
g11
sg12
g11
sg13
g11
sg14
VAS39392
p2754
sg16
g11
sbsV223.197.178.94
p2755
g2
(g3
g4
Ntp2756
Rp2757
(dp2758
g8
V223.197.178.94
p2759
sg9
F0.0
sg10
g11
sg12
g11
sg13
g11
sg14
VAS4760
p2760
sg16
g11
sbsV69.195.74.242
p2761
g2
(g3
g4
Ntp2762
Rp2763
(dp2764
g8
g2761
sg9
F0.0
sg10
g11
sg12
g11
sg13
g11
sg14
VAS46606
p2765
sg16
g11
sbsV124.43.80.61
p2766
g2
(g3
g4
Ntp2767
Rp2768
(dp2769
g8
V124.43.80.61
p2770
sg9
F0.0
sg10
g11
sg12
g11
sg13
g11
sg14
VAS9329
p2771
sg16
g11
sbsV2.234.230.253
p2772
g2
(g3
g4
Ntp2773
Rp2774
(dp2775
g8
V2.234.230.253
p2776
sg9
F0.0
sg10
g11
sg12
g11
sg13
g11
sg14
VAS12874
p2777
sg16
g11
sbsV74.90.132.139
p2778
g2
(g3
g4
Ntp2779
Rp2780
(dp2781
g8
V74.90.132.139
p2782
sg9
F0.0
sg10
g11
sg12
g11
sg13
g11
sg14
VAS6128
p2783
sg16
g11
sbsV107.180.6.94
p2784
g2
(g3
g4
Ntp2785
Rp2786
(dp2787
g8
g2784
sg9
F0.0
sg10
g11
sg12
g11
sg13
g11
sg14
VAS26496
p2788
sg16
g11
sbsV116.48.153.74
p2789
g2
(g3
g4
Ntp2790
Rp2791
(dp2792
g8
V116.48.153.74
p2793
sg9
F0.0
sg10
g11
sg12
g11
sg13
g11
sg14
VAS4760
p2794
sg16
g11
sbsV138.201.254.160
p2795
g2
(g3
g4
Ntp2796
Rp2797
(dp2798
g8
g2795
sg9
F0.0
sg10
g11
sg12
g11
sg13
g11
sg14
VAS24940
p2799
sg16
g11
sbsV85.99.108.2
p2800
g2
(g3
g4
Ntp2801
Rp2802
(dp2803
g8
V85.99.108.2
p2804
sg9
F0.0
sg10
g11
sg12
g11
sg13
g11
sg14
VAS9121
p2805
sg16
g11
sbsV173.180.44.190
p2806
g2
(g3
g4
Ntp2807
Rp2808
(dp2809
g8
V173.180.44.190
p2810
sg9
F0.0
sg10
g11
sg12
g11
sg13
g11
sg14
VAS852
p2811
sg16
g11
sbsV176.106.3.174
p2812
g2
(g3
g4
Ntp2813
Rp2814
(dp2815
g8
g2812
sg9
F0.0
sg10
g11
sg12
g11
sg13
g11
sg14
VAS34265
p2816
sg16
g11
sbsV93.190.230.50
p2817
g2
(g3
g4
Ntp2818
Rp2819
(dp2820
g8
g2817
sg9
F0.0
sg10
g11
sg12
g11
sg13
g11
sg14
VAS31376
p2821
sg16
g11
sbsV119.36.145.35
p2822
g2
(g3
g4
Ntp2823
Rp2824
(dp2825
g8
g2822
sg9
F0.0
sg10
g11
sg12
g11
sg13
g11
sg14
VAS4837
p2826
sg16
g11
sbsV41.204.84.211
p2827
g2
(g3
g4
Ntp2828
Rp2829
(dp2830
g8
V41.204.84.211
p2831
sg9
F0.0
sg10
g11
sg12
g11
sg13
g11
sg14
VAS15964
p2832
sg16
g11
sbsV217.92.183.184
p2833
g2
(g3
g4
Ntp2834
Rp2835
(dp2836
g8
V217.92.183.184
p2837
sg9
F0.0
sg10
g11
sg12
g11
sg13
g11
sg14
VAS3320
p2838
sg16
g11
sbsV73.150.147.161
p2839
g2
(g3
g4
Ntp2840
Rp2841
(dp2842
g8
V73.150.147.161
p2843
sg9
F0.0
sg10
g11
sg12
g11
sg13
g11
sg14
VAS7922
p2844
sg16
g11
sbsV114.44.151.42
p2845
g2
(g3
g4
Ntp2846
Rp2847
(dp2848
g8
g2845
sg9
F0.0
sg10
g11
sg12
g11
sg13
g11
sg14
VAS3462
p2849
sg16
g11
sbsV217.130.245.41
p2850
g2
(g3
g4
Ntp2851
Rp2852
(dp2853
g8
V217.130.245.41
p2854
sg9
F0.0
sg10
g11
sg12
g11
sg13
g11
sg14
VAS12430
p2855
sg16
g11
sbsV190.80.252.107
p2856
g2
(g3
g4
Ntp2857
Rp2858
(dp2859
g8
V190.80.252.107
p2860
sg9
F0.0
sg10
g11
sg12
g11
sg13
g11
sg14
VAS6400
p2861
sg16
g11
sbsV62.161.120.7
p2862
g2
(g3
g4
Ntp2863
Rp2864
(dp2865
g8
V62.161.120.7
p2866
sg9
F0.0
sg10
g11
sg12
g11
sg13
g11
sg14
VAS3215
p2867
sg16
g11
sbsV80.135.97.71
p2868
g2
(g3
g4
Ntp2869
Rp2870
(dp2871
g8
g2868
sg9
F0.0
sg10
g11
sg12
g11
sg13
g11
sg14
VAS3320
p2872
sg16
g11
sbsV177.101.124.179
p2873
g2
(g3
g4
Ntp2874
Rp2875
(dp2876
g8
V177.101.124.179
p2877
sg9
F0.0
sg10
g11
sg12
g11
sg13
g11
sg14
VAS28343
p2878
sg16
g11
sbsV220.246.47.64
p2879
g2
(g3
g4
Ntp2880
Rp2881
(dp2882
g8
g2879
sg9
F0.0
sg10
g11
sg12
g11
sg13
g11
sg14
VAS4760
p2883
sg16
g11
sbsV112.120.66.132
p2884
g2
(g3
g4
Ntp2885
Rp2886
(dp2887
g8
V112.120.66.132
p2888
sg9
F0.0
sg10
g11
sg12
g11
sg13
g11
sg14
VAS4760
p2889
sg16
g11
sbsV89.96.48.36
p2890
g2
(g3
g4
Ntp2891
Rp2892
(dp2893
g8
V89.96.48.36
p2894
sg9
F0.0
sg10
g11
sg12
g11
sg13
g11
sg14
VAS12874
p2895
sg16
g11
sbsV183.178.191.215
p2896
g2
(g3
g4
Ntp2897
Rp2898
(dp2899
g8
g2896
sg9
F0.0
sg10
g11
sg12
g11
sg13
g11
sg14
VAS9269
p2900
sg16
g11
sbsV132.255.29.227
p2901
g2
(g3
g4
Ntp2902
Rp2903
(dp2904
g8
V132.255.29.227
p2905
sg9
F0.0
sg10
g11
sg12
g11
sg13
g11
sg14
VAS264461
p2906
sg16
g11
sbsV223.197.146.79
p2907
g2
(g3
g4
Ntp2908
Rp2909
(dp2910
g8
g2907
sg9
F0.0
sg10
g11
sg12
g11
sg13
g11
sg14
VAS4760
p2911
sg16
g11
sbsV210.1.85.146
p2912
g2
(g3
g4
Ntp2913
Rp2914
(dp2915
g8
V210.1.85.146
p2916
sg9
F0.0
sg10
g11
sg12
g11
sg13
g11
sg14
VAS9299
p2917
sg16
g11
sbsV50.155.205.197
p2918
g2
(g3
g4
Ntp2919
Rp2920
(dp2921
g8
V50.155.205.197
p2922
sg9
F0.0
sg10
g11
sg12
g11
sg13
g11
sg14
VAS7922
p2923
sg16
g11
sbsV108.166.29.202
p2924
g2
(g3
g4
Ntp2925
Rp2926
(dp2927
g8
V108.166.29.202
p2928
sg9
F0.0
sg10
g11
sg12
g11
sg13
g11
sg14
VAS19994
p2929
sg16
g11
sbsV177.220.165.5
p2930
g2
(g3
g4
Ntp2931
Rp2932
(dp2933
g8
V177.220.165.5
p2934
sg9
F0.0
sg10
g11
sg12
g11
sg13
g11
sg14
VAS14868
p2935
sg16
g11
sbsV177.220.165.2
p2936
g2
(g3
g4
Ntp2937
Rp2938
(dp2939
g8
V177.220.165.2
p2940
sg9
F0.0
sg10
g11
sg12
g11
sg13
g11
sg14
VAS14868
p2941
sg16
g11
sbsV52.77.158.187
p2942
g2
(g3
g4
Ntp2943
Rp2944
(dp2945
g8
V52.77.158.187
p2946
sg9
F0.0
sg10
g11
sg12
g11
sg13
g11
sg14
VAS16509
p2947
sg16
g11
sbsV122.146.92.89
p2948
g2
(g3
g4
Ntp2949
Rp2950
(dp2951
g8
V122.146.92.89
p2952
sg9
F0.0
sg10
g11
sg12
g11
sg13
g11
sg14
VAS9919
p2953
sg16
g11
sbsV200.79.225.84
p2954
g2
(g3
g4
Ntp2955
Rp2956
(dp2957
g8
V200.79.225.84
p2958
sg9
F0.0
sg10
g11
sg12
g11
sg13
g11
sg14
VAS28512
p2959
sg16
g11
sbsV91.16.38.15
p2960
g2
(g3
g4
Ntp2961
Rp2962
(dp2963
g8
V91.16.38.15
p2964
sg9
F0.0
sg10
g11
sg12
g11
sg13
g11
sg14
VAS3320
p2965
sg16
g11
sbsV200.42.164.155
p2966
g2
(g3
g4
Ntp2967
Rp2968
(dp2969
g8
V200.42.164.155
p2970
sg9
F0.0
sg10
g11
sg12
g11
sg13
g11
sg14
VAS7418
p2971
sg16
g11
sbsV176.9.24.45
p2972
g2
(g3
g4
Ntp2973
Rp2974
(dp2975
g8
V176.9.24.45
p2976
sg9
F0.0
sg10
g11
sg12
g11
sg13
g11
sg14
VAS24940
p2977
sg16
g11
sbsV201.238.248.159
p2978
g2
(g3
g4
Ntp2979
Rp2980
(dp2981
g8
V201.238.248.159
p2982
sg9
F0.0
sg10
g11
sg12
g11
sg13
g11
sg14
VAS14259
p2983
sg16
g11
sbsV201.238.248.158
p2984
g2
(g3
g4
Ntp2985
Rp2986
(dp2987
g8
V201.238.248.158
p2988
sg9
F0.0
sg10
g11
sg12
g11
sg13
g11
sg14
VAS14259
p2989
sg16
g11
sbsV190.121.226.108
p2990
g2
(g3
g4
Ntp2991
Rp2992
(dp2993
g8
V190.121.226.108
p2994
sg9
F0.0
sg10
g11
sg12
g11
sg13
g11
sg14
VAS27717
p2995
sg16
g11
sbsV187.75.193.11
p2996
g2
(g3
g4
Ntp2997
Rp2998
(dp2999
g8
V187.75.193.11
p3000
sg9
F0.0
sg10
g11
sg12
g11
sg13
g11
sg14
VAS27699
p3001
sg16
g11
sbsV42.3.238.185
p3002
g2
(g3
g4
Ntp3003
Rp3004
(dp3005
g8
V42.3.238.185
p3006
sg9
F0.0
sg10
g11
sg12
g11
sg13
g11
sg14
VAS4760
p3007
sg16
g11
sbsV87.189.194.219
p3008
g2
(g3
g4
Ntp3009
Rp3010
(dp3011
g8
V87.189.194.219
p3012
sg9
F0.0
sg10
g11
sg12
g11
sg13
g11
sg14
VAS3320
p3013
sg16
g11
sbsV143.0.190.76
p3014
g2
(g3
g4
Ntp3015
Rp3016
(dp3017
g8
g3014
sg9
F0.0
sg10
g11
sg12
g11
sg13
g11
sg14
VAS264026
p3018
sg16
g11
sbsV62.67.57.158
p3019
g2
(g3
g4
Ntp3020
Rp3021
(dp3022
g8
V62.67.57.158
p3023
sg9
F0.0
sg10
g11
sg12
g11
sg13
g11
sg14
VAS3356
p3024
sg16
g11
sbsV84.238.5.42
p3025
g2
(g3
g4
Ntp3026
Rp3027
(dp3028
g8
V84.238.5.42
p3029
sg9
F0.0
sg10
g11
sg12
g11
sg13
g11
sg14
VAS33796
p3030
sg16
g11
sbsV122.146.92.88
p3031
g2
(g3
g4
Ntp3032
Rp3033
(dp3034
g8
V122.146.92.88
p3035
sg9
F0.0
sg10
g11
sg12
g11
sg13
g11
sg14
VAS9919
p3036
sg16
g11
sbsV198.50.220.173
p3037
g2
(g3
g4
Ntp3038
Rp3039
(dp3040
g8
g3037
sg9
F0.0
sg10
g11
sg12
g11
sg13
g11
sg14
VAS16276
p3041
sg16
g11
sbsV42.200.202.234
p3042
g2
(g3
g4
Ntp3043
Rp3044
(dp3045
g8
V42.200.202.234
p3046
sg9
F0.0
sg10
g11
sg12
g11
sg13
g11
sg14
VAS4760
p3047
sg16
g11
sbsV192.34.86.45
p3048
g2
(g3
g4
Ntp3049
Rp3050
(dp3051
g8
V192.34.86.45
p3052
sg9
F0.0
sg10
g11
sg12
g11
sg13
g11
sg14
VAS33083
p3053
sg16
g11
sbsV81.184.4.81
p3054
g2
(g3
g4
Ntp3055
Rp3056
(dp3057
g8
V81.184.4.81
p3058
sg9
F0.0
sg10
g11
sg12
g11
sg13
g11
sg14
VAS6739
p3059
sg16
g11
sbsV201.222.53.242
p3060
g2
(g3
g4
Ntp3061
Rp3062
(dp3063
g8
V201.222.53.242
p3064
sg9
F0.0
sg10
g11
sg12
g11
sg13
g11
sg14
VAS28103
p3065
sg16
g11
sbsV183.89.93.165
p3066
g2
(g3
g4
Ntp3067
Rp3068
(dp3069
g8
V183.89.93.165
p3070
sg9
F0.0
sg10
g11
sg12
g11
sg13
g11
sg14
VAS45758
p3071
sg16
g11
sbsV84.175.202.238
p3072
g2
(g3
g4
Ntp3073
Rp3074
(dp3075
g8
V84.175.202.238
p3076
sg9
F0.0
sg10
g11
sg12
g11
sg13
g11
sg14
VAS3320
p3077
sg16
g11
sbsV188.26.123.222
p3078
g2
(g3
g4
Ntp3079
Rp3080
(dp3081
g8
V188.26.123.222
p3082
sg9
F0.0
sg10
g11
sg12
g11
sg13
g11
sg14
VAS8708
p3083
sg16
g11
sbsV80.82.150.134
p3084
g2
(g3
g4
Ntp3085
Rp3086
(dp3087
g8
V80.82.150.134
p3088
sg9
F0.0
sg10
g11
sg12
g11
sg13
g11
sg14
VAS39906
p3089
sg16
g11
sbsV91.196.159.66
p3090
g2
(g3
g4
Ntp3091
Rp3092
(dp3093
g8
V91.196.159.66
p3094
sg9
F0.0
sg10
g11
sg12
g11
sg13
g11
sg14
VAS43145
p3095
sg16
g11
sbsV66.198.252.6
p3096
g2
(g3
g4
Ntp3097
Rp3098
(dp3099
g8
g3096
sg9
F0.0
sg10
g11
sg12
g11
sg13
g11
sg14
VAS55293
p3100
sg16
g11
sbsV58.152.72.65
p3101
g2
(g3
g4
Ntp3102
Rp3103
(dp3104
g8
V58.152.72.65
p3105
sg9
F0.0
sg10
g11
sg12
g11
sg13
g11
sg14
VAS4760
p3106
sg16
g11
sbsV116.228.168.118
p3107
g2
(g3
g4
Ntp3108
Rp3109
(dp3110
g8
g3107
sg9
F0.0
sg10
g11
sg12
g11
sg13
g11
sg14
VAS4812
p3111
sg16
g11
sbsV80.153.198.122
p3112
g2
(g3
g4
Ntp3113
Rp3114
(dp3115
g8
V80.153.198.122
p3116
sg9
F0.0
sg10
g11
sg12
g11
sg13
g11
sg14
VAS3320
p3117
sg16
g11
sbsV116.48.140.240
p3118
g2
(g3
g4
Ntp3119
Rp3120
(dp3121
g8
V116.48.140.240
p3122
sg9
F0.0
sg10
g11
sg12
g11
sg13
g11
sg14
VAS4760
p3123
sg16
g11
sbsV96.229.251.147
p3124
g2
(g3
g4
Ntp3125
Rp3126
(dp3127
g8
g3124
sg9
F0.0
sg10
g11
sg12
g11
sg13
g11
sg14
VAS5650
p3128
sg16
g11
sbsV189.225.155.85
p3129
g2
(g3
g4
Ntp3130
Rp3131
(dp3132
g8
V189.225.155.85
p3133
sg9
F0.0
sg10
g11
sg12
g11
sg13
g11
sg14
VAS8151
p3134
sg16
g11
sbsV86.47.50.200
p3135
g2
(g3
g4
Ntp3136
Rp3137
(dp3138
g8
V86.47.50.200
p3139
sg9
F0.0
sg10
g11
sg12
g11
sg13
g11
sg14
VAS5466
p3140
sg16
g11
sbsV72.14.187.103
p3141
g2
(g3
g4
Ntp3142
Rp3143
(dp3144
g8
V72.14.187.103
p3145
sg9
F0.0
sg10
g11
sg12
g11
sg13
g11
sg14
VAS63949
p3146
sg16
g11
sbsV208.80.183.17
p3147
g2
(g3
g4
Ntp3148
Rp3149
(dp3150
g8
V208.80.183.17
p3151
sg9
F0.0
sg10
g11
sg12
g11
sg13
g11
sg14
VAS11051
p3152
sg16
g11
sbsV85.255.15.115
p3153
g2
(g3
g4
Ntp3154
Rp3155
(dp3156
g8
V85.255.15.115
p3157
sg9
F0.0
sg10
g11
sg12
g11
sg13
g11
sg14
VAS24806
p3158
sg16
g11
sbsV212.96.57.70
p3159
g2
(g3
g4
Ntp3160
Rp3161
(dp3162
g8
g3159
sg9
F0.0
sg10
g11
sg12
g11
sg13
g11
sg14
VAS6830
p3163
sg16
g11
sbsV54.84.240.216
p3164
g2
(g3
g4
Ntp3165
Rp3166
(dp3167
g8
V54.84.240.216
p3168
sg9
F0.0
sg10
g11
sg12
g11
sg13
g11
sg14
VAS14618
p3169
sg16
g11
sbsV192.185.128.244
p3170
g2
(g3
g4
Ntp3171
Rp3172
(dp3173
g8
g3170
sg9
F0.0
sg10
g11
sg12
g11
sg13
g11
sg14
VAS20013
p3174
sg16
g11
sbsV50.207.19.122
p3175
g2
(g3
g4
Ntp3176
Rp3177
(dp3178
g8
V50.207.19.122
p3179
sg9
F0.0
sg10
g11
sg12
g11
sg13
g11
sg14
VAS7922
p3180
sg16
g11
sbsV116.228.167.147
p3181
g2
(g3
g4
Ntp3182
Rp3183
(dp3184
g8
V116.228.167.147
p3185
sg9
F0.0
sg10
g11
sg12
g11
sg13
g11
sg14
VAS4812
p3186
sg16
g11
sbsV85.181.197.208
p3187
g2
(g3
g4
Ntp3188
Rp3189
(dp3190
g8
V85.181.197.208
p3191
sg9
F0.0
sg10
g11
sg12
g11
sg13
g11
sg14
VAS6805
p3192
sg16
g11
sbsV220.246.64.122
p3193
g2
(g3
g4
Ntp3194
Rp3195
(dp3196
g8
V220.246.64.122
p3197
sg9
F0.0
sg10
g11
sg12
g11
sg13
g11
sg14
VAS4760
p3198
sg16
g11
sbsV191.101.3.230
p3199
g2
(g3
g4
Ntp3200
Rp3201
(dp3202
g8
V191.101.3.230
p3203
sg9
F0.0
sg10
g11
sg12
g11
sg13
g11
sg14
VAS61440
p3204
sg16
g11
sbsV211.218.145.222
p3205
g2
(g3
g4
Ntp3206
Rp3207
(dp3208
g8
V211.218.145.222
p3209
sg9
F0.0
sg10
g11
sg12
g11
sg13
g11
sg14
VAS4766
p3210
sg16
g11
sbsV219.145.152.62
p3211
g2
(g3
g4
Ntp3212
Rp3213
(dp3214
g8
V219.145.152.62
p3215
sg9
F0.0
sg10
g11
sg12
g11
sg13
g11
sg14
VAS4134
p3216
sg16
g11
sbsV84.134.128.98
p3217
g2
(g3
g4
Ntp3218
Rp3219
(dp3220
g8
V84.134.128.98
p3221
sg9
F0.0
sg10
g11
sg12
g11
sg13
g11
sg14
VAS3320
p3222
sg16
g11
sbsV78.46.44.206
p3223
g2
(g3
g4
Ntp3224
Rp3225
(dp3226
g8
V78.46.44.206
p3227
sg9
F0.0
sg10
g11
sg12
g11
sg13
g11
sg14
VAS24940
p3228
sg16
g11
sbsV219.79.172.86
p3229
g2
(g3
g4
Ntp3230
Rp3231
(dp3232
g8
V219.79.172.86
p3233
sg9
F0.0
sg10
g11
sg12
g11
sg13
g11
sg14
VAS4760
p3234
sg16
g11
sbsV64.90.41.87
p3235
g2
(g3
g4
Ntp3236
Rp3237
(dp3238
g8
g3235
sg9
F0.0
sg10
g11
sg12
g11
sg13
g11
sg14
VAS26347
p3239
sg16
g11
sbsV23.25.129.196
p3240
g2
(g3
g4
Ntp3241
Rp3242
(dp3243
g8
V23.25.129.196
p3244
sg9
F0.0
sg10
g11
sg12
g11
sg13
g11
sg14
VAS7922
p3245
sg16
g11
sbsV201.234.81.60
p3246
g2
(g3
g4
Ntp3247
Rp3248
(dp3249
g8
V201.234.81.60
p3250
sg9
F0.0
sg10
g11
sg12
g11
sg13
g11
sg14
VAS3549
p3251
sg16
g11
sbsV113.52.45.106
p3252
g2
(g3
g4
Ntp3253
Rp3254
(dp3255
g8
V113.52.45.106
p3256
sg9
F0.0
sg10
g11
sg12
g11
sg13
g11
sg14
VAS38735
p3257
sg16
g11
sbsV223.197.226.222
p3258
g2
(g3
g4
Ntp3259
Rp3260
(dp3261
g8
g3258
sg9
F0.0
sg10
g11
sg12
g11
sg13
g11
sg14
VAS4760
p3262
sg16
g11
sbsV14.141.118.67
p3263
g2
(g3
g4
Ntp3264
Rp3265
(dp3266
g8
V14.141.118.67
p3267
sg9
F0.0
sg10
g11
sg12
g11
sg13
g11
sg14
VAS4755
p3268
sg16
g11
sbsV133.242.16.26
p3269
g2
(g3
g4
Ntp3270
Rp3271
(dp3272
g8
V133.242.16.26
p3273
sg9
F0.0
sg10
g11
sg12
g11
sg13
g11
sg14
VAS7684
p3274
sg16
g11
sbsV84.232.55.238
p3275
g2
(g3
g4
Ntp3276
Rp3277
(dp3278
g8
V84.232.55.238
p3279
sg9
F0.0
sg10
g11
sg12
g11
sg13
g11
sg14
VAS48427
p3280
sg16
g11
sbsV82.127.101.116
p3281
g2
(g3
g4
Ntp3282
Rp3283
(dp3284
g8
V82.127.101.116
p3285
sg9
F0.0
sg10
g11
sg12
g11
sg13
g11
sg14
VAS3215
p3286
sg16
g11
sbsV219.76.191.207
p3287
g2
(g3
g4
Ntp3288
Rp3289
(dp3290
g8
g3287
sg9
F0.0
sg10
g11
sg12
g11
sg13
g11
sg14
VAS4760
p3291
sg16
g11
sbsV104.29.69.84
p3292
g2
(g3
g4
Ntp3293
Rp3294
(dp3295
g8
g3292
sg9
F0.0
sg10
g11
sg12
g11
sg13
g11
sg14
VAS13335
p3296
sg16
g11
sbsV179.218.31.211
p3297
g2
(g3
g4
Ntp3298
Rp3299
(dp3300
g8
g3297
sg9
F0.0
sg10
g11
sg12
g11
sg13
g11
sg14
VAS28573
p3301
sg16
g11
sbsV104.131.23.45
p3302
g2
(g3
g4
Ntp3303
Rp3304
(dp3305
g8
V104.131.23.45
p3306
sg9
F0.0
sg10
g11
sg12
g11
sg13
g11
sg14
VAS393406
p3307
sg16
g11
sbsV177.22.43.59
p3308
g2
(g3
g4
Ntp3309
Rp3310
(dp3311
g8
V177.22.43.59
p3312
sg9
F0.0
sg10
g11
sg12
g11
sg13
g11
sg14
VAS52981
p3313
sg16
g11
sbsV162.13.81.161
p3314
g2
(g3
g4
Ntp3315
Rp3316
(dp3317
g8
g3314
sg9
F0.0
sg10
g11
sg12
g11
sg13
g11
sg14
VAS15395
p3318
sg16
g11
sbsV80.76.166.62
p3319
g2
(g3
g4
Ntp3320
Rp3321
(dp3322
g8
V80.76.166.62
p3323
sg9
F0.0
sg10
g11
sg12
g11
sg13
g11
sg14
VAS48728
p3324
sg16
g11
sbsV80.69.162.116
p3325
g2
(g3
g4
Ntp3326
Rp3327
(dp3328
g8
V80.69.162.116
p3329
sg9
F0.0
sg10
g11
sg12
g11
sg13
g11
sg14
VAS31211
p3330
sg16
g11
sbsV177.43.57.60
p3331
g2
(g3
g4
Ntp3332
Rp3333
(dp3334
g8
V177.43.57.60
p3335
sg9
F0.0
sg10
g11
sg12
g11
sg13
g11
sg14
VAS18881
p3336
sg16
g11
sbsV182.48.119.151
p3337
g2
(g3
g4
Ntp3338
Rp3339
(dp3340
g8
V182.48.119.151
p3341
sg9
F0.0
sg10
g11
sg12
g11
sg13
g11
sg14
VAS4808
p3342
sg16
g11
sbsV122.112.217.110
p3343
g2
(g3
g4
Ntp3344
Rp3345
(dp3346
g8
V122.112.217.110
p3347
sg9
F0.0
sg10
g11
sg12
g11
sg13
g11
sg14
VAS4812
p3348
sg16
g11
sbsV195.37.211.34
p3349
g2
(g3
g4
Ntp3350
Rp3351
(dp3352
g8
V195.37.211.34
p3353
sg9
F0.0
sg10
g11
sg12
g11
sg13
g11
sg14
VAS680
p3354
sg16
g11
sbsV178.79.158.244
p3355
g2
(g3
g4
Ntp3356
Rp3357
(dp3358
g8
g3355
sg9
F0.0
sg10
g11
sg12
g11
sg13
g11
sg14
VAS63949
p3359
sg16
g11
sbsV186.251.24.36
p3360
g2
(g3
g4
Ntp3361
Rp3362
(dp3363
g8
V186.251.24.36
p3364
sg9
F0.0
sg10
g11
sg12
g11
sg13
g11
sg14
VAS262990
p3365
sg16
g11
sbsV52.31.178.92
p3366
g2
(g3
g4
Ntp3367
Rp3368
(dp3369
g8
g3366
sg9
F0.0
sg10
g11
sg12
g11
sg13
g11
sg14
VAS16509
p3370
sg16
g11
sbsV87.187.235.248
p3371
g2
(g3
g4
Ntp3372
Rp3373
(dp3374
g8
g3371
sg9
F0.0
sg10
g11
sg12
g11
sg13
g11
sg14
VAS3320
p3375
sg16
g11
sbsV83.223.122.236
p3376
g2
(g3
g4
Ntp3377
Rp3378
(dp3379
g8
g3376
sg9
F0.0
sg10
g11
sg12
g11
sg13
g11
sg14
VAS29017
p3380
sg16
g11
sbsV187.5.208.155
p3381
g2
(g3
g4
Ntp3382
Rp3383
(dp3384
g8
V187.5.208.155
p3385
sg9
F0.0
sg10
g11
sg12
g11
sg13
g11
sg14
VAS8167
p3386
sg16
g11
sbsV167.62.209.41
p3387
g2
(g3
g4
Ntp3388
Rp3389
(dp3390
g8
g3387
sg9
F0.0
sg10
g11
sg12
g11
sg13
g11
sg14
VAS6057
p3391
sg16
g11
sbsV190.194.46.52
p3392
g2
(g3
g4
Ntp3393
Rp3394
(dp3395
g8
V190.194.46.52
p3396
sg9
F0.0
sg10
g11
sg12
g11
sg13
g11
sg14
VAS10481
p3397
sg16
g11
sbsV50.156.159.70
p3398
g2
(g3
g4
Ntp3399
Rp3400
(dp3401
g8
V50.156.159.70
p3402
sg9
F0.0
sg10
g11
sg12
g11
sg13
g11
sg14
VAS7922
p3403
sg16
g11
sbsV170.185.232.22
p3404
g2
(g3
g4
Ntp3405
Rp3406
(dp3407
g8
V170.185.232.22
p3408
sg9
F0.0
sg10
g11
sg12
g11
sg13
g11
sg14
VAS8030
p3409
sg16
g11
sbsV45.32.8.117
p3410
g2
(g3
g4
Ntp3411
Rp3412
(dp3413
g8
V45.32.8.117
p3414
sg9
F0.0
sg10
g11
sg12
g11
sg13
g11
sg14
VAS20473
p3415
sg16
g11
sbsV199.47.100.230
p3416
g2
(g3
g4
Ntp3417
Rp3418
(dp3419
g8
V199.47.100.230
p3420
sg9
F0.0
sg10
g11
sg12
g11
sg13
g11
sg14
VAS54876
p3421
sg16
g11
sbsV50.28.23.156
p3422
g2
(g3
g4
Ntp3423
Rp3424
(dp3425
g8
g3422
sg9
F0.0
sg10
g11
sg12
g11
sg13
g11
sg14
VAS32244
p3426
sg16
g11
sbsV125.35.14.11
p3427
g2
(g3
g4
Ntp3428
Rp3429
(dp3430
g8
V125.35.14.11
p3431
sg9
F0.0
sg10
g11
sg12
g11
sg13
g11
sg14
VAS4808
p3432
sg16
g11
sbsV70.102.137.225
p3433
g2
(g3
g4
Ntp3434
Rp3435
(dp3436
g8
V70.102.137.225
p3437
sg9
F0.0
sg10
g11
sg12
g11
sg13
g11
sg14
VAS7385
p3438
sg16
g11
sbsV116.50.224.197
p3439
g2
(g3
g4
Ntp3440
Rp3441
(dp3442
g8
V116.50.224.197
p3443
sg9
F0.0
sg10
g11
sg12
g11
sg13
g11
sg14
VAS9658
p3444
sg16
g11
sbsV139.162.2.145
p3445
g2
(g3
g4
Ntp3446
Rp3447
(dp3448
g8
V139.162.2.145
p3449
sg9
F0.0
sg10
g11
sg12
g11
sg13
g11
sg14
VAS63949
p3450
sg16
g11
sbsV115.95.226.206
p3451
g2
(g3
g4
Ntp3452
Rp3453
(dp3454
g8
g3451
sg9
F0.0
sg10
g11
sg12
g11
sg13
g11
sg14
VAS3786
p3455
sg16
g11
sbsV73.254.12.47
p3456
g2
(g3
g4
Ntp3457
Rp3458
(dp3459
g8
V73.254.12.47
p3460
sg9
F0.0
sg10
g11
sg12
g11
sg13
g11
sg14
VAS7922
p3461
sg16
g11
sbsV180.211.97.35
p3462
g2
(g3
g4
Ntp3463
Rp3464
(dp3465
g8
V180.211.97.35
p3466
sg9
F0.0
sg10
g11
sg12
g11
sg13
g11
sg14
VAS17625
p3467
sg16
g11
sbsV91.121.251.195
p3468
g2
(g3
g4
Ntp3469
Rp3470
(dp3471
g8
g3468
sg9
F0.0
sg10
g11
sg12
g11
sg13
g11
sg14
VAS16276
p3472
sg16
g11
sbsV116.48.128.61
p3473
g2
(g3
g4
Ntp3474
Rp3475
(dp3476
g8
V116.48.128.61
p3477
sg9
F0.0
sg10
g11
sg12
g11
sg13
g11
sg14
VAS4760
p3478
sg16
g11
sbsV188.97.177.27
p3479
g2
(g3
g4
Ntp3480
Rp3481
(dp3482
g8
V188.97.177.27
p3483
sg9
F0.0
sg10
g11
sg12
g11
sg13
g11
sg14
VAS3209
p3484
sg16
g11
sbsV128.97.39.180
p3485
g2
(g3
g4
Ntp3486
Rp3487
(dp3488
g8
V128.97.39.180
p3489
sg9
F0.0
sg10
g11
sg12
g11
sg13
g11
sg14
VAS52
p3490
sg16
g11
sbsV91.191.151.104
p3491
g2
(g3
g4
Ntp3492
Rp3493
(dp3494
g8
V91.191.151.104
p3495
sg9
F0.0
sg10
g11
sg12
g11
sg13
g11
sg14
VAS35393
p3496
sg16
g11
sbsV141.105.125.124
p3497
g2
(g3
g4
Ntp3498
Rp3499
(dp3500
g8
V141.105.125.124
p3501
sg9
F0.0
sg10
g11
sg12
g11
sg13
g11
sg14
VAS198485
p3502
sg16
g11
sbsV170.233.106.62
p3503
g2
(g3
g4
Ntp3504
Rp3505
(dp3506
g8
g3503
sg9
F0.0
sg10
g11
sg12
g11
sg13
g11
sg14
VAS265093
p3507
sg16
g11
sbsV194.78.164.114
p3508
g2
(g3
g4
Ntp3509
Rp3510
(dp3511
g8
V194.78.164.114
p3512
sg9
F0.0
sg10
g11
sg12
g11
sg13
g11
sg14
VAS5432
p3513
sg16
g11
sbsV124.43.68.136
p3514
g2
(g3
g4
Ntp3515
Rp3516
(dp3517
g8
V124.43.68.136
p3518
sg9
F0.0
sg10
g11
sg12
g11
sg13
g11
sg14
VAS9329
p3519
sg16
g11
sbsV190.104.179.98
p3520
g2
(g3
g4
Ntp3521
Rp3522
(dp3523
g8
V190.104.179.98
p3524
sg9
F0.0
sg10
g11
sg12
g11
sg13
g11
sg14
VAS27895
p3525
sg16
g11
sbsV176.123.217.28
p3526
g2
(g3
g4
Ntp3527
Rp3528
(dp3529
g8
V176.123.217.28
p3530
sg9
F0.0
sg10
g11
sg12
g11
sg13
g11
sg14
VAS59584
p3531
sg16
g11
sbsV78.26.155.98
p3532
g2
(g3
g4
Ntp3533
Rp3534
(dp3535
g8
g3532
sg9
F0.0
sg10
g11
sg12
g11
sg13
g11
sg14
VAS34187
p3536
sg16
g11
sbsV167.58.32.63
p3537
g2
(g3
g4
Ntp3538
Rp3539
(dp3540
g8
g3537
sg9
F0.0
sg10
g11
sg12
g11
sg13
g11
sg14
VAS6057
p3541
sg16
g11
sbsV223.197.202.162
p3542
g2
(g3
g4
Ntp3543
Rp3544
(dp3545
g8
V223.197.202.162
p3546
sg9
F0.0
sg10
g11
sg12
g11
sg13
g11
sg14
VAS4760
p3547
sg16
g11
sbsV178.248.39.105
p3548
g2
(g3
g4
Ntp3549
Rp3550
(dp3551
g8
g3548
sg9
F0.0
sg10
g11
sg12
g11
sg13
g11
sg14
VAS34555
p3552
sg16
g11
sbsV202.43.74.149
p3553
g2
(g3
g4
Ntp3554
Rp3555
(dp3556
g8
V202.43.74.149
p3557
sg9
F0.0
sg10
g11
sg12
g11
sg13
g11
sg14
VAS45298
p3558
sg16
g11
sbsV212.123.229.245
p3559
g2
(g3
g4
Ntp3560
Rp3561
(dp3562
g8
V212.123.229.245
p3563
sg9
F0.0
sg10
g11
sg12
g11
sg13
g11
sg14
VAS8220
p3564
sg16
g11
sbsV213.42.88.54
p3565
g2
(g3
g4
Ntp3566
Rp3567
(dp3568
g8
V213.42.88.54
p3569
sg9
F0.0
sg10
g11
sg12
g11
sg13
g11
sg14
VAS5384
p3570
sg16
g11
sbsV200.204.160.17
p3571
g2
(g3
g4
Ntp3572
Rp3573
(dp3574
g8
V200.204.160.17
p3575
sg9
F0.0
sg10
g11
sg12
g11
sg13
g11
sg14
VAS27699
p3576
sg16
g11
sbsV68.4.250.175
p3577
g2
(g3
g4
Ntp3578
Rp3579
(dp3580
g8
V68.4.250.175
p3581
sg9
F0.0
sg10
g11
sg12
g11
sg13
g11
sg14
VAS22773
p3582
sg16
g11
sbsV220.246.112.81
p3583
g2
(g3
g4
Ntp3584
Rp3585
(dp3586
g8
V220.246.112.81
p3587
sg9
F0.0
sg10
g11
sg12
g11
sg13
g11
sg14
VAS4760
p3588
sg16
g11
sbsV107.1.121.114
p3589
g2
(g3
g4
Ntp3590
Rp3591
(dp3592
g8
V107.1.121.114
p3593
sg9
F0.0
sg10
g11
sg12
g11
sg13
g11
sg14
VAS7922
p3594
sg16
g11
sbsV177.34.248.132
p3595
g2
(g3
g4
Ntp3596
Rp3597
(dp3598
g8
V177.34.248.132
p3599
sg9
F0.0
sg10
g11
sg12
g11
sg13
g11
sg14
VAS28573
p3600
sg16
g11
sbsV182.139.132.196
p3601
g2
(g3
g4
Ntp3602
Rp3603
(dp3604
g8
V182.139.132.196
p3605
sg9
F0.0
sg10
g11
sg12
g11
sg13
g11
sg14
VAS4134
p3606
sg16
g11
sbsV79.153.223.178
p3607
g2
(g3
g4
Ntp3608
Rp3609
(dp3610
g8
V79.153.223.178
p3611
sg9
F0.0
sg10
g11
sg12
g11
sg13
g11
sg14
VAS3352
p3612
sg16
g11
sbsV86.123.150.245
p3613
g2
(g3
g4
Ntp3614
Rp3615
(dp3616
g8
V86.123.150.245
p3617
sg9
F0.0
sg10
g11
sg12
g11
sg13
g11
sg14
VAS8708
p3618
sg16
g11
sbsV109.248.186.215
p3619
g2
(g3
g4
Ntp3620
Rp3621
(dp3622
g8
g3619
sg9
F0.0
sg10
g11
sg12
g11
sg13
g11
sg14
VAS15868
p3623
sg16
g11
sbsV82.70.38.142
p3624
g2
(g3
g4
Ntp3625
Rp3626
(dp3627
g8
V82.70.38.142
p3628
sg9
F0.0
sg10
g11
sg12
g11
sg13
g11
sg14
VAS13037
p3629
sg16
g11
sbsV91.242.140.101
p3630
g2
(g3
g4
Ntp3631
Rp3632
(dp3633
g8
V91.242.140.101
p3634
sg9
F0.0
sg10
g11
sg12
g11
sg13
g11
sg14
I0
sg16
g11
sbsV155.93.142.227
p3635
g2
(g3
g4
Ntp3636
Rp3637
(dp3638
g8
V155.93.142.227
p3639
sg9
F0.0
sg10
g11
sg12
g11
sg13
g11
sg14
VAS37680
p3640
sg16
g11
sbsV82.210.144.57
p3641
g2
(g3
g4
Ntp3642
Rp3643
(dp3644
g8
g3641
sg9
F0.0
sg10
g11
sg12
g11
sg13
g11
sg14
VAS6830
p3645
sg16
g11
sbsV201.131.12.60
p3646
g2
(g3
g4
Ntp3647
Rp3648
(dp3649
g8
g3646
sg9
F0.0
sg10
g11
sg12
g11
sg13
g11
sg14
VAS28478
p3650
sg16
g11
sbsV165.255.109.11
p3651
g2
(g3
g4
Ntp3652
Rp3653
(dp3654
g8
V165.255.109.11
p3655
sg9
F0.0
sg10
g11
sg12
g11
sg13
g11
sg14
VAS37611
p3656
sg16
g11
sbsV218.103.121.103
p3657
g2
(g3
g4
Ntp3658
Rp3659
(dp3660
g8
V218.103.121.103
p3661
sg9
F0.0
sg10
g11
sg12
g11
sg13
g11
sg14
VAS4760
p3662
sg16
g11
sbsV188.26.122.59
p3663
g2
(g3
g4
Ntp3664
Rp3665
(dp3666
g8
V188.26.122.59
p3667
sg9
F0.0
sg10
g11
sg12
g11
sg13
g11
sg14
VAS8708
p3668
sg16
g11
sbsV116.48.157.117
p3669
g2
(g3
g4
Ntp3670
Rp3671
(dp3672
g8
V116.48.157.117
p3673
sg9
F0.0
sg10
g11
sg12
g11
sg13
g11
sg14
VAS4760
p3674
sg16
g11
sbsV42.200.202.15
p3675
g2
(g3
g4
Ntp3676
Rp3677
(dp3678
g8
V42.200.202.15
p3679
sg9
F0.0
sg10
g11
sg12
g11
sg13
g11
sg14
VAS4760
p3680
sg16
g11
sbsV112.120.72.219
p3681
g2
(g3
g4
Ntp3682
Rp3683
(dp3684
g8
V112.120.72.219
p3685
sg9
F0.0
sg10
g11
sg12
g11
sg13
g11
sg14
VAS4760
p3686
sg16
g11
sbsV96.38.34.222
p3687
g2
(g3
g4
Ntp3688
Rp3689
(dp3690
g8
g3687
sg9
F0.0
sg10
g11
sg12
g11
sg13
g11
sg14
VAS20115
p3691
sg16
g11
sbsV217.82.59.175
p3692
g2
(g3
g4
Ntp3693
Rp3694
(dp3695
g8
V217.82.59.175
p3696
sg9
F0.0
sg10
g11
sg12
g11
sg13
g11
sg14
VAS3320
p3697
sg16
g11
sbsV223.197.242.240
p3698
g2
(g3
g4
Ntp3699
Rp3700
(dp3701
g8
V223.197.242.240
p3702
sg9
F0.0
sg10
g11
sg12
g11
sg13
g11
sg14
VAS4760
p3703
sg16
g11
sbsV209.197.117.170
p3704
g2
(g3
g4
Ntp3705
Rp3706
(dp3707
g8
V209.197.117.170
p3708
sg9
F0.0
sg10
g11
sg12
g11
sg13
g11
sg14
VAS7859
p3709
sg16
g11
sbsV223.197.148.76
p3710
g2
(g3
g4
Ntp3711
Rp3712
(dp3713
g8
V223.197.148.76
p3714
sg9
F0.0
sg10
g11
sg12
g11
sg13
g11
sg14
VAS4760
p3715
sg16
g11
sbsV58.177.214.197
p3716
g2
(g3
g4
Ntp3717
Rp3718
(dp3719
g8
V58.177.214.197
p3720
sg9
F0.0
sg10
g11
sg12
g11
sg13
g11
sg14
VAS9269
p3721
sg16
g11
sbsV179.234.76.122
p3722
g2
(g3
g4
Ntp3723
Rp3724
(dp3725
g8
g3722
sg9
F0.0
sg10
g11
sg12
g11
sg13
g11
sg14
VAS28573
p3726
sg16
g11
sbsV86.51.187.102
p3727
g2
(g3
g4
Ntp3728
Rp3729
(dp3730
g8
V86.51.187.102
p3731
sg9
F0.0
sg10
g11
sg12
g11
sg13
g11
sg14
VAS35819
p3732
sg16
g11
sbsV202.212.213.173
p3733
g2
(g3
g4
Ntp3734
Rp3735
(dp3736
g8
V202.212.213.173
p3737
sg9
F0.0
sg10
g11
sg12
g11
sg13
g11
sg14
VAS2514
p3738
sg16
g11
sbsV217.91.99.151
p3739
g2
(g3
g4
Ntp3740
Rp3741
(dp3742
g8
V217.91.99.151
p3743
sg9
F0.0
sg10
g11
sg12
g11
sg13
g11
sg14
VAS3320
p3744
sg16
g11
sbsV104.236.218.193
p3745
g2
(g3
g4
Ntp3746
Rp3747
(dp3748
g8
V104.236.218.193
p3749
sg9
F0.0
sg10
g11
sg12
g11
sg13
g11
sg14
VAS393406
p3750
sg16
g11
sbsV104.209.137.118
p3751
g2
(g3
g4
Ntp3752
Rp3753
(dp3754
g8
V104.209.137.118
p3755
sg9
F0.0
sg10
g11
sg12
g11
sg13
g11
sg14
VAS8075
p3756
sg16
g11
sbsV80.11.224.25
p3757
g2
(g3
g4
Ntp3758
Rp3759
(dp3760
g8
V80.11.224.25
p3761
sg9
F0.0
sg10
g11
sg12
g11
sg13
g11
sg14
VAS3215
p3762
sg16
g11
sbsV206.16.57.61
p3763
g2
(g3
g4
Ntp3764
Rp3765
(dp3766
g8
V206.16.57.61
p3767
sg9
F0.0
sg10
g11
sg12
g11
sg13
g11
sg14
VAS17227
p3768
sg16
g11
sbsV201.49.29.18
p3769
g2
(g3
g4
Ntp3770
Rp3771
(dp3772
g8
V201.49.29.18
p3773
sg9
F0.0
sg10
g11
sg12
g11
sg13
g11
sg14
VAS11921
p3774
sg16
g11
sbsV140.113.235.180
p3775
g2
(g3
g4
Ntp3776
Rp3777
(dp3778
g8
V140.113.235.180
p3779
sg9
F0.0
sg10
g11
sg12
g11
sg13
g11
sg14
VAS9916
p3780
sg16
g11
sbsV46.13.165.206
p3781
g2
(g3
g4
Ntp3782
Rp3783
(dp3784
g8
V46.13.165.206
p3785
sg9
F0.0
sg10
g11
sg12
g11
sg13
g11
sg14
VAS13036
p3786
sg16
g11
sbsV85.196.184.40
p3787
g2
(g3
g4
Ntp3788
Rp3789
(dp3790
g8
V85.196.184.40
p3791
sg9
F0.0
sg10
g11
sg12
g11
sg13
g11
sg14
VAS29580
p3792
sg16
g11
sbsV112.120.77.223
p3793
g2
(g3
g4
Ntp3794
Rp3795
(dp3796
g8
V112.120.77.223
p3797
sg9
F0.0
sg10
g11
sg12
g11
sg13
g11
sg14
VAS4760
p3798
sg16
g11
sbsV91.58.122.182
p3799
g2
(g3
g4
Ntp3800
Rp3801
(dp3802
g8
V91.58.122.182
p3803
sg9
F0.0
sg10
g11
sg12
g11
sg13
g11
sg14
VAS3320
p3804
sg16
g11
sbsV223.197.239.231
p3805
g2
(g3
g4
Ntp3806
Rp3807
(dp3808
g8
V223.197.239.231
p3809
sg9
F0.0
sg10
g11
sg12
g11
sg13
g11
sg14
VAS4760
p3810
sg16
g11
sbsV173.231.129.222
p3811
g2
(g3
g4
Ntp3812
Rp3813
(dp3814
g8
V173.231.129.222
p3815
sg9
F0.0
sg10
g11
sg12
g11
sg13
g11
sg14
VAS29791
p3816
sg16
g11
sbsV49.156.42.246
p3817
g2
(g3
g4
Ntp3818
Rp3819
(dp3820
g8
V49.156.42.246
p3821
sg9
F0.0
sg10
g11
sg12
g11
sg13
g11
sg14
VAS24492
p3822
sg16
g11
sbsV173.231.129.220
p3823
g2
(g3
g4
Ntp3824
Rp3825
(dp3826
g8
V173.231.129.220
p3827
sg9
F0.0
sg10
g11
sg12
g11
sg13
g11
sg14
VAS29791
p3828
sg16
g11
sbsV217.25.27.206
p3829
g2
(g3
g4
Ntp3830
Rp3831
(dp3832
g8
V217.25.27.206
p3833
sg9
F0.0
sg10
g11
sg12
g11
sg13
g11
sg14
VAS39232
p3834
sg16
g11
sbsV74.63.50.191
p3835
g2
(g3
g4
Ntp3836
Rp3837
(dp3838
g8
V74.63.50.191
p3839
sg9
F0.0
sg10
g11
sg12
g11
sg13
g11
sg14
VAS29791
p3840
sg16
g11
sbsV74.63.50.190
p3841
g2
(g3
g4
Ntp3842
Rp3843
(dp3844
g8
V74.63.50.190
p3845
sg9
F0.0
sg10
g11
sg12
g11
sg13
g11
sg14
VAS29791
p3846
sg16
g11
sbsV177.130.63.102
p3847
g2
(g3
g4
Ntp3848
Rp3849
(dp3850
g8
V177.130.63.102
p3851
sg9
F0.0
sg10
g11
sg12
g11
sg13
g11
sg14
VAS52747
p3852
sg16
g11
sbsV186.249.1.136
p3853
g2
(g3
g4
Ntp3854
Rp3855
(dp3856
g8
V186.249.1.136
p3857
sg9
F0.0
sg10
g11
sg12
g11
sg13
g11
sg14
VAS28250
p3858
sg16
g11
sbsV85.13.240.94
p3859
g2
(g3
g4
Ntp3860
Rp3861
(dp3862
g8
V85.13.240.94
p3863
sg9
F0.0
sg10
g11
sg12
g11
sg13
g11
sg14
VAS31708
p3864
sg16
g11
sbsV213.158.103.105
p3865
g2
(g3
g4
Ntp3866
Rp3867
(dp3868
g8
V213.158.103.105
p3869
sg9
F0.0
sg10
g11
sg12
g11
sg13
g11
sg14
VAS13101
p3870
sg16
g11
sbsV93.239.29.201
p3871
g2
(g3
g4
Ntp3872
Rp3873
(dp3874
g8
g3871
sg9
F0.0
sg10
g11
sg12
g11
sg13
g11
sg14
VAS3320
p3875
sg16
g11
sbsV46.44.34.231
p3876
g2
(g3
g4
Ntp3877
Rp3878
(dp3879
g8
g3876
sg9
F0.0
sg10
g11
sg12
g11
sg13
g11
sg14
VAS28917
p3880
sg16
g11
sbsV79.210.84.152
p3881
g2
(g3
g4
Ntp3882
Rp3883
(dp3884
g8
g3881
sg9
F0.0
sg10
g11
sg12
g11
sg13
g11
sg14
VAS3320
p3885
sg16
g11
sbsV42.200.160.65
p3886
g2
(g3
g4
Ntp3887
Rp3888
(dp3889
g8
g3886
sg9
F0.0
sg10
g11
sg12
g11
sg13
g11
sg14
VAS4760
p3890
sg16
g11
sbsV42.200.192.6
p3891
g2
(g3
g4
Ntp3892
Rp3893
(dp3894
g8
g3891
sg9
F0.0
sg10
g11
sg12
g11
sg13
g11
sg14
VAS4760
p3895
sg16
g11
sbsV64.150.177.14
p3896
g2
(g3
g4
Ntp3897
Rp3898
(dp3899
g8
V64.150.177.14
p3900
sg9
F0.0
sg10
g11
sg12
g11
sg13
g11
sg14
VAS10316
p3901
sg16
g11
sbsV92.60.108.156
p3902
g2
(g3
g4
Ntp3903
Rp3904
(dp3905
g8
V92.60.108.156
p3906
sg9
F0.0
sg10
g11
sg12
g11
sg13
g11
sg14
VAS45014
p3907
sg16
g11
sbsV203.113.115.116
p3908
g2
(g3
g4
Ntp3909
Rp3910
(dp3911
g8
V203.113.115.116
p3912
sg9
F0.0
sg10
g11
sg12
g11
sg13
g11
sg14
VAS131293
p3913
sg16
g11
sbsV41.139.245.156
p3914
g2
(g3
g4
Ntp3915
Rp3916
(dp3917
g8
V41.139.245.156
p3918
sg9
F0.0
sg10
g11
sg12
g11
sg13
g11
sg14
VAS37061
p3919
sg16
g11
sbsV79.235.165.125
p3920
g2
(g3
g4
Ntp3921
Rp3922
(dp3923
g8
g3920
sg9
F0.0
sg10
g11
sg12
g11
sg13
g11
sg14
VAS3320
p3924
sg16
g11
sbsV118.166.254.189
p3925
g2
(g3
g4
Ntp3926
Rp3927
(dp3928
g8
V118.166.254.189
p3929
sg9
F0.0
sg10
g11
sg12
g11
sg13
g11
sg14
VAS3462
p3930
sg16
g11
sbsV71.174.92.130
p3931
g2
(g3
g4
Ntp3932
Rp3933
(dp3934
g8
V71.174.92.130
p3935
sg9
F0.0
sg10
g11
sg12
g11
sg13
g11
sg14
VAS701
p3936
sg16
g11
sbsV81.134.157.105
p3937
g2
(g3
g4
Ntp3938
Rp3939
(dp3940
g8
V81.134.157.105
p3941
sg9
F0.0
sg10
g11
sg12
g11
sg13
g11
sg14
VAS2856
p3942
sg16
g11
sbsV2.229.6.6
p3943
g2
(g3
g4
Ntp3944
Rp3945
(dp3946
g8
V2.229.6.6
p3947
sg9
F0.0
sg10
g11
sg12
g11
sg13
g11
sg14
VAS12874
p3948
sg16
g11
sbsV178.208.141.183
p3949
g2
(g3
g4
Ntp3950
Rp3951
(dp3952
g8
V178.208.141.183
p3953
sg9
F0.0
sg10
g11
sg12
g11
sg13
g11
sg14
VAS8732
p3954
sg16
g11
sbsV178.208.141.180
p3955
g2
(g3
g4
Ntp3956
Rp3957
(dp3958
g8
V178.208.141.180
p3959
sg9
F0.0
sg10
g11
sg12
g11
sg13
g11
sg14
VAS8732
p3960
sg16
g11
sbsV42.200.227.61
p3961
g2
(g3
g4
Ntp3962
Rp3963
(dp3964
g8
V42.200.227.61
p3965
sg9
F0.0
sg10
g11
sg12
g11
sg13
g11
sg14
VAS4760
p3966
sg16
g11
sbsV71.92.53.230
p3967
g2
(g3
g4
Ntp3968
Rp3969
(dp3970
g8
V71.92.53.230
p3971
sg9
F0.0
sg10
g11
sg12
g11
sg13
g11
sg14
VAS20115
p3972
sg16
g11
sbsV186.209.163.95
p3973
g2
(g3
g4
Ntp3974
Rp3975
(dp3976
g8
V186.209.163.95
p3977
sg9
F0.0
sg10
g11
sg12
g11
sg13
g11
sg14
VAS28625
p3978
sg16
g11
sbsV5.135.195.226
p3979
g2
(g3
g4
Ntp3980
Rp3981
(dp3982
g8
V5.135.195.226
p3983
sg9
F0.0
sg10
g11
sg12
g11
sg13
g11
sg14
VAS16276
p3984
sg16
g11
sbsV36.229.128.86
p3985
g2
(g3
g4
Ntp3986
Rp3987
(dp3988
g8
V36.229.128.86
p3989
sg9
F0.0
sg10
g11
sg12
g11
sg13
g11
sg14
VAS3462
p3990
sg16
g11
sbsV112.120.110.75
p3991
g2
(g3
g4
Ntp3992
Rp3993
(dp3994
g8
V112.120.110.75
p3995
sg9
F0.0
sg10
g11
sg12
g11
sg13
g11
sg14
VAS4760
p3996
sg16
g11
sbsV50.200.149.53
p3997
g2
(g3
g4
Ntp3998
Rp3999
(dp4000
g8
V50.200.149.53
p4001
sg9
F0.0
sg10
g11
sg12
g11
sg13
g11
sg14
VAS7922
p4002
sg16
g11
sbsV82.68.126.227
p4003
g2
(g3
g4
Ntp4004
Rp4005
(dp4006
g8
V82.68.126.227
p4007
sg9
F0.0
sg10
g11
sg12
g11
sg13
g11
sg14
VAS13037
p4008
sg16
g11
sbsV162.243.1.130
p4009
g2
(g3
g4
Ntp4010
Rp4011
(dp4012
g8
V162.243.1.130
p4013
sg9
F0.0
sg10
g11
sg12
g11
sg13
g11
sg14
VAS62567
p4014
sg16
g11
sbsV190.216.194.73
p4015
g2
(g3
g4
Ntp4016
Rp4017
(dp4018
g8
V190.216.194.73
p4019
sg9
F0.0
sg10
g11
sg12
g11
sg13
g11
sg14
VAS3549
p4020
sg16
g11
sbsV189.241.178.107
p4021
g2
(g3
g4
Ntp4022
Rp4023
(dp4024
g8
V189.241.178.107
p4025
sg9
F0.0
sg10
g11
sg12
g11
sg13
g11
sg14
VAS8151
p4026
sg16
g11
sbsV77.89.79.88
p4027
g2
(g3
g4
Ntp4028
Rp4029
(dp4030
g8
V77.89.79.88
p4031
sg9
F0.0
sg10
g11
sg12
g11
sg13
g11
sg14
VAS31423
p4032
sg16
g11
sbsV68.146.112.157
p4033
g2
(g3
g4
Ntp4034
Rp4035
(dp4036
g8
V68.146.112.157
p4037
sg9
F0.0
sg10
g11
sg12
g11
sg13
g11
sg14
VAS6327
p4038
sg16
g11
sbsV201.83.22.108
p4039
g2
(g3
g4
Ntp4040
Rp4041
(dp4042
g8
V201.83.22.108
p4043
sg9
F0.0
sg10
g11
sg12
g11
sg13
g11
sg14
VAS28573
p4044
sg16
g11
sbsV178.254.34.169
p4045
g2
(g3
g4
Ntp4046
Rp4047
(dp4048
g8
V178.254.34.169
p4049
sg9
F0.0
sg10
g11
sg12
g11
sg13
g11
sg14
VAS42730
p4050
sg16
g11
sbsV2.50.7.210
p4051
g2
(g3
g4
Ntp4052
Rp4053
(dp4054
g8
V2.50.7.210
p4055
sg9
F0.0
sg10
g11
sg12
g11
sg13
g11
sg14
VAS5384
p4056
sg16
g11
sbsV91.43.59.153
p4057
g2
(g3
g4
Ntp4058
Rp4059
(dp4060
g8
V91.43.59.153
p4061
sg9
F0.0
sg10
g11
sg12
g11
sg13
g11
sg14
VAS3320
p4062
sg16
g11
sbsV195.154.134.16
p4063
g2
(g3
g4
Ntp4064
Rp4065
(dp4066
g8
V195.154.134.16
p4067
sg9
F0.0
sg10
g11
sg12
g11
sg13
g11
sg14
VAS12876
p4068
sg16
g11
sbsV82.215.190.199
p4069
g2
(g3
g4
Ntp4070
Rp4071
(dp4072
g8
g4069
sg9
F0.0
sg10
g11
sg12
g11
sg13
g11
sg14
VAS9137
p4073
sg16
g11
sbsV14.141.33.202
p4074
g2
(g3
g4
Ntp4075
Rp4076
(dp4077
g8
V14.141.33.202
p4078
sg9
F0.0
sg10
g11
sg12
g11
sg13
g11
sg14
VAS4755
p4079
sg16
g11
sbsV206.16.57.17
p4080
g2
(g3
g4
Ntp4081
Rp4082
(dp4083
g8
V206.16.57.17
p4084
sg9
F0.0
sg10
g11
sg12
g11
sg13
g11
sg14
VAS17227
p4085
sg16
g11
sbsV5.2.156.103
p4086
g2
(g3
g4
Ntp4087
Rp4088
(dp4089
g8
V5.2.156.103
p4090
sg9
F0.0
sg10
g11
sg12
g11
sg13
g11
sg14
VAS8708
p4091
sg16
g11
sbsV93.239.245.156
p4092
g2
(g3
g4
Ntp4093
Rp4094
(dp4095
g8
V93.239.245.156
p4096
sg9
F0.0
sg10
g11
sg12
g11
sg13
g11
sg14
VAS3320
p4097
sg16
g11
sbsV107.170.132.78
p4098
g2
(g3
g4
Ntp4099
Rp4100
(dp4101
g8
V107.170.132.78
p4102
sg9
F0.0
sg10
g11
sg12
g11
sg13
g11
sg14
VAS62567
p4103
sg16
g11
sbsV223.165.66.54
p4104
g2
(g3
g4
Ntp4105
Rp4106
(dp4107
g8
V223.165.66.54
p4108
sg9
F0.0
sg10
g11
sg12
g11
sg13
g11
sg14
VAS45179
p4109
sg16
g11
sbsV193.238.149.214
p4110
g2
(g3
g4
Ntp4111
Rp4112
(dp4113
g8
V193.238.149.214
p4114
sg9
F0.0
sg10
g11
sg12
g11
sg13
g11
sg14
VAS35012
p4115
sg16
g11
sbsV87.139.139.212
p4116
g2
(g3
g4
Ntp4117
Rp4118
(dp4119
g8
V87.139.139.212
p4120
sg9
F0.0
sg10
g11
sg12
g11
sg13
g11
sg14
VAS3320
p4121
sg16
g11
sbsV50.196.8.193
p4122
g2
(g3
g4
Ntp4123
Rp4124
(dp4125
g8
V50.196.8.193
p4126
sg9
F0.0
sg10
g11
sg12
g11
sg13
g11
sg14
VAS7922
p4127
sg16
g11
sbsV202.170.126.181
p4128
g2
(g3
g4
Ntp4129
Rp4130
(dp4131
g8
V202.170.126.181
p4132
sg9
F0.0
sg10
g11
sg12
g11
sg13
g11
sg14
VAS23884
p4133
sg16
g11
sbsV31.147.204.111
p4134
g2
(g3
g4
Ntp4135
Rp4136
(dp4137
g8
V31.147.204.111
p4138
sg9
F0.0
sg10
g11
sg12
g11
sg13
g11
sg14
VAS2108
p4139
sg16
g11
sbsV67.43.1.242
p4140
g2
(g3
g4
Ntp4141
Rp4142
(dp4143
g8
g4140
sg9
F0.0
sg10
g11
sg12
g11
sg13
g11
sg14
VAS32244
p4144
sg16
g11
sbsV193.238.149.218
p4145
g2
(g3
g4
Ntp4146
Rp4147
(dp4148
g8
V193.238.149.218
p4149
sg9
F0.0
sg10
g11
sg12
g11
sg13
g11
sg14
VAS35012
p4150
sg16
g11
sbsV52.88.246.5
p4151
g2
(g3
g4
Ntp4152
Rp4153
(dp4154
g8
g4151
sg9
F0.0
sg10
g11
sg12
g11
sg13
g11
sg14
VAS16509
p4155
sg16
g11
sbsV23.21.162.66
p4156
g2
(g3
g4
Ntp4157
Rp4158
(dp4159
g8
V23.21.162.66
p4160
sg9
F0.0
sg10
g11
sg12
g11
sg13
g11
sg14
VAS14618
p4161
sg16
g11
sbsV90.190.254.222
p4162
g2
(g3
g4
Ntp4163
Rp4164
(dp4165
g8
V90.190.254.222
p4166
sg9
F0.0
sg10
g11
sg12
g11
sg13
g11
sg14
VAS3249
p4167
sg16
g11
sbsV87.237.15.216
p4168
g2
(g3
g4
Ntp4169
Rp4170
(dp4171
g8
V87.237.15.216
p4172
sg9
F0.0
sg10
g11
sg12
g11
sg13
g11
sg14
VAS8368
p4173
sg16
g11
sbsV80.74.247.1
p4174
g2
(g3
g4
Ntp4175
Rp4176
(dp4177
g8
g4174
sg9
F0.0
sg10
g11
sg12
g11
sg13
g11
sg14
VAS44611
p4178
sg16
g11
sbsV104.131.15.238
p4179
g2
(g3
g4
Ntp4180
Rp4181
(dp4182
g8
g4179
sg9
F0.0
sg10
g11
sg12
g11
sg13
g11
sg14
VAS393406
p4183
sg16
g11
sbsV103.228.254.142
p4184
g2
(g3
g4
Ntp4185
Rp4186
(dp4187
g8
V103.228.254.142
p4188
sg9
F0.0
sg10
g11
sg12
g11
sg13
g11
sg14
VAS24337
p4189
sg16
g11
sbsV187.33.208.138
p4190
g2
(g3
g4
Ntp4191
Rp4192
(dp4193
g8
V187.33.208.138
p4194
sg9
F0.0
sg10
g11
sg12
g11
sg13
g11
sg14
VAS53088
p4195
sg16
g11
sbsV82.69.8.177
p4196
g2
(g3
g4
Ntp4197
Rp4198
(dp4199
g8
V82.69.8.177
p4200
sg9
F0.0
sg10
g11
sg12
g11
sg13
g11
sg14
VAS13037
p4201
sg16
g11
sbsV184.168.147.170
p4202
g2
(g3
g4
Ntp4203
Rp4204
(dp4205
g8
V184.168.147.170
p4206
sg9
F0.0
sg10
g11
sg12
g11
sg13
g11
sg14
VAS26496
p4207
sg16
g11
sbsV112.120.90.29
p4208
g2
(g3
g4
Ntp4209
Rp4210
(dp4211
g8
V112.120.90.29
p4212
sg9
F0.0
sg10
g11
sg12
g11
sg13
g11
sg14
VAS4760
p4213
sg16
g11
sbsV208.101.63.211
p4214
g2
(g3
g4
Ntp4215
Rp4216
(dp4217
g8
V208.101.63.211
p4218
sg9
F0.0
sg10
g11
sg12
g11
sg13
g11
sg14
VAS36351
p4219
sg16
g11
sbsV162.242.209.38
p4220
g2
(g3
g4
Ntp4221
Rp4222
(dp4223
g8
V162.242.209.38
p4224
sg9
F0.0
sg10
g11
sg12
g11
sg13
g11
sg14
VAS27357
p4225
sg16
g11
sbsV52.18.238.227
p4226
g2
(g3
g4
Ntp4227
Rp4228
(dp4229
g8
V52.18.238.227
p4230
sg9
F0.0
sg10
g11
sg12
g11
sg13
g11
sg14
VAS16509
p4231
sg16
g11
sbsV42.3.246.246
p4232
g2
(g3
g4
Ntp4233
Rp4234
(dp4235
g8
g4232
sg9
F0.0
sg10
g11
sg12
g11
sg13
g11
sg14
VAS4760
p4236
sg16
g11
sbsV94.251.69.109
p4237
g2
(g3
g4
Ntp4238
Rp4239
(dp4240
g8
g4237
sg9
F0.0
sg10
g11
sg12
g11
sg13
g11
sg14
VAS21127
p4241
sg16
g11
sbsV144.76.109.77
p4242
g2
(g3
g4
Ntp4243
Rp4244
(dp4245
g8
V144.76.109.77
p4246
sg9
F0.0
sg10
g11
sg12
g11
sg13
g11
sg14
VAS24940
p4247
sg16
g11
sbsV59.42.53.243
p4248
g2
(g3
g4
Ntp4249
Rp4250
(dp4251
g8
V59.42.53.243
p4252
sg9
F0.0
sg10
g11
sg12
g11
sg13
g11
sg14
VAS4134
p4253
sg16
g11
sbsV79.116.147.100
p4254
g2
(g3
g4
Ntp4255
Rp4256
(dp4257
g8
g4254
sg9
F0.0
sg10
g11
sg12
g11
sg13
g11
sg14
VAS8708
p4258
sg16
g11
sbsV191.252.64.75
p4259
g2
(g3
g4
Ntp4260
Rp4261
(dp4262
g8
V191.252.64.75
p4263
sg9
F0.0
sg10
g11
sg12
g11
sg13
g11
sg14
VAS27715
p4264
sg16
g11
sbsV62.89.32.251
p4265
g2
(g3
g4
Ntp4266
Rp4267
(dp4268
g8
g4265
sg9
F0.0
sg10
g11
sg12
g11
sg13
g11
sg14
VAS60717
p4269
sg16
g11
sbsV60.250.240.117
p4270
g2
(g3
g4
Ntp4271
Rp4272
(dp4273
g8
V60.250.240.117
p4274
sg9
F0.0
sg10
g11
sg12
g11
sg13
g11
sg14
VAS3462
p4275
sg16
g11
sbsV218.100.84.180
p4276
g2
(g3
g4
Ntp4277
Rp4278
(dp4279
g8
V218.100.84.180
p4280
sg9
F0.0
sg10
g11
sg12
g11
sg13
g11
sg14
VAS56301
p4281
sg16
g11
sbsV79.248.176.155
p4282
g2
(g3
g4
Ntp4283
Rp4284
(dp4285
g8
V79.248.176.155
p4286
sg9
F0.0
sg10
g11
sg12
g11
sg13
g11
sg14
VAS3320
p4287
sg16
g11
sbsV216.97.233.40
p4288
g2
(g3
g4
Ntp4289
Rp4290
(dp4291
g8
g4288
sg9
F0.0
sg10
g11
sg12
g11
sg13
g11
sg14
VAS15244
p4292
sg16
g11
sbsV196.203.248.178
p4293
g2
(g3
g4
Ntp4294
Rp4295
(dp4296
g8
V196.203.248.178
p4297
sg9
F0.0
sg10
g11
sg12
g11
sg13
g11
sg14
VAS2609
p4298
sg16
g11
sbsV201.53.25.22
p4299
g2
(g3
g4
Ntp4300
Rp4301
(dp4302
g8
g4299
sg9
F0.0
sg10
g11
sg12
g11
sg13
g11
sg14
VAS28573
p4303
sg16
g11
sbsV190.128.16.59
p4304
g2
(g3
g4
Ntp4305
Rp4306
(dp4307
g8
V190.128.16.59
p4308
sg9
F0.0
sg10
g11
sg12
g11
sg13
g11
sg14
VAS13489
p4309
sg16
g11
sbsV221.4.38.51
p4310
g2
(g3
g4
Ntp4311
Rp4312
(dp4313
g8
V221.4.38.51
p4314
sg9
F0.0
sg10
g11
sg12
g11
sg13
g11
sg14
VAS17622
p4315
sg16
g11
sbsV123.56.129.117
p4316
g2
(g3
g4
Ntp4317
Rp4318
(dp4319
g8
g4316
sg9
F0.0
sg10
g11
sg12
g11
sg13
g11
sg14
VAS37963
p4320
sg16
g11
sbsV112.120.72.171
p4321
g2
(g3
g4
Ntp4322
Rp4323
(dp4324
g8
V112.120.72.171
p4325
sg9
F0.0
sg10
g11
sg12
g11
sg13
g11
sg14
VAS4760
p4326
sg16
g11
sbsV213.123.192.115
p4327
g2
(g3
g4
Ntp4328
Rp4329
(dp4330
g8
V213.123.192.115
p4331
sg9
F0.0
sg10
g11
sg12
g11
sg13
g11
sg14
VAS2856
p4332
sg16
g11
sbsV166.142.24.231
p4333
g2
(g3
g4
Ntp4334
Rp4335
(dp4336
g8
V166.142.24.231
p4337
sg9
F0.0
sg10
g11
sg12
g11
sg13
g11
sg14
VAS22394
p4338
sg16
g11
sbsV82.77.200.80
p4339
g2
(g3
g4
Ntp4340
Rp4341
(dp4342
g8
V82.77.200.80
p4343
sg9
F0.0
sg10
g11
sg12
g11
sg13
g11
sg14
VAS8708
p4344
sg16
g11
sbsV104.29.7.30
p4345
g2
(g3
g4
Ntp4346
Rp4347
(dp4348
g8
g4345
sg9
F0.0
sg10
g11
sg12
g11
sg13
g11
sg14
VAS13335
p4349
sg16
g11
sbsV75.145.166.5
p4350
g2
(g3
g4
Ntp4351
Rp4352
(dp4353
g8
V75.145.166.5
p4354
sg9
F0.0
sg10
g11
sg12
g11
sg13
g11
sg14
VAS7922
p4355
sg16
g11
sbsV75.145.166.4
p4356
g2
(g3
g4
Ntp4357
Rp4358
(dp4359
g8
V75.145.166.4
p4360
sg9
F0.0
sg10
g11
sg12
g11
sg13
g11
sg14
VAS7922
p4361
sg16
g11
sbsV220.246.79.174
p4362
g2
(g3
g4
Ntp4363
Rp4364
(dp4365
g8
V220.246.79.174
p4366
sg9
F0.0
sg10
g11
sg12
g11
sg13
g11
sg14
VAS4760
p4367
sg16
g11
sbsV181.166.87.250
p4368
g2
(g3
g4
Ntp4369
Rp4370
(dp4371
g8
V181.166.87.250
p4372
sg9
F0.0
sg10
g11
sg12
g11
sg13
g11
sg14
VAS10318
p4373
sg16
g11
sbsV54.233.142.202
p4374
g2
(g3
g4
Ntp4375
Rp4376
(dp4377
g8
g4374
sg9
F0.0
sg10
g11
sg12
g11
sg13
g11
sg14
VAS16509
p4378
sg16
g11
sbsV200.165.106.254
p4379
g2
(g3
g4
Ntp4380
Rp4381
(dp4382
g8
V200.165.106.254
p4383
sg9
F0.0
sg10
g11
sg12
g11
sg13
g11
sg14
VAS7738
p4384
sg16
g11
sbsV80.147.214.14
p4385
g2
(g3
g4
Ntp4386
Rp4387
(dp4388
g8
V80.147.214.14
p4389
sg9
F0.0
sg10
g11
sg12
g11
sg13
g11
sg14
VAS3320
p4390
sg16
g11
sbsV202.75.100.210
p4391
g2
(g3
g4
Ntp4392
Rp4393
(dp4394
g8
g4391
sg9
F0.0
sg10
g11
sg12
g11
sg13
g11
sg14
VAS45710
p4395
sg16
g11
sbsV193.169.5.14
p4396
g2
(g3
g4
Ntp4397
Rp4398
(dp4399
g8
V193.169.5.14
p4400
sg9
F0.0
sg10
g11
sg12
g11
sg13
g11
sg14
VAS49261
p4401
sg16
g11
sbsV124.43.85.47
p4402
g2
(g3
g4
Ntp4403
Rp4404
(dp4405
g8
V124.43.85.47
p4406
sg9
F0.0
sg10
g11
sg12
g11
sg13
g11
sg14
VAS9329
p4407
sg16
g11
sbsV134.213.219.94
p4408
g2
(g3
g4
Ntp4409
Rp4410
(dp4411
g8
V134.213.219.94
p4412
sg9
F0.0
sg10
g11
sg12
g11
sg13
g11
sg14
VAS15395
p4413
sg16
g11
sbsV37.58.70.213
p4414
g2
(g3
g4
Ntp4415
Rp4416
(dp4417
g8
V37.58.70.213
p4418
sg9
F0.0
sg10
g11
sg12
g11
sg13
g11
sg14
VAS36351
p4419
sg16
g11
sbsV206.190.205.26
p4420
g2
(g3
g4
Ntp4421
Rp4422
(dp4423
g8
V206.190.205.26
p4424
sg9
F0.0
sg10
g11
sg12
g11
sg13
g11
sg14
VAS395129
p4425
sg16
g11
sbsV181.120.253.174
p4426
g2
(g3
g4
Ntp4427
Rp4428
(dp4429
g8
V181.120.253.174
p4430
sg9
F0.0
sg10
g11
sg12
g11
sg13
g11
sg14
VAS23201
p4431
sg16
g11
sbsV218.103.121.61
p4432
g2
(g3
g4
Ntp4433
Rp4434
(dp4435
g8
V218.103.121.61
p4436
sg9
F0.0
sg10
g11
sg12
g11
sg13
g11
sg14
VAS4760
p4437
sg16
g11
sbsV104.236.64.142
p4438
g2
(g3
g4
Ntp4439
Rp4440
(dp4441
g8
g4438
sg9
F0.0
sg10
g11
sg12
g11
sg13
g11
sg14
VAS393406
p4442
sg16
g11
sbsV138.219.94.78
p4443
g2
(g3
g4
Ntp4444
Rp4445
(dp4446
g8
V138.219.94.78
p4447
sg9
F0.0
sg10
g11
sg12
g11
sg13
g11
sg14
VAS263942
p4448
sg16
g11
sbsV220.246.46.64
p4449
g2
(g3
g4
Ntp4450
Rp4451
(dp4452
g8
V220.246.46.64
p4453
sg9
F0.0
sg10
g11
sg12
g11
sg13
g11
sg14
VAS4760
p4454
sg16
g11
sbsV93.62.73.141
p4455
g2
(g3
g4
Ntp4456
Rp4457
(dp4458
g8
V93.62.73.141
p4459
sg9
F0.0
sg10
g11
sg12
g11
sg13
g11
sg14
VAS12874
p4460
sg16
g11
sbsV59.126.218.125
p4461
g2
(g3
g4
Ntp4462
Rp4463
(dp4464
g8
g4461
sg9
F0.0
sg10
g11
sg12
g11
sg13
g11
sg14
VAS3462
p4465
sg16
g11
sbsV119.11.243.94
p4466
g2
(g3
g4
Ntp4467
Rp4468
(dp4469
g8
V119.11.243.94
p4470
sg9
F0.0
sg10
g11
sg12
g11
sg13
g11
sg14
VAS10217
p4471
sg16
g11
sbsV58.137.154.119
p4472
g2
(g3
g4
Ntp4473
Rp4474
(dp4475
g8
g4472
sg9
F0.0
sg10
g11
sg12
g11
sg13
g11
sg14
VAS4750
p4476
sg16
g11
sbsV89.251.44.143
p4477
g2
(g3
g4
Ntp4478
Rp4479
(dp4480
g8
V89.251.44.143
p4481
sg9
F0.0
sg10
g11
sg12
g11
sg13
g11
sg14
VAS41627
p4482
sg16
g11
sbsV220.246.44.27
p4483
g2
(g3
g4
Ntp4484
Rp4485
(dp4486
g8
V220.246.44.27
p4487
sg9
F0.0
sg10
g11
sg12
g11
sg13
g11
sg14
VAS4760
p4488
sg16
g11
sbsV92.74.122.209
p4489
g2
(g3
g4
Ntp4490
Rp4491
(dp4492
g8
V92.74.122.209
p4493
sg9
F0.0
sg10
g11
sg12
g11
sg13
g11
sg14
VAS3209
p4494
sg16
g11
sbsV62.161.100.216
p4495
g2
(g3
g4
Ntp4496
Rp4497
(dp4498
g8
V62.161.100.216
p4499
sg9
F0.0
sg10
g11
sg12
g11
sg13
g11
sg14
VAS3215
p4500
sg16
g11
sbsV52.73.117.168
p4501
g2
(g3
g4
Ntp4502
Rp4503
(dp4504
g8
V52.73.117.168
p4505
sg9
F0.0
sg10
g11
sg12
g11
sg13
g11
sg14
VAS14618
p4506
sg16
g11
sbsV50.207.19.115
p4507
g2
(g3
g4
Ntp4508
Rp4509
(dp4510
g8
V50.207.19.115
p4511
sg9
F0.0
sg10
g11
sg12
g11
sg13
g11
sg14
VAS7922
p4512
sg16
g11
sbsV27.254.88.130
p4513
g2
(g3
g4
Ntp4514
Rp4515
(dp4516
g8
V27.254.88.130
p4517
sg9
F0.0
sg10
g11
sg12
g11
sg13
g11
sg14
VAS4750
p4518
sg16
g11
sbsV88.132.200.124
p4519
g2
(g3
g4
Ntp4520
Rp4521
(dp4522
g8
V88.132.200.124
p4523
sg9
F0.0
sg10
g11
sg12
g11
sg13
g11
sg14
VAS35311
p4524
sg16
g11
sbsV54.193.112.30
p4525
g2
(g3
g4
Ntp4526
Rp4527
(dp4528
g8
V54.193.112.30
p4529
sg9
F0.0
sg10
g11
sg12
g11
sg13
g11
sg14
VAS16509
p4530
sg16
g11
sbsV119.81.118.39
p4531
g2
(g3
g4
Ntp4532
Rp4533
(dp4534
g8
V119.81.118.39
p4535
sg9
F0.0
sg10
g11
sg12
g11
sg13
g11
sg14
VAS36351
p4536
sg16
g11
sbsV62.138.247.226
p4537
g2
(g3
g4
Ntp4538
Rp4539
(dp4540
g8
V62.138.247.226
p4541
sg9
F0.0
sg10
g11
sg12
g11
sg13
g11
sg14
VAS20773
p4542
sg16
g11
sbsV203.198.151.228
p4543
g2
(g3
g4
Ntp4544
Rp4545
(dp4546
g8
V203.198.151.228
p4547
sg9
F0.0
sg10
g11
sg12
g11
sg13
g11
sg14
VAS4760
p4548
sg16
g11
sbsV61.185.48.182
p4549
g2
(g3
g4
Ntp4550
Rp4551
(dp4552
g8
V61.185.48.182
p4553
sg9
F0.0
sg10
g11
sg12
g11
sg13
g11
sg14
VAS4134
p4554
sg16
g11
sbsV45.56.90.209
p4555
g2
(g3
g4
Ntp4556
Rp4557
(dp4558
g8
V45.56.90.209
p4559
sg9
F0.0
sg10
g11
sg12
g11
sg13
g11
sg14
VAS63949
p4560
sg16
g11
sbsV179.153.38.196
p4561
g2
(g3
g4
Ntp4562
Rp4563
(dp4564
g8
V179.153.38.196
p4565
sg9
F0.0
sg10
g11
sg12
g11
sg13
g11
sg14
VAS28573
p4566
sg16
g11
sbsV187.62.208.110
p4567
g2
(g3
g4
Ntp4568
Rp4569
(dp4570
g8
V187.62.208.110
p4571
sg9
F0.0
sg10
g11
sg12
g11
sg13
g11
sg14
VAS28165
p4572
sg16
g11
sbsV54.186.214.117
p4573
g2
(g3
g4
Ntp4574
Rp4575
(dp4576
g8
V54.186.214.117
p4577
sg9
F0.0
sg10
g11
sg12
g11
sg13
g11
sg14
VAS16509
p4578
sg16
g11
sbsV203.198.151.223
p4579
g2
(g3
g4
Ntp4580
Rp4581
(dp4582
g8
V203.198.151.223
p4583
sg9
F0.0
sg10
g11
sg12
g11
sg13
g11
sg14
VAS4760
p4584
sg16
g11
sbsV69.64.49.142
p4585
g2
(g3
g4
Ntp4586
Rp4587
(dp4588
g8
V69.64.49.142
p4589
sg9
F0.0
sg10
g11
sg12
g11
sg13
g11
sg14
VAS30083
p4590
sg16
g11
sbsV58.152.12.46
p4591
g2
(g3
g4
Ntp4592
Rp4593
(dp4594
g8
V58.152.12.46
p4595
sg9
F0.0
sg10
g11
sg12
g11
sg13
g11
sg14
VAS4760
p4596
sg16
g11
sbsV128.199.173.151
p4597
g2
(g3
g4
Ntp4598
Rp4599
(dp4600
g8
V128.199.173.151
p4601
sg9
F0.0
sg10
g11
sg12
g11
sg13
g11
sg14
VAS133165
p4602
sg16
g11
sbsV97.79.199.22
p4603
g2
(g3
g4
Ntp4604
Rp4605
(dp4606
g8
V97.79.199.22
p4607
sg9
F0.0
sg10
g11
sg12
g11
sg13
g11
sg14
VAS11427
p4608
sg16
g11
sbsV52.173.188.201
p4609
g2
(g3
g4
Ntp4610
Rp4611
(dp4612
g8
V52.173.188.201
p4613
sg9
F0.0
sg10
g11
sg12
g11
sg13
g11
sg14
VAS8075
p4614
sg16
g11
sbsV223.197.242.204
p4615
g2
(g3
g4
Ntp4616
Rp4617
(dp4618
g8
V223.197.242.204
p4619
sg9
F0.0
sg10
g11
sg12
g11
sg13
g11
sg14
VAS4760
p4620
sg16
g11
sbsV176.115.95.77
p4621
g2
(g3
g4
Ntp4622
Rp4623
(dp4624
g8
V176.115.95.77
p4625
sg9
F0.0
sg10
g11
sg12
g11
sg13
g11
sg14
VAS196797
p4626
sg16
g11
sbsV89.213.18.121
p4627
g2
(g3
g4
Ntp4628
Rp4629
(dp4630
g8
V89.213.18.121
p4631
sg9
F0.0
sg10
g11
sg12
g11
sg13
g11
sg14
VAS31655
p4632
sg16
g11
sbsV79.193.249.22
p4633
g2
(g3
g4
Ntp4634
Rp4635
(dp4636
g8
g4633
sg9
F0.0
sg10
g11
sg12
g11
sg13
g11
sg14
VAS3320
p4637
sg16
g11
sbsV117.247.61.137
p4638
g2
(g3
g4
Ntp4639
Rp4640
(dp4641
g8
g4638
sg9
F0.0
sg10
g11
sg12
g11
sg13
g11
sg14
VAS9829
p4642
sg16
g11
sbsV212.59.244.251
p4643
g2
(g3
g4
Ntp4644
Rp4645
(dp4646
g8
g4643
sg9
F0.0
sg10
g11
sg12
g11
sg13
g11
sg14
VAS39869
p4647
sg16
g11
sbsV108.160.32.15
p4648
g2
(g3
g4
Ntp4649
Rp4650
(dp4651
g8
g4648
sg9
F0.0
sg10
g11
sg12
g11
sg13
g11
sg14
VAS209
p4652
sg16
g11
sbsV196.15.208.199
p4653
g2
(g3
g4
Ntp4654
Rp4655
(dp4656
g8
V196.15.208.199
p4657
sg9
F0.0
sg10
g11
sg12
g11
sg13
g11
sg14
VAS5713
p4658
sg16
g11
sbsV41.33.16.59
p4659
g2
(g3
g4
Ntp4660
Rp4661
(dp4662
g8
V41.33.16.59
p4663
sg9
F0.0
sg10
g11
sg12
g11
sg13
g11
sg14
VAS8452
p4664
sg16
g11
sbsV84.244.91.3
p4665
g2
(g3
g4
Ntp4666
Rp4667
(dp4668
g8
V84.244.91.3
p4669
sg9
F0.0
sg10
g11
sg12
g11
sg13
g11
sg14
VAS25248
p4670
sg16
g11
sbsV116.50.244.10
p4671
g2
(g3
g4
Ntp4672
Rp4673
(dp4674
g8
V116.50.244.10
p4675
sg9
F0.0
sg10
g11
sg12
g11
sg13
g11
sg14
VAS9658
p4676
sg16
g11
sbsV91.59.90.88
p4677
g2
(g3
g4
Ntp4678
Rp4679
(dp4680
g8
g4677
sg9
F0.0
sg10
g11
sg12
g11
sg13
g11
sg14
VAS3320
p4681
sg16
g11
sbsV213.211.47.138
p4682
g2
(g3
g4
Ntp4683
Rp4684
(dp4685
g8
V213.211.47.138
p4686
sg9
F0.0
sg10
g11
sg12
g11
sg13
g11
sg14
VAS12570
p4687
sg16
g11
sbsV202.77.50.130
p4688
g2
(g3
g4
Ntp4689
Rp4690
(dp4691
g8
V202.77.50.130
p4692
sg9
F0.0
sg10
g11
sg12
g11
sg13
g11
sg14
VAS10103
p4693
sg16
g11
sbsV84.140.115.55
p4694
g2
(g3
g4
Ntp4695
Rp4696
(dp4697
g8
V84.140.115.55
p4698
sg9
F0.0
sg10
g11
sg12
g11
sg13
g11
sg14
VAS3320
p4699
sg16
g11
sbsV200.42.149.196
p4700
g2
(g3
g4
Ntp4701
Rp4702
(dp4703
g8
V200.42.149.196
p4704
sg9
F0.0
sg10
g11
sg12
g11
sg13
g11
sg14
VAS10481
p4705
sg16
g11
sbsV179.111.213.6
p4706
g2
(g3
g4
Ntp4707
Rp4708
(dp4709
g8
V179.111.213.6
p4710
sg9
F0.0
sg10
g11
sg12
g11
sg13
g11
sg14
VAS27699
p4711
sg16
g11
sbsV187.75.163.32
p4712
g2
(g3
g4
Ntp4713
Rp4714
(dp4715
g8
g4712
sg9
F0.0
sg10
g11
sg12
g11
sg13
g11
sg14
VAS27699
p4716
sg16
g11
sbsV176.222.88.218
p4717
g2
(g3
g4
Ntp4718
Rp4719
(dp4720
g8
V176.222.88.218
p4721
sg9
F0.0
sg10
g11
sg12
g11
sg13
g11
sg14
VAS15704
p4722
sg16
g11
sbsV212.154.154.214
p4723
g2
(g3
g4
Ntp4724
Rp4725
(dp4726
g8
V212.154.154.214
p4727
sg9
F0.0
sg10
g11
sg12
g11
sg13
g11
sg14
VAS9198
p4728
sg16
g11
sbsV54.93.39.203
p4729
g2
(g3
g4
Ntp4730
Rp4731
(dp4732
g8
V54.93.39.203
p4733
sg9
F0.0
sg10
g11
sg12
g11
sg13
g11
sg14
VAS16509
p4734
sg16
g11
sbsV223.197.220.103
p4735
g2
(g3
g4
Ntp4736
Rp4737
(dp4738
g8
V223.197.220.103
p4739
sg9
F0.0
sg10
g11
sg12
g11
sg13
g11
sg14
VAS4760
p4740
sg16
g11
sbsV201.9.12.14
p4741
g2
(g3
g4
Ntp4742
Rp4743
(dp4744
g8
V201.9.12.14
p4745
sg9
F0.0
sg10
g11
sg12
g11
sg13
g11
sg14
VAS7738
p4746
sg16
g11
sbsV91.191.151.99
p4747
g2
(g3
g4
Ntp4748
Rp4749
(dp4750
g8
g4747
sg9
F0.0
sg10
g11
sg12
g11
sg13
g11
sg14
VAS35393
p4751
sg16
g11
sbsV74.124.164.92
p4752
g2
(g3
g4
Ntp4753
Rp4754
(dp4755
g8
V74.124.164.92
p4756
sg9
F0.0
sg10
g11
sg12
g11
sg13
g11
sg14
VAS22709
p4757
sg16
g11
sbsV124.82.216.154
p4758
g2
(g3
g4
Ntp4759
Rp4760
(dp4761
g8
V124.82.216.154
p4762
sg9
F0.0
sg10
g11
sg12
g11
sg13
g11
sg14
VAS4788
p4763
sg16
g11
sbsV221.186.135.77
p4764
g2
(g3
g4
Ntp4765
Rp4766
(dp4767
g8
V221.186.135.77
p4768
sg9
F0.0
sg10
g11
sg12
g11
sg13
g11
sg14
VAS4713
p4769
sg16
g11
sbsV210.61.49.241
p4770
g2
(g3
g4
Ntp4771
Rp4772
(dp4773
g8
V210.61.49.241
p4774
sg9
F0.0
sg10
g11
sg12
g11
sg13
g11
sg14
VAS3462
p4775
sg16
g11
sbsV74.124.164.95
p4776
g2
(g3
g4
Ntp4777
Rp4778
(dp4779
g8
V74.124.164.95
p4780
sg9
F0.0
sg10
g11
sg12
g11
sg13
g11
sg14
VAS22709
p4781
sg16
g11
sbsV213.32.14.57
p4782
g2
(g3
g4
Ntp4783
Rp4784
(dp4785
g8
V213.32.14.57
p4786
sg9
F0.0
sg10
g11
sg12
g11
sg13
g11
sg14
VAS16276
p4787
sg16
g11
sbsV69.164.192.31
p4788
g2
(g3
g4
Ntp4789
Rp4790
(dp4791
g8
V69.164.192.31
p4792
sg9
F0.0
sg10
g11
sg12
g11
sg13
g11
sg14
VAS63949
p4793
sg16
g11
sbsV177.250.29.71
p4794
g2
(g3
g4
Ntp4795
Rp4796
(dp4797
g8
V177.250.29.71
p4798
sg9
F0.0
sg10
g11
sg12
g11
sg13
g11
sg14
VAS27866
p4799
sg16
g11
sbsV121.41.41.45
p4800
g2
(g3
g4
Ntp4801
Rp4802
(dp4803
g8
g4800
sg9
F0.0
sg10
g11
sg12
g11
sg13
g11
sg14
VAS37963
p4804
sg16
g11
sbsV82.114.69.218
p4805
g2
(g3
g4
Ntp4806
Rp4807
(dp4808
g8
V82.114.69.218
p4809
sg9
F0.0
sg10
g11
sg12
g11
sg13
g11
sg14
VAS29170
p4810
sg16
g11
sbsV5.154.56.189
p4811
g2
(g3
g4
Ntp4812
Rp4813
(dp4814
g8
V5.154.56.189
p4815
sg9
F0.0
sg10
g11
sg12
g11
sg13
g11
sg14
VAS48427
p4816
sg16
g11
sbsV50.28.48.92
p4817
g2
(g3
g4
Ntp4818
Rp4819
(dp4820
g8
V50.28.48.92
p4821
sg9
F0.0
sg10
g11
sg12
g11
sg13
g11
sg14
VAS32244
p4822
sg16
g11
sbsV83.110.13.135
p4823
g2
(g3
g4
Ntp4824
Rp4825
(dp4826
g8
V83.110.13.135
p4827
sg9
F0.0
sg10
g11
sg12
g11
sg13
g11
sg14
VAS5384
p4828
sg16
g11
sbsV82.77.201.239
p4829
g2
(g3
g4
Ntp4830
Rp4831
(dp4832
g8
V82.77.201.239
p4833
sg9
F0.0
sg10
g11
sg12
g11
sg13
g11
sg14
VAS8708
p4834
sg16
g11
sbsV46.45.136.126
p4835
g2
(g3
g4
Ntp4836
Rp4837
(dp4838
g8
V46.45.136.126
p4839
sg9
F0.0
sg10
g11
sg12
g11
sg13
g11
sg14
VAS197328
p4840
sg16
g11
sbsV220.246.112.59
p4841
g2
(g3
g4
Ntp4842
Rp4843
(dp4844
g8
V220.246.112.59
p4845
sg9
F0.0
sg10
g11
sg12
g11
sg13
g11
sg14
VAS4760
p4846
sg16
g11
sbsV212.175.88.247
p4847
g2
(g3
g4
Ntp4848
Rp4849
(dp4850
g8
V212.175.88.247
p4851
sg9
F0.0
sg10
g11
sg12
g11
sg13
g11
sg14
VAS9121
p4852
sg16
g11
sbsV217.112.193.220
p4853
g2
(g3
g4
Ntp4854
Rp4855
(dp4856
g8
g4853
sg9
F0.0
sg10
g11
sg12
g11
sg13
g11
sg14
VAS34541
p4857
sg16
g11
sbsV212.175.88.242
p4858
g2
(g3
g4
Ntp4859
Rp4860
(dp4861
g8
V212.175.88.242
p4862
sg9
F0.0
sg10
g11
sg12
g11
sg13
g11
sg14
VAS9121
p4863
sg16
g11
sbsV62.28.33.122
p4864
g2
(g3
g4
Ntp4865
Rp4866
(dp4867
g8
V62.28.33.122
p4868
sg9
F0.0
sg10
g11
sg12
g11
sg13
g11
sg14
VAS15525
p4869
sg16
g11
sbsV207.157.12.4
p4870
g2
(g3
g4
Ntp4871
Rp4872
(dp4873
g8
V207.157.12.4
p4874
sg9
F0.0
sg10
g11
sg12
g11
sg13
g11
sg14
VAS3464
p4875
sg16
g11
sbsV212.175.88.248
p4876
g2
(g3
g4
Ntp4877
Rp4878
(dp4879
g8
V212.175.88.248
p4880
sg9
F0.0
sg10
g11
sg12
g11
sg13
g11
sg14
VAS9121
p4881
sg16
g11
sbsV42.200.204.1
p4882
g2
(g3
g4
Ntp4883
Rp4884
(dp4885
g8
V42.200.204.1
p4886
sg9
F0.0
sg10
g11
sg12
g11
sg13
g11
sg14
VAS4760
p4887
sg16
g11
sbsV96.235.22.43
p4888
g2
(g3
g4
Ntp4889
Rp4890
(dp4891
g8
V96.235.22.43
p4892
sg9
F0.0
sg10
g11
sg12
g11
sg13
g11
sg14
VAS701
p4893
sg16
g11
sbsV88.198.219.19
p4894
g2
(g3
g4
Ntp4895
Rp4896
(dp4897
g8
V88.198.219.19
p4898
sg9
F0.0
sg10
g11
sg12
g11
sg13
g11
sg14
VAS24940
p4899
sg16
g11
sbsV98.23.186.163
p4900
g2
(g3
g4
Ntp4901
Rp4902
(dp4903
g8
V98.23.186.163
p4904
sg9
F0.0
sg10
g11
sg12
g11
sg13
g11
sg14
VAS7029
p4905
sg16
g11
sbsV98.23.186.162
p4906
g2
(g3
g4
Ntp4907
Rp4908
(dp4909
g8
V98.23.186.162
p4910
sg9
F0.0
sg10
g11
sg12
g11
sg13
g11
sg14
VAS7029
p4911
sg16
g11
sbsV98.23.186.161
p4912
g2
(g3
g4
Ntp4913
Rp4914
(dp4915
g8
V98.23.186.161
p4916
sg9
F0.0
sg10
g11
sg12
g11
sg13
g11
sg14
VAS7029
p4917
sg16
g11
sbsV98.23.186.160
p4918
g2
(g3
g4
Ntp4919
Rp4920
(dp4921
g8
V98.23.186.160
p4922
sg9
F0.0
sg10
g11
sg12
g11
sg13
g11
sg14
VAS7029
p4923
sg16
g11
sbsV98.23.186.167
p4924
g2
(g3
g4
Ntp4925
Rp4926
(dp4927
g8
V98.23.186.167
p4928
sg9
F0.0
sg10
g11
sg12
g11
sg13
g11
sg14
VAS7029
p4929
sg16
g11
sbsV192.252.215.177
p4930
g2
(g3
g4
Ntp4931
Rp4932
(dp4933
g8
V192.252.215.177
p4934
sg9
F0.0
sg10
g11
sg12
g11
sg13
g11
sg14
VAS46562
p4935
sg16
g11
sbsV179.234.2.53
p4936
g2
(g3
g4
Ntp4937
Rp4938
(dp4939
g8
V179.234.2.53
p4940
sg9
F0.0
sg10
g11
sg12
g11
sg13
g11
sg14
VAS28573
p4941
sg16
g11
sbsV98.23.186.164
p4942
g2
(g3
g4
Ntp4943
Rp4944
(dp4945
g8
V98.23.186.164
p4946
sg9
F0.0
sg10
g11
sg12
g11
sg13
g11
sg14
VAS7029
p4947
sg16
g11
sbsV217.92.22.12
p4948
g2
(g3
g4
Ntp4949
Rp4950
(dp4951
g8
g4948
sg9
F0.0
sg10
g11
sg12
g11
sg13
g11
sg14
VAS3320
p4952
sg16
g11
sbsV87.138.112.113
p4953
g2
(g3
g4
Ntp4954
Rp4955
(dp4956
g8
V87.138.112.113
p4957
sg9
F0.0
sg10
g11
sg12
g11
sg13
g11
sg14
VAS3320
p4958
sg16
g11
sbsV98.23.186.168
p4959
g2
(g3
g4
Ntp4960
Rp4961
(dp4962
g8
V98.23.186.168
p4963
sg9
F0.0
sg10
g11
sg12
g11
sg13
g11
sg14
VAS7029
p4964
sg16
g11
sbsV87.58.249.138
p4965
g2
(g3
g4
Ntp4966
Rp4967
(dp4968
g8
V87.58.249.138
p4969
sg9
F0.0
sg10
g11
sg12
g11
sg13
g11
sg14
VAS3292
p4970
sg16
g11
sbsV203.214.136.69
p4971
g2
(g3
g4
Ntp4972
Rp4973
(dp4974
g8
g4971
sg9
F0.0
sg10
g11
sg12
g11
sg13
g11
sg14
VAS4739
p4975
sg16
g11
sbsV54.227.174.163
p4976
g2
(g3
g4
Ntp4977
Rp4978
(dp4979
g8
V54.227.174.163
p4980
sg9
F0.0
sg10
g11
sg12
g11
sg13
g11
sg14
VAS14618
p4981
sg16
g11
sbsV2.49.3.100
p4982
g2
(g3
g4
Ntp4983
Rp4984
(dp4985
g8
g4982
sg9
F0.0
sg10
g11
sg12
g11
sg13
g11
sg14
VAS5384
p4986
sg16
g11
sbsV202.175.98.138
p4987
g2
(g3
g4
Ntp4988
Rp4989
(dp4990
g8
V202.175.98.138
p4991
sg9
F0.0
sg10
g11
sg12
g11
sg13
g11
sg14
VAS4609
p4992
sg16
g11
sbsV124.107.138.238
p4993
g2
(g3
g4
Ntp4994
Rp4995
(dp4996
g8
V124.107.138.238
p4997
sg9
F0.0
sg10
g11
sg12
g11
sg13
g11
sg14
VAS9299
p4998
sg16
g11
sbsV27.251.120.242
p4999
g2
(g3
g4
Ntp5000
Rp5001
(dp5002
g8
V27.251.120.242
p5003
sg9
F0.0
sg10
g11
sg12
g11
sg13
g11
sg14
VAS10201
p5004
sg16
g11
sbsV200.98.129.43
p5005
g2
(g3
g4
Ntp5006
Rp5007
(dp5008
g8
V200.98.129.43
p5009
sg9
F0.0
sg10
g11
sg12
g11
sg13
g11
sg14
VAS7162
p5010
sg16
g11
sbsV62.160.48.103
p5011
g2
(g3
g4
Ntp5012
Rp5013
(dp5014
g8
V62.160.48.103
p5015
sg9
F0.0
sg10
g11
sg12
g11
sg13
g11
sg14
VAS3215
p5016
sg16
g11
sbsV92.66.6.126
p5017
g2
(g3
g4
Ntp5018
Rp5019
(dp5020
g8
V92.66.6.126
p5021
sg9
F0.0
sg10
g11
sg12
g11
sg13
g11
sg14
VAS1136
p5022
sg16
g11
sbsV88.248.192.152
p5023
g2
(g3
g4
Ntp5024
Rp5025
(dp5026
g8
V88.248.192.152
p5027
sg9
F0.0
sg10
g11
sg12
g11
sg13
g11
sg14
VAS9121
p5028
sg16
g11
sbsV213.56.231.176
p5029
g2
(g3
g4
Ntp5030
Rp5031
(dp5032
g8
V213.56.231.176
p5033
sg9
F0.0
sg10
g11
sg12
g11
sg13
g11
sg14
VAS3215
p5034
sg16
g11
sbsV51.255.55.86
p5035
g2
(g3
g4
Ntp5036
Rp5037
(dp5038
g8
V51.255.55.86
p5039
sg9
F0.0
sg10
g11
sg12
g11
sg13
g11
sg14
VAS16276
p5040
sg16
g11
sbsV82.165.46.37
p5041
g2
(g3
g4
Ntp5042
Rp5043
(dp5044
g8
V82.165.46.37
p5045
sg9
F0.0
sg10
g11
sg12
g11
sg13
g11
sg14
VAS8560
p5046
sg16
g11
sbsV51.255.55.85
p5047
g2
(g3
g4
Ntp5048
Rp5049
(dp5050
g8
V51.255.55.85
p5051
sg9
F0.0
sg10
g11
sg12
g11
sg13
g11
sg14
VAS16276
p5052
sg16
g11
sbsV50.202.91.36
p5053
g2
(g3
g4
Ntp5054
Rp5055
(dp5056
g8
V50.202.91.36
p5057
sg9
F0.0
sg10
g11
sg12
g11
sg13
g11
sg14
VAS7922
p5058
sg16
g11
sbsV177.43.48.163
p5059
g2
(g3
g4
Ntp5060
Rp5061
(dp5062
g8
V177.43.48.163
p5063
sg9
F0.0
sg10
g11
sg12
g11
sg13
g11
sg14
VAS18881
p5064
sg16
g11
sbsV67.14.253.154
p5065
g2
(g3
g4
Ntp5066
Rp5067
(dp5068
g8
V67.14.253.154
p5069
sg9
F0.0
sg10
g11
sg12
g11
sg13
g11
sg14
VAS23089
p5070
sg16
g11
sbsV46.229.182.100
p5071
g2
(g3
g4
Ntp5072
Rp5073
(dp5074
g8
V46.229.182.100
p5075
sg9
F0.0
sg10
g11
sg12
g11
sg13
g11
sg14
VAS197078
p5076
sg16
g11
sbsV217.125.83.35
p5077
g2
(g3
g4
Ntp5078
Rp5079
(dp5080
g8
V217.125.83.35
p5081
sg9
F0.0
sg10
g11
sg12
g11
sg13
g11
sg14
VAS3352
p5082
sg16
g11
sbsV192.5.186.52
p5083
g2
(g3
g4
Ntp5084
Rp5085
(dp5086
g8
V192.5.186.52
p5087
sg9
F0.0
sg10
g11
sg12
g11
sg13
g11
sg14
VAS683
p5088
sg16
g11
sbsV173.231.129.216
p5089
g2
(g3
g4
Ntp5090
Rp5091
(dp5092
g8
V173.231.129.216
p5093
sg9
F0.0
sg10
g11
sg12
g11
sg13
g11
sg14
VAS29791
p5094
sg16
g11
sbsV173.231.129.215
p5095
g2
(g3
g4
Ntp5096
Rp5097
(dp5098
g8
V173.231.129.215
p5099
sg9
F0.0
sg10
g11
sg12
g11
sg13
g11
sg14
VAS29791
p5100
sg16
g11
sbsV188.231.1.180
p5101
g2
(g3
g4
Ntp5102
Rp5103
(dp5104
g8
V188.231.1.180
p5105
sg9
F0.0
sg10
g11
sg12
g11
sg13
g11
sg14
VAS24627
p5106
sg16
g11
sbsV193.214.111.209
p5107
g2
(g3
g4
Ntp5108
Rp5109
(dp5110
g8
V193.214.111.209
p5111
sg9
F0.0
sg10
g11
sg12
g11
sg13
g11
sg14
VAS2119
p5112
sg16
g11
sbsV200.157.14.99
p5113
g2
(g3
g4
Ntp5114
Rp5115
(dp5116
g8
V200.157.14.99
p5117
sg9
F0.0
sg10
g11
sg12
g11
sg13
g11
sg14
VAS17379
p5118
sg16
g11
sbsV95.168.200.217
p5119
g2
(g3
g4
Ntp5120
Rp5121
(dp5122
g8
V95.168.200.217
p5123
sg9
F0.0
sg10
g11
sg12
g11
sg13
g11
sg14
VAS39392
p5124
sg16
g11
sbsV213.3.17.36
p5125
g2
(g3
g4
Ntp5126
Rp5127
(dp5128
g8
V213.3.17.36
p5129
sg9
F0.0
sg10
g11
sg12
g11
sg13
g11
sg14
VAS3303
p5130
sg16
g11
sbsV94.97.125.121
p5131
g2
(g3
g4
Ntp5132
Rp5133
(dp5134
g8
V94.97.125.121
p5135
sg9
F0.0
sg10
g11
sg12
g11
sg13
g11
sg14
VAS25019
p5136
sg16
g11
sbsV188.27.232.39
p5137
g2
(g3
g4
Ntp5138
Rp5139
(dp5140
g8
V188.27.232.39
p5141
sg9
F0.0
sg10
g11
sg12
g11
sg13
g11
sg14
VAS8708
p5142
sg16
g11
sbsV78.188.217.137
p5143
g2
(g3
g4
Ntp5144
Rp5145
(dp5146
g8
V78.188.217.137
p5147
sg9
F0.0
sg10
g11
sg12
g11
sg13
g11
sg14
VAS9121
p5148
sg16
g11
sbsV54.200.46.253
p5149
g2
(g3
g4
Ntp5150
Rp5151
(dp5152
g8
g5149
sg9
F0.0
sg10
g11
sg12
g11
sg13
g11
sg14
VAS16509
p5153
sg16
g11
sbsV66.228.115.98
p5154
g2
(g3
g4
Ntp5155
Rp5156
(dp5157
g8
V66.228.115.98
p5158
sg9
F0.0
sg10
g11
sg12
g11
sg13
g11
sg14
VAS36351
p5159
sg16
g11
sbsV106.248.227.163
p5160
g2
(g3
g4
Ntp5161
Rp5162
(dp5163
g8
V106.248.227.163
p5164
sg9
F0.0
sg10
g11
sg12
g11
sg13
g11
sg14
VAS3786
p5165
sg16
g11
sbsV46.92.61.6
p5166
g2
(g3
g4
Ntp5167
Rp5168
(dp5169
g8
g5166
sg9
F0.0
sg10
g11
sg12
g11
sg13
g11
sg14
VAS3320
p5170
sg16
g11
sbsV152.173.149.153
p5171
g2
(g3
g4
Ntp5172
Rp5173
(dp5174
g8
V152.173.149.153
p5175
sg9
F0.0
sg10
g11
sg12
g11
sg13
g11
sg14
VAS7418
p5176
sg16
g11
sbsV74.121.190.252
p5177
g2
(g3
g4
Ntp5178
Rp5179
(dp5180
g8
g5177
sg9
F0.0
sg10
g11
sg12
g11
sg13
g11
sg14
VAS23033
p5181
sg16
g11
sbsV42.200.167.227
p5182
g2
(g3
g4
Ntp5183
Rp5184
(dp5185
g8
g5182
sg9
F0.0
sg10
g11
sg12
g11
sg13
g11
sg14
VAS4760
p5186
sg16
g11
sbsV79.112.4.96
p5187
g2
(g3
g4
Ntp5188
Rp5189
(dp5190
g8
g5187
sg9
F0.0
sg10
g11
sg12
g11
sg13
g11
sg14
VAS8708
p5191
sg16
g11
sbsV218.103.121.20
p5192
g2
(g3
g4
Ntp5193
Rp5194
(dp5195
g8
V218.103.121.20
p5196
sg9
F0.0
sg10
g11
sg12
g11
sg13
g11
sg14
VAS4760
p5197
sg16
g11
sbsV220.130.12.233
p5198
g2
(g3
g4
Ntp5199
Rp5200
(dp5201
g8
V220.130.12.233
p5202
sg9
F0.0
sg10
g11
sg12
g11
sg13
g11
sg14
VAS3462
p5203
sg16
g11
sbsV52.203.41.221
p5204
g2
(g3
g4
Ntp5205
Rp5206
(dp5207
g8
V52.203.41.221
p5208
sg9
F0.0
sg10
g11
sg12
g11
sg13
g11
sg14
VAS14618
p5209
sg16
g11
sbsV79.252.223.146
p5210
g2
(g3
g4
Ntp5211
Rp5212
(dp5213
g8
g5210
sg9
F0.0
sg10
g11
sg12
g11
sg13
g11
sg14
VAS3320
p5214
sg16
g11
sbsV177.135.122.20
p5215
g2
(g3
g4
Ntp5216
Rp5217
(dp5218
g8
V177.135.122.20
p5219
sg9
F0.0
sg10
g11
sg12
g11
sg13
g11
sg14
VAS18881
p5220
sg16
g11
sbsV217.155.34.166
p5221
g2
(g3
g4
Ntp5222
Rp5223
(dp5224
g8
V217.155.34.166
p5225
sg9
F0.0
sg10
g11
sg12
g11
sg13
g11
sg14
VAS13037
p5226
sg16
g11
sbsV167.58.2.200
p5227
g2
(g3
g4
Ntp5228
Rp5229
(dp5230
g8
g5227
sg9
F0.0
sg10
g11
sg12
g11
sg13
g11
sg14
VAS6057
p5231
sg16
g11
sbsV78.245.88.194
p5232
g2
(g3
g4
Ntp5233
Rp5234
(dp5235
g8
V78.245.88.194
p5236
sg9
F0.0
sg10
g11
sg12
g11
sg13
g11
sg14
VAS12322
p5237
sg16
g11
sbsV35.185.52.51
p5238
g2
(g3
g4
Ntp5239
Rp5240
(dp5241
g8
V35.185.52.51
p5242
sg9
F0.0
sg10
g11
sg12
g11
sg13
g11
sg14
VAS15169
p5243
sg16
g11
sbsV216.1.187.167
p5244
g2
(g3
g4
Ntp5245
Rp5246
(dp5247
g8
V216.1.187.167
p5248
sg9
F0.0
sg10
g11
sg12
g11
sg13
g11
sg14
VAS2828
p5249
sg16
g11
sbsV218.103.120.242
p5250
g2
(g3
g4
Ntp5251
Rp5252
(dp5253
g8
V218.103.120.242
p5254
sg9
F0.0
sg10
g11
sg12
g11
sg13
g11
sg14
VAS4760
p5255
sg16
g11
sbsV203.127.71.88
p5256
g2
(g3
g4
Ntp5257
Rp5258
(dp5259
g8
V203.127.71.88
p5260
sg9
F0.0
sg10
g11
sg12
g11
sg13
g11
sg14
VAS3758
p5261
sg16
g11
sbsV190.242.37.84
p5262
g2
(g3
g4
Ntp5263
Rp5264
(dp5265
g8
V190.242.37.84
p5266
sg9
F0.0
sg10
g11
sg12
g11
sg13
g11
sg14
VAS23520
p5267
sg16
g11
sbsV177.72.147.215
p5268
g2
(g3
g4
Ntp5269
Rp5270
(dp5271
g8
V177.72.147.215
p5272
sg9
F0.0
sg10
g11
sg12
g11
sg13
g11
sg14
VAS262414
p5273
sg16
g11
sbsV220.246.77.191
p5274
g2
(g3
g4
Ntp5275
Rp5276
(dp5277
g8
V220.246.77.191
p5278
sg9
F0.0
sg10
g11
sg12
g11
sg13
g11
sg14
VAS4760
p5279
sg16
g11
sbsV81.133.46.148
p5280
g2
(g3
g4
Ntp5281
Rp5282
(dp5283
g8
V81.133.46.148
p5284
sg9
F0.0
sg10
g11
sg12
g11
sg13
g11
sg14
VAS2856
p5285
sg16
g11
sbsV81.133.46.149
p5286
g2
(g3
g4
Ntp5287
Rp5288
(dp5289
g8
V81.133.46.149
p5290
sg9
F0.0
sg10
g11
sg12
g11
sg13
g11
sg14
VAS2856
p5291
sg16
g11
sbsV81.133.46.146
p5292
g2
(g3
g4
Ntp5293
Rp5294
(dp5295
g8
V81.133.46.146
p5296
sg9
F0.0
sg10
g11
sg12
g11
sg13
g11
sg14
VAS2856
p5297
sg16
g11
sbsV189.14.87.138
p5298
g2
(g3
g4
Ntp5299
Rp5300
(dp5301
g8
V189.14.87.138
p5302
sg9
F0.0
sg10
g11
sg12
g11
sg13
g11
sg14
VAS28277
p5303
sg16
g11
sbsV46.86.15.45
p5304
g2
(g3
g4
Ntp5305
Rp5306
(dp5307
g8
V46.86.15.45
p5308
sg9
F0.0
sg10
g11
sg12
g11
sg13
g11
sg14
VAS3320
p5309
sg16
g11
sbsV58.7.218.70
p5310
g2
(g3
g4
Ntp5311
Rp5312
(dp5313
g8
V58.7.218.70
p5314
sg9
F0.0
sg10
g11
sg12
g11
sg13
g11
sg14
VAS4739
p5315
sg16
g11
sbsV112.121.130.254
p5316
g2
(g3
g4
Ntp5317
Rp5318
(dp5319
g8
V112.121.130.254
p5320
sg9
F0.0
sg10
g11
sg12
g11
sg13
g11
sg14
VAS23884
p5321
sg16
g11
sbsV195.43.83.58
p5322
g2
(g3
g4
Ntp5323
Rp5324
(dp5325
g8
g5322
sg9
F0.0
sg10
g11
sg12
g11
sg13
g11
sg14
VAS51109
p5326
sg16
g11
sbsV178.63.17.205
p5327
g2
(g3
g4
Ntp5328
Rp5329
(dp5330
g8
V178.63.17.205
p5331
sg9
F0.0
sg10
g11
sg12
g11
sg13
g11
sg14
VAS24940
p5332
sg16
g11
sbsV220.246.78.76
p5333
g2
(g3
g4
Ntp5334
Rp5335
(dp5336
g8
V220.246.78.76
p5337
sg9
F0.0
sg10
g11
sg12
g11
sg13
g11
sg14
VAS4760
p5338
sg16
g11
sbsV101.98.86.93
p5339
g2
(g3
g4
Ntp5340
Rp5341
(dp5342
g8
g5339
sg9
F0.0
sg10
g11
sg12
g11
sg13
g11
sg14
VAS9790
p5343
sg16
g11
sbsV91.221.177.59
p5344
g2
(g3
g4
Ntp5345
Rp5346
(dp5347
g8
V91.221.177.59
p5348
sg9
F0.0
sg10
g11
sg12
g11
sg13
g11
sg14
VAS52008
p5349
sg16
g11
sbsV139.224.224.191
p5350
g2
(g3
g4
Ntp5351
Rp5352
(dp5353
g8
V139.224.224.191
p5354
sg9
F0.0
sg10
g11
sg12
g11
sg13
g11
sg14
VAS37963
p5355
sg16
g11
sbsV190.2.72.97
p5356
g2
(g3
g4
Ntp5357
Rp5358
(dp5359
g8
V190.2.72.97
p5360
sg9
F0.0
sg10
g11
sg12
g11
sg13
g11
sg14
VAS61920
p5361
sg16
g11
sbsV88.198.33.201
p5362
g2
(g3
g4
Ntp5363
Rp5364
(dp5365
g8
V88.198.33.201
p5366
sg9
F0.0
sg10
g11
sg12
g11
sg13
g11
sg14
VAS24940
p5367
sg16
g11
sbsV119.81.101.253
p5368
g2
(g3
g4
Ntp5369
Rp5370
(dp5371
g8
V119.81.101.253
p5372
sg9
F0.0
sg10
g11
sg12
g11
sg13
g11
sg14
VAS36351
p5373
sg16
g11
sbsV119.81.101.252
p5374
g2
(g3
g4
Ntp5375
Rp5376
(dp5377
g8
V119.81.101.252
p5378
sg9
F0.0
sg10
g11
sg12
g11
sg13
g11
sg14
VAS36351
p5379
sg16
g11
sbsV223.197.253.180
p5380
g2
(g3
g4
Ntp5381
Rp5382
(dp5383
g8
V223.197.253.180
p5384
sg9
F0.0
sg10
g11
sg12
g11
sg13
g11
sg14
VAS4760
p5385
sg16
g11
sbsV123.56.177.106
p5386
g2
(g3
g4
Ntp5387
Rp5388
(dp5389
g8
V123.56.177.106
p5390
sg9
F0.0
sg10
g11
sg12
g11
sg13
g11
sg14
VAS37963
p5391
sg16
g11
sbsV78.46.114.62
p5392
g2
(g3
g4
Ntp5393
Rp5394
(dp5395
g8
g5392
sg9
F0.0
sg10
g11
sg12
g11
sg13
g11
sg14
VAS24940
p5396
sg16
g11
sbsV121.242.77.202
p5397
g2
(g3
g4
Ntp5398
Rp5399
(dp5400
g8
V121.242.77.202
p5401
sg9
F0.0
sg10
g11
sg12
g11
sg13
g11
sg14
VAS4755
p5402
sg16
g11
sbsV106.247.130.30
p5403
g2
(g3
g4
Ntp5404
Rp5405
(dp5406
g8
g5403
sg9
F0.0
sg10
g11
sg12
g11
sg13
g11
sg14
VAS3786
p5407
sg16
g11
sbsV86.20.238.156
p5408
g2
(g3
g4
Ntp5409
Rp5410
(dp5411
g8
V86.20.238.156
p5412
sg9
F0.0
sg10
g11
sg12
g11
sg13
g11
sg14
VAS5089
p5413
sg16
g11
sbsV59.120.185.135
p5414
g2
(g3
g4
Ntp5415
Rp5416
(dp5417
g8
V59.120.185.135
p5418
sg9
F0.0
sg10
g11
sg12
g11
sg13
g11
sg14
VAS3462
p5419
sg16
g11
sbsV107.190.140.10
p5420
g2
(g3
g4
Ntp5421
Rp5422
(dp5423
g8
V107.190.140.10
p5424
sg9
F0.0
sg10
g11
sg12
g11
sg13
g11
sg14
VAS33182
p5425
sg16
g11
sbsV166.62.121.33
p5426
g2
(g3
g4
Ntp5427
Rp5428
(dp5429
g8
g5426
sg9
F0.0
sg10
g11
sg12
g11
sg13
g11
sg14
VAS26496
p5430
sg16
g11
sbsV52.64.105.255
p5431
g2
(g3
g4
Ntp5432
Rp5433
(dp5434
g8
V52.64.105.255
p5435
sg9
F0.0
sg10
g11
sg12
g11
sg13
g11
sg14
VAS16509
p5436
sg16
g11
sbsV103.9.103.97
p5437
g2
(g3
g4
Ntp5438
Rp5439
(dp5440
g8
g5437
sg9
F0.0
sg10
g11
sg12
g11
sg13
g11
sg14
VAS58621
p5441
sg16
g11
sbsV220.246.75.34
p5442
g2
(g3
g4
Ntp5443
Rp5444
(dp5445
g8
V220.246.75.34
p5446
sg9
F0.0
sg10
g11
sg12
g11
sg13
g11
sg14
VAS4760
p5447
sg16
g11
sbsV87.191.154.92
p5448
g2
(g3
g4
Ntp5449
Rp5450
(dp5451
g8
V87.191.154.92
p5452
sg9
F0.0
sg10
g11
sg12
g11
sg13
g11
sg14
VAS3320
p5453
sg16
g11
sbsV41.33.203.20
p5454
g2
(g3
g4
Ntp5455
Rp5456
(dp5457
g8
V41.33.203.20
p5458
sg9
F0.0
sg10
g11
sg12
g11
sg13
g11
sg14
VAS8452
p5459
sg16
g11
sbsV109.106.53.8
p5460
g2
(g3
g4
Ntp5461
Rp5462
(dp5463
g8
V109.106.53.8
p5464
sg9
F0.0
sg10
g11
sg12
g11
sg13
g11
sg14
VAS15600
p5465
sg16
g11
sbsV144.160.16.98
p5466
g2
(g3
g4
Ntp5467
Rp5468
(dp5469
g8
V144.160.16.98
p5470
sg9
F0.0
sg10
g11
sg12
g11
sg13
g11
sg14
VAS797
p5471
sg16
g11
sbsV12.50.47.202
p5472
g2
(g3
g4
Ntp5473
Rp5474
(dp5475
g8
g5472
sg9
F0.0
sg10
g11
sg12
g11
sg13
g11
sg14
VAS7018
p5476
sg16
g11
sbsV201.6.100.172
p5477
g2
(g3
g4
Ntp5478
Rp5479
(dp5480
g8
g5477
sg9
F0.0
sg10
g11
sg12
g11
sg13
g11
sg14
VAS28573
p5481
sg16
g11
sbsV91.235.165.46
p5482
g2
(g3
g4
Ntp5483
Rp5484
(dp5485
g8
V91.235.165.46
p5486
sg9
F0.0
sg10
g11
sg12
g11
sg13
g11
sg14
VAS57815
p5487
sg16
g11
sbsV189.50.2.162
p5488
g2
(g3
g4
Ntp5489
Rp5490
(dp5491
g8
V189.50.2.162
p5492
sg9
F0.0
sg10
g11
sg12
g11
sg13
g11
sg14
VAS28323
p5493
sg16
g11
sbsV201.39.164.106
p5494
g2
(g3
g4
Ntp5495
Rp5496
(dp5497
g8
V201.39.164.106
p5498
sg9
F0.0
sg10
g11
sg12
g11
sg13
g11
sg14
VAS4230
p5499
sg16
g11
sbsV210.195.119.171
p5500
g2
(g3
g4
Ntp5501
Rp5502
(dp5503
g8
V210.195.119.171
p5504
sg9
F0.0
sg10
g11
sg12
g11
sg13
g11
sg14
VAS4788
p5505
sg16
g11
sbsV164.132.141.199
p5506
g2
(g3
g4
Ntp5507
Rp5508
(dp5509
g8
V164.132.141.199
p5510
sg9
F0.0
sg10
g11
sg12
g11
sg13
g11
sg14
VAS16276
p5511
sg16
g11
sbsV112.120.126.88
p5512
g2
(g3
g4
Ntp5513
Rp5514
(dp5515
g8
g5512
sg9
F0.0
sg10
g11
sg12
g11
sg13
g11
sg14
VAS4760
p5516
sg16
g11
sbsV109.167.58.67
p5517
g2
(g3
g4
Ntp5518
Rp5519
(dp5520
g8
V109.167.58.67
p5521
sg9
F0.0
sg10
g11
sg12
g11
sg13
g11
sg14
VAS48427
p5522
sg16
g11
sbsV179.111.220.199
p5523
g2
(g3
g4
Ntp5524
Rp5525
(dp5526
g8
V179.111.220.199
p5527
sg9
F0.0
sg10
g11
sg12
g11
sg13
g11
sg14
VAS27699
p5528
sg16
g11
sbsV109.109.138.171
p5529
g2
(g3
g4
Ntp5530
Rp5531
(dp5532
g8
V109.109.138.171
p5533
sg9
F0.0
sg10
g11
sg12
g11
sg13
g11
sg14
VAS8553
p5534
sg16
g11
sbsV65.50.255.18
p5535
g2
(g3
g4
Ntp5536
Rp5537
(dp5538
g8
V65.50.255.18
p5539
sg9
F0.0
sg10
g11
sg12
g11
sg13
g11
sg14
VAS21623
p5540
sg16
g11
sbsV133.18.96.58
p5541
g2
(g3
g4
Ntp5542
Rp5543
(dp5544
g8
V133.18.96.58
p5545
sg9
F0.0
sg10
g11
sg12
g11
sg13
g11
sg14
VAS24282
p5546
sg16
g11
sbsV193.93.218.45
p5547
g2
(g3
g4
Ntp5548
Rp5549
(dp5550
g8
g5547
sg9
F0.0
sg10
g11
sg12
g11
sg13
g11
sg14
VAS49824
p5551
sg16
g11
sbsV91.250.82.245
p5552
g2
(g3
g4
Ntp5553
Rp5554
(dp5555
g8
V91.250.82.245
p5556
sg9
F0.0
sg10
g11
sg12
g11
sg13
g11
sg14
VAS20773
p5557
sg16
g11
sbsV24.249.193.235
p5558
g2
(g3
g4
Ntp5559
Rp5560
(dp5561
g8
g5558
sg9
F0.0
sg10
g11
sg12
g11
sg13
g11
sg14
VAS22773
p5562
sg16
g11
sbsV211.174.239.151
p5563
g2
(g3
g4
Ntp5564
Rp5565
(dp5566
g8
V211.174.239.151
p5567
sg9
F0.0
sg10
g11
sg12
g11
sg13
g11
sg14
VAS4663
p5568
sg16
g11
sbsV66.228.115.99
p5569
g2
(g3
g4
Ntp5570
Rp5571
(dp5572
g8
V66.228.115.99
p5573
sg9
F0.0
sg10
g11
sg12
g11
sg13
g11
sg14
VAS36351
p5574
sg16
g11
sbsV68.11.223.20
p5575
g2
(g3
g4
Ntp5576
Rp5577
(dp5578
g8
V68.11.223.20
p5579
sg9
F0.0
sg10
g11
sg12
g11
sg13
g11
sg14
VAS22773
p5580
sg16
g11
sbsV82.208.53.115
p5581
g2
(g3
g4
Ntp5582
Rp5583
(dp5584
g8
V82.208.53.115
p5585
sg9
F0.0
sg10
g11
sg12
g11
sg13
g11
sg14
VAS15685
p5586
sg16
g11
sbsV190.113.104.178
p5587
g2
(g3
g4
Ntp5588
Rp5589
(dp5590
g8
g5587
sg9
F0.0
sg10
g11
sg12
g11
sg13
g11
sg14
VAS52263
p5591
sg16
g11
sbsV176.111.127.244
p5592
g2
(g3
g4
Ntp5593
Rp5594
(dp5595
g8
g5592
sg9
F0.0
sg10
g11
sg12
g11
sg13
g11
sg14
VAS198935
p5596
sg16
g11
sbsV202.133.126.77
p5597
g2
(g3
g4
Ntp5598
Rp5599
(dp5600
g8
g5597
sg9
F0.0
sg10
g11
sg12
g11
sg13
g11
sg14
VAS9597
p5601
sg16
g11
sbsV66.146.122.158
p5602
g2
(g3
g4
Ntp5603
Rp5604
(dp5605
g8
g5602
sg9
F0.0
sg10
g11
sg12
g11
sg13
g11
sg14
VAS11123
p5606
sg16
g11
sbsV74.121.190.251
p5607
g2
(g3
g4
Ntp5608
Rp5609
(dp5610
g8
g5607
sg9
F0.0
sg10
g11
sg12
g11
sg13
g11
sg14
VAS23033
p5611
sg16
g11
sbsV220.246.38.234
p5612
g2
(g3
g4
Ntp5613
Rp5614
(dp5615
g8
V220.246.38.234
p5616
sg9
F0.0
sg10
g11
sg12
g11
sg13
g11
sg14
VAS4760
p5617
sg16
g11
sbsV167.21.98.11
p5618
g2
(g3
g4
Ntp5619
Rp5620
(dp5621
g8
V167.21.98.11
p5622
sg9
F0.0
sg10
g11
sg12
g11
sg13
g11
sg14
VAS30641
p5623
sg16
g11
sbsV138.31.88.168
p5624
g2
(g3
g4
Ntp5625
Rp5626
(dp5627
g8
g5624
sg9
F0.0
sg10
g11
sg12
g11
sg13
g11
sg14
I0
sg16
g11
sbsV219.76.188.165
p5628
g2
(g3
g4
Ntp5629
Rp5630
(dp5631
g8
V219.76.188.165
p5632
sg9
F0.0
sg10
g11
sg12
g11
sg13
g11
sg14
VAS4760
p5633
sg16
g11
sbsV202.143.225.32
p5634
g2
(g3
g4
Ntp5635
Rp5636
(dp5637
g8
g5634
sg9
F0.0
sg10
g11
sg12
g11
sg13
g11
sg14
VAS24336
p5638
sg16
g11
sbsV189.115.46.164
p5639
g2
(g3
g4
Ntp5640
Rp5641
(dp5642
g8
g5639
sg9
F0.0
sg10
g11
sg12
g11
sg13
g11
sg14
VAS18881
p5643
sg16
g11
sbsV182.53.242.137
p5644
g2
(g3
g4
Ntp5645
Rp5646
(dp5647
g8
g5644
sg9
F0.0
sg10
g11
sg12
g11
sg13
g11
sg14
VAS23969
p5648
sg16
g11
sbsV41.224.13.106
p5649
g2
(g3
g4
Ntp5650
Rp5651
(dp5652
g8
V41.224.13.106
p5653
sg9
F0.0
sg10
g11
sg12
g11
sg13
g11
sg14
VAS37492
p5654
sg16
g11
sbsV68.157.192.10
p5655
g2
(g3
g4
Ntp5656
Rp5657
(dp5658
g8
g5655
sg9
F0.0
sg10
g11
sg12
g11
sg13
g11
sg14
VAS7018
p5659
sg16
g11
sbsV90.75.216.146
p5660
g2
(g3
g4
Ntp5661
Rp5662
(dp5663
g8
V90.75.216.146
p5664
sg9
F0.0
sg10
g11
sg12
g11
sg13
g11
sg14
VAS12479
p5665
sg16
g11
sbsV50.164.91.183
p5666
g2
(g3
g4
Ntp5667
Rp5668
(dp5669
g8
V50.164.91.183
p5670
sg9
F0.0
sg10
g11
sg12
g11
sg13
g11
sg14
VAS7922
p5671
sg16
g11
sbsV223.197.177.79
p5672
g2
(g3
g4
Ntp5673
Rp5674
(dp5675
g8
V223.197.177.79
p5676
sg9
F0.0
sg10
g11
sg12
g11
sg13
g11
sg14
VAS4760
p5677
sg16
g11
sbsV131.100.143.237
p5678
g2
(g3
g4
Ntp5679
Rp5680
(dp5681
g8
g5678
sg9
F0.0
sg10
g11
sg12
g11
sg13
g11
sg14
VAS26617
p5682
sg16
g11
sbsV178.4.96.103
p5683
g2
(g3
g4
Ntp5684
Rp5685
(dp5686
g8
g5683
sg9
F0.0
sg10
g11
sg12
g11
sg13
g11
sg14
VAS3209
p5687
sg16
g11
sbsV177.9.216.250
p5688
g2
(g3
g4
Ntp5689
Rp5690
(dp5691
g8
V177.9.216.250
p5692
sg9
F0.0
sg10
g11
sg12
g11
sg13
g11
sg14
VAS27699
p5693
sg16
g11
sbsV217.92.197.98
p5694
g2
(g3
g4
Ntp5695
Rp5696
(dp5697
g8
g5694
sg9
F0.0
sg10
g11
sg12
g11
sg13
g11
sg14
VAS3320
p5698
sg16
g11
sbsV179.190.28.61
p5699
g2
(g3
g4
Ntp5700
Rp5701
(dp5702
g8
V179.190.28.61
p5703
sg9
F0.0
sg10
g11
sg12
g11
sg13
g11
sg14
VAS52925
p5704
sg16
g11
sbsV209.212.250.210
p5705
g2
(g3
g4
Ntp5706
Rp5707
(dp5708
g8
g5705
sg9
F0.0
sg10
g11
sg12
g11
sg13
g11
sg14
VAS30059
p5709
sg16
g11
sbsV40.87.66.201
p5710
g2
(g3
g4
Ntp5711
Rp5712
(dp5713
g8
V40.87.66.201
p5714
sg9
F0.0
sg10
g11
sg12
g11
sg13
g11
sg14
VAS8075
p5715
sg16
g11
sbsV123.30.110.185
p5716
g2
(g3
g4
Ntp5717
Rp5718
(dp5719
g8
V123.30.110.185
p5720
sg9
F0.0
sg10
g11
sg12
g11
sg13
g11
sg14
VAS45899
p5721
sg16
g11
sbsV200.89.183.250
p5722
g2
(g3
g4
Ntp5723
Rp5724
(dp5725
g8
V200.89.183.250
p5726
sg9
F0.0
sg10
g11
sg12
g11
sg13
g11
sg14
VAS10481
p5727
sg16
g11
sbsV206.193.219.150
p5728
g2
(g3
g4
Ntp5729
Rp5730
(dp5731
g8
V206.193.219.150
p5732
sg9
F0.0
sg10
g11
sg12
g11
sg13
g11
sg14
VAS11915
p5733
sg16
g11
sbsV85.152.4.140
p5734
g2
(g3
g4
Ntp5735
Rp5736
(dp5737
g8
V85.152.4.140
p5738
sg9
F0.0
sg10
g11
sg12
g11
sg13
g11
sg14
VAS12946
p5739
sg16
g11
sbsV186.194.224.105
p5740
g2
(g3
g4
Ntp5741
Rp5742
(dp5743
g8
V186.194.224.105
p5744
sg9
F0.0
sg10
g11
sg12
g11
sg13
g11
sg14
VAS53143
p5745
sg16
g11
sbsV186.195.80.77
p5746
g2
(g3
g4
Ntp5747
Rp5748
(dp5749
g8
V186.195.80.77
p5750
sg9
F0.0
sg10
g11
sg12
g11
sg13
g11
sg14
VAS263072
p5751
sg16
g11
sbsV212.20.68.52
p5752
g2
(g3
g4
Ntp5753
Rp5754
(dp5755
g8
V212.20.68.52
p5756
sg9
F0.0
sg10
g11
sg12
g11
sg13
g11
sg14
VAS8913
p5757
sg16
g11
sbsV95.84.168.137
p5758
g2
(g3
g4
Ntp5759
Rp5760
(dp5761
g8
g5758
sg9
F0.0
sg10
g11
sg12
g11
sg13
g11
sg14
VAS42610
p5762
sg16
g11
sbsV84.192.114.213
p5763
g2
(g3
g4
Ntp5764
Rp5765
(dp5766
g8
V84.192.114.213
p5767
sg9
F0.0
sg10
g11
sg12
g11
sg13
g11
sg14
VAS6848
p5768
sg16
g11
sbsV120.131.8.223
p5769
g2
(g3
g4
Ntp5770
Rp5771
(dp5772
g8
V120.131.8.223
p5773
sg9
F0.0
sg10
g11
sg12
g11
sg13
g11
sg14
VAS59019
p5774
sg16
g11
sbsV223.197.230.192
p5775
g2
(g3
g4
Ntp5776
Rp5777
(dp5778
g8
V223.197.230.192
p5779
sg9
F0.0
sg10
g11
sg12
g11
sg13
g11
sg14
VAS4760
p5780
sg16
g11
sbsV58.152.110.97
p5781
g2
(g3
g4
Ntp5782
Rp5783
(dp5784
g8
V58.152.110.97
p5785
sg9
F0.0
sg10
g11
sg12
g11
sg13
g11
sg14
VAS4760
p5786
sg16
g11
sbsV216.161.180.151
p5787
g2
(g3
g4
Ntp5788
Rp5789
(dp5790
g8
V216.161.180.151
p5791
sg9
F0.0
sg10
g11
sg12
g11
sg13
g11
sg14
VAS209
p5792
sg16
g11
sbsV167.61.183.235
p5793
g2
(g3
g4
Ntp5794
Rp5795
(dp5796
g8
g5793
sg9
F0.0
sg10
g11
sg12
g11
sg13
g11
sg14
VAS6057
p5797
sg16
g11
sbsV88.141.144.193
p5798
g2
(g3
g4
Ntp5799
Rp5800
(dp5801
g8
V88.141.144.193
p5802
sg9
F0.0
sg10
g11
sg12
g11
sg13
g11
sg14
VAS8228
p5803
sg16
g11
sbsV88.248.105.6
p5804
g2
(g3
g4
Ntp5805
Rp5806
(dp5807
g8
V88.248.105.6
p5808
sg9
F0.0
sg10
g11
sg12
g11
sg13
g11
sg14
VAS9121
p5809
sg16
g11
sbsV88.212.11.111
p5810
g2
(g3
g4
Ntp5811
Rp5812
(dp5813
g8
V88.212.11.111
p5814
sg9
F0.0
sg10
g11
sg12
g11
sg13
g11
sg14
VAS42841
p5815
sg16
g11
sbsV188.231.1.236
p5816
g2
(g3
g4
Ntp5817
Rp5818
(dp5819
g8
V188.231.1.236
p5820
sg9
F0.0
sg10
g11
sg12
g11
sg13
g11
sg14
VAS24627
p5821
sg16
g11
sbsV159.224.64.125
p5822
g2
(g3
g4
Ntp5823
Rp5824
(dp5825
g8
g5822
sg9
F0.0
sg10
g11
sg12
g11
sg13
g11
sg14
VAS13188
p5826
sg16
g11
sbsV217.12.181.173
p5827
g2
(g3
g4
Ntp5828
Rp5829
(dp5830
g8
V217.12.181.173
p5831
sg9
F0.0
sg10
g11
sg12
g11
sg13
g11
sg14
VAS3302
p5832
sg16
g11
sbsV117.56.165.243
p5833
g2
(g3
g4
Ntp5834
Rp5835
(dp5836
g8
g5833
sg9
F0.0
sg10
g11
sg12
g11
sg13
g11
sg14
VAS4782
p5837
sg16
g11
sbsV177.39.55.164
p5838
g2
(g3
g4
Ntp5839
Rp5840
(dp5841
g8
V177.39.55.164
p5842
sg9
F0.0
sg10
g11
sg12
g11
sg13
g11
sg14
VAS52976
p5843
sg16
g11
sbsV104.196.211.133
p5844
g2
(g3
g4
Ntp5845
Rp5846
(dp5847
g8
V104.196.211.133
p5848
sg9
F0.0
sg10
g11
sg12
g11
sg13
g11
sg14
VAS15169
p5849
sg16
g11
sbsV223.197.160.87
p5850
g2
(g3
g4
Ntp5851
Rp5852
(dp5853
g8
V223.197.160.87
p5854
sg9
F0.0
sg10
g11
sg12
g11
sg13
g11
sg14
VAS4760
p5855
sg16
g11
sbsV186.54.191.107
p5856
g2
(g3
g4
Ntp5857
Rp5858
(dp5859
g8
g5856
sg9
F0.0
sg10
g11
sg12
g11
sg13
g11
sg14
VAS6057
p5860
sg16
g11
sbsV219.76.132.93
p5861
g2
(g3
g4
Ntp5862
Rp5863
(dp5864
g8
V219.76.132.93
p5865
sg9
F0.0
sg10
g11
sg12
g11
sg13
g11
sg14
VAS4760
p5866
sg16
g11
sbsV12.43.127.202
p5867
g2
(g3
g4
Ntp5868
Rp5869
(dp5870
g8
V12.43.127.202
p5871
sg9
F0.0
sg10
g11
sg12
g11
sg13
g11
sg14
VAS7018
p5872
sg16
g11
sbsV64.9.29.41
p5873
g2
(g3
g4
Ntp5874
Rp5875
(dp5876
g8
g5873
sg9
F0.0
sg10
g11
sg12
g11
sg13
g11
sg14
VAS3356
p5877
sg16
g11
sbsV78.188.171.101
p5878
g2
(g3
g4
Ntp5879
Rp5880
(dp5881
g8
V78.188.171.101
p5882
sg9
F0.0
sg10
g11
sg12
g11
sg13
g11
sg14
VAS9121
p5883
sg16
g11
sbsV208.178.179.5
p5884
g2
(g3
g4
Ntp5885
Rp5886
(dp5887
g8
V208.178.179.5
p5888
sg9
F0.0
sg10
g11
sg12
g11
sg13
g11
sg14
VAS3549
p5889
sg16
g11
sbsV218.103.35.127
p5890
g2
(g3
g4
Ntp5891
Rp5892
(dp5893
g8
g5890
sg9
F0.0
sg10
g11
sg12
g11
sg13
g11
sg14
VAS4760
p5894
sg16
g11
sbsV45.79.149.59
p5895
g2
(g3
g4
Ntp5896
Rp5897
(dp5898
g8
V45.79.149.59
p5899
sg9
F0.0
sg10
g11
sg12
g11
sg13
g11
sg14
VAS63949
p5900
sg16
g11
sbsV165.255.184.141
p5901
g2
(g3
g4
Ntp5902
Rp5903
(dp5904
g8
V165.255.184.141
p5905
sg9
F0.0
sg10
g11
sg12
g11
sg13
g11
sg14
VAS37611
p5906
sg16
g11
sbsV184.61.25.97
p5907
g2
(g3
g4
Ntp5908
Rp5909
(dp5910
g8
V184.61.25.97
p5911
sg9
F0.0
sg10
g11
sg12
g11
sg13
g11
sg14
VAS4181
p5912
sg16
g11
sbsV85.13.240.85
p5913
g2
(g3
g4
Ntp5914
Rp5915
(dp5916
g8
V85.13.240.85
p5917
sg9
F0.0
sg10
g11
sg12
g11
sg13
g11
sg14
VAS31708
p5918
sg16
g11
sbsV173.33.109.52
p5919
g2
(g3
g4
Ntp5920
Rp5921
(dp5922
g8
g5919
sg9
F0.0
sg10
g11
sg12
g11
sg13
g11
sg14
VAS812
p5923
sg16
g11
sbsV79.226.115.105
p5924
g2
(g3
g4
Ntp5925
Rp5926
(dp5927
g8
g5924
sg9
F0.0
sg10
g11
sg12
g11
sg13
g11
sg14
VAS3320
p5928
sg16
g11
sbsV85.13.240.86
p5929
g2
(g3
g4
Ntp5930
Rp5931
(dp5932
g8
V85.13.240.86
p5933
sg9
F0.0
sg10
g11
sg12
g11
sg13
g11
sg14
VAS31708
p5934
sg16
g11
sbsV54.70.1.113
p5935
g2
(g3
g4
Ntp5936
Rp5937
(dp5938
g8
V54.70.1.113
p5939
sg9
F0.0
sg10
g11
sg12
g11
sg13
g11
sg14
VAS16509
p5940
sg16
g11
sbsV185.7.254.33
p5941
g2
(g3
g4
Ntp5942
Rp5943
(dp5944
g8
V185.7.254.33
p5945
sg9
F0.0
sg10
g11
sg12
g11
sg13
g11
sg14
VAS61189
p5946
sg16
g11
sbsV95.183.198.131
p5947
g2
(g3
g4
Ntp5948
Rp5949
(dp5950
g8
V95.183.198.131
p5951
sg9
F0.0
sg10
g11
sg12
g11
sg13
g11
sg14
VAS8517
p5952
sg16
g11
sbsV171.34.78.113
p5953
g2
(g3
g4
Ntp5954
Rp5955
(dp5956
g8
V171.34.78.113
p5957
sg9
F0.0
sg10
g11
sg12
g11
sg13
g11
sg14
VAS4837
p5958
sg16
g11
sbsV88.96.62.137
p5959
g2
(g3
g4
Ntp5960
Rp5961
(dp5962
g8
V88.96.62.137
p5963
sg9
F0.0
sg10
g11
sg12
g11
sg13
g11
sg14
VAS13037
p5964
sg16
g11
sbsV200.33.31.116
p5965
g2
(g3
g4
Ntp5966
Rp5967
(dp5968
g8
V200.33.31.116
p5969
sg9
F0.0
sg10
g11
sg12
g11
sg13
g11
sg14
VAS21692
p5970
sg16
g11
sbsV80.28.115.195
p5971
g2
(g3
g4
Ntp5972
Rp5973
(dp5974
g8
V80.28.115.195
p5975
sg9
F0.0
sg10
g11
sg12
g11
sg13
g11
sg14
VAS3352
p5976
sg16
g11
sbsV84.160.124.49
p5977
g2
(g3
g4
Ntp5978
Rp5979
(dp5980
g8
g5977
sg9
F0.0
sg10
g11
sg12
g11
sg13
g11
sg14
VAS3320
p5981
sg16
g11
sbsV181.47.24.241
p5982
g2
(g3
g4
Ntp5983
Rp5984
(dp5985
g8
V181.47.24.241
p5986
sg9
F0.0
sg10
g11
sg12
g11
sg13
g11
sg14
VAS27747
p5987
sg16
g11
sbsV188.165.233.145
p5988
g2
(g3
g4
Ntp5989
Rp5990
(dp5991
g8
g5988
sg9
F0.0
sg10
g11
sg12
g11
sg13
g11
sg14
VAS16276
p5992
sg16
g11
sbsV118.200.151.157
p5993
g2
(g3
g4
Ntp5994
Rp5995
(dp5996
g8
V118.200.151.157
p5997
sg9
F0.0
sg10
g11
sg12
g11
sg13
g11
sg14
VAS9506
p5998
sg16
g11
sbsV51.254.135.114
p5999
g2
(g3
g4
Ntp6000
Rp6001
(dp6002
g8
V51.254.135.114
p6003
sg9
F0.0
sg10
g11
sg12
g11
sg13
g11
sg14
VAS16276
p6004
sg16
g11
sbsV216.53.206.228
p6005
g2
(g3
g4
Ntp6006
Rp6007
(dp6008
g8
V216.53.206.228
p6009
sg9
F0.0
sg10
g11
sg12
g11
sg13
g11
sg14
VAS14288
p6010
sg16
g11
sbsV212.18.43.107
p6011
g2
(g3
g4
Ntp6012
Rp6013
(dp6014
g8
V212.18.43.107
p6015
sg9
F0.0
sg10
g11
sg12
g11
sg13
g11
sg14
VAS8591
p6016
sg16
g11
sbsV212.175.88.249
p6017
g2
(g3
g4
Ntp6018
Rp6019
(dp6020
g8
V212.175.88.249
p6021
sg9
F0.0
sg10
g11
sg12
g11
sg13
g11
sg14
VAS9121
p6022
sg16
g11
sbsV104.169.27.130
p6023
g2
(g3
g4
Ntp6024
Rp6025
(dp6026
g8
V104.169.27.130
p6027
sg9
F0.0
sg10
g11
sg12
g11
sg13
g11
sg14
VAS5650
p6028
sg16
g11
sbsV198.20.116.236
p6029
g2
(g3
g4
Ntp6030
Rp6031
(dp6032
g8
g6029
sg9
F0.0
sg10
g11
sg12
g11
sg13
g11
sg14
VAS32475
p6033
sg16
g11
sbsV69.127.113.50
p6034
g2
(g3
g4
Ntp6035
Rp6036
(dp6037
g8
V69.127.113.50
p6038
sg9
F0.0
sg10
g11
sg12
g11
sg13
g11
sg14
VAS6128
p6039
sg16
g11
sbsV77.43.77.237
p6040
g2
(g3
g4
Ntp6041
Rp6042
(dp6043
g8
V77.43.77.237
p6044
sg9
F0.0
sg10
g11
sg12
g11
sg13
g11
sg14
VAS5396
p6045
sg16
g11
sbsV79.165.255.27
p6046
g2
(g3
g4
Ntp6047
Rp6048
(dp6049
g8
g6046
sg9
F0.0
sg10
g11
sg12
g11
sg13
g11
sg14
VAS8615
p6050
sg16
g11
sbsV217.173.65.34
p6051
g2
(g3
g4
Ntp6052
Rp6053
(dp6054
g8
g6051
sg9
F0.0
sg10
g11
sg12
g11
sg13
g11
sg14
VAS8595
p6055
sg16
g11
sbsV223.197.237.233
p6056
g2
(g3
g4
Ntp6057
Rp6058
(dp6059
g8
V223.197.237.233
p6060
sg9
F0.0
sg10
g11
sg12
g11
sg13
g11
sg14
VAS4760
p6061
sg16
g11
sbsV177.36.9.50
p6062
g2
(g3
g4
Ntp6063
Rp6064
(dp6065
g8
V177.36.9.50
p6066
sg9
F0.0
sg10
g11
sg12
g11
sg13
g11
sg14
VAS52965
p6067
sg16
g11
sbsV78.134.111.19
p6068
g2
(g3
g4
Ntp6069
Rp6070
(dp6071
g8
g6068
sg9
F0.0
sg10
g11
sg12
g11
sg13
g11
sg14
VAS35612
p6072
sg16
g11
sbsV190.144.124.75
p6073
g2
(g3
g4
Ntp6074
Rp6075
(dp6076
g8
V190.144.124.75
p6077
sg9
F0.0
sg10
g11
sg12
g11
sg13
g11
sg14
VAS14080
p6078
sg16
g11
sbsV79.220.139.192
p6079
g2
(g3
g4
Ntp6080
Rp6081
(dp6082
g8
V79.220.139.192
p6083
sg9
F0.0
sg10
g11
sg12
g11
sg13
g11
sg14
VAS3320
p6084
sg16
g11
sbsV52.3.210.82
p6085
g2
(g3
g4
Ntp6086
Rp6087
(dp6088
g8
V52.3.210.82
p6089
sg9
F0.0
sg10
g11
sg12
g11
sg13
g11
sg14
VAS14618
p6090
sg16
g11
sbsV104.196.219.48
p6091
g2
(g3
g4
Ntp6092
Rp6093
(dp6094
g8
V104.196.219.48
p6095
sg9
F0.0
sg10
g11
sg12
g11
sg13
g11
sg14
VAS15169
p6096
sg16
g11
sbsV210.242.68.145
p6097
g2
(g3
g4
Ntp6098
Rp6099
(dp6100
g8
V210.242.68.145
p6101
sg9
F0.0
sg10
g11
sg12
g11
sg13
g11
sg14
VAS3462
p6102
sg16
g11
sbsV222.33.46.114
p6103
g2
(g3
g4
Ntp6104
Rp6105
(dp6106
g8
V222.33.46.114
p6107
sg9
F0.0
sg10
g11
sg12
g11
sg13
g11
sg14
VAS9394
p6108
sg16
g11
sbsV78.187.238.29
p6109
g2
(g3
g4
Ntp6110
Rp6111
(dp6112
g8
V78.187.238.29
p6113
sg9
F0.0
sg10
g11
sg12
g11
sg13
g11
sg14
VAS9121
p6114
sg16
g11
sbsV117.3.70.65
p6115
g2
(g3
g4
Ntp6116
Rp6117
(dp6118
g8
V117.3.70.65
p6119
sg9
F0.0
sg10
g11
sg12
g11
sg13
g11
sg14
VAS7552
p6120
sg16
g11
sbsV178.156.171.19
p6121
g2
(g3
g4
Ntp6122
Rp6123
(dp6124
g8
V178.156.171.19
p6125
sg9
F0.0
sg10
g11
sg12
g11
sg13
g11
sg14
VAS35584
p6126
sg16
g11
sbsV98.23.186.166
p6127
g2
(g3
g4
Ntp6128
Rp6129
(dp6130
g8
V98.23.186.166
p6131
sg9
F0.0
sg10
g11
sg12
g11
sg13
g11
sg14
VAS7029
p6132
sg16
g11
sbsV177.86.0.214
p6133
g2
(g3
g4
Ntp6134
Rp6135
(dp6136
g8
g6133
sg9
F0.0
sg10
g11
sg12
g11
sg13
g11
sg14
VAS262619
p6137
sg16
g11
sbsV50.77.152.10
p6138
g2
(g3
g4
Ntp6139
Rp6140
(dp6141
g8
g6138
sg9
F0.0
sg10
g11
sg12
g11
sg13
g11
sg14
VAS7922
p6142
sg16
g11
sbsV87.118.66.17
p6143
g2
(g3
g4
Ntp6144
Rp6145
(dp6146
g8
g6143
sg9
F0.0
sg10
g11
sg12
g11
sg13
g11
sg14
VAS31103
p6147
sg16
g11
sbsV186.4.186.124
p6148
g2
(g3
g4
Ntp6149
Rp6150
(dp6151
g8
V186.4.186.124
p6152
sg9
F0.0
sg10
g11
sg12
g11
sg13
g11
sg14
VAS52257
p6153
sg16
g11
sbsV27.114.136.149
p6154
g2
(g3
g4
Ntp6155
Rp6156
(dp6157
g8
V27.114.136.149
p6158
sg9
F0.0
sg10
g11
sg12
g11
sg13
g11
sg14
VAS7642
p6159
sg16
g11
sbsV78.37.124.252
p6160
g2
(g3
g4
Ntp6161
Rp6162
(dp6163
g8
V78.37.124.252
p6164
sg9
F0.0
sg10
g11
sg12
g11
sg13
g11
sg14
VAS8997
p6165
sg16
g11
sbsV176.97.57.116
p6166
g2
(g3
g4
Ntp6167
Rp6168
(dp6169
g8
g6166
sg9
F0.0
sg10
g11
sg12
g11
sg13
g11
sg14
VAS197738
p6170
sg16
g11
sbsV96.88.75.68
p6171
g2
(g3
g4
Ntp6172
Rp6173
(dp6174
g8
V96.88.75.68
p6175
sg9
F0.0
sg10
g11
sg12
g11
sg13
g11
sg14
VAS7922
p6176
sg16
g11
sbsV188.175.31.10
p6177
g2
(g3
g4
Ntp6178
Rp6179
(dp6180
g8
V188.175.31.10
p6181
sg9
F0.0
sg10
g11
sg12
g11
sg13
g11
sg14
VAS16246
p6182
sg16
g11
sbsV187.73.210.233
p6183
g2
(g3
g4
Ntp6184
Rp6185
(dp6186
g8
V187.73.210.233
p6187
sg9
F0.0
sg10
g11
sg12
g11
sg13
g11
sg14
VAS53054
p6188
sg16
g11
sbsV54.173.70.146
p6189
g2
(g3
g4
Ntp6190
Rp6191
(dp6192
g8
V54.173.70.146
p6193
sg9
F0.0
sg10
g11
sg12
g11
sg13
g11
sg14
VAS14618
p6194
sg16
g11
sbsV167.62.19.5
p6195
g2
(g3
g4
Ntp6196
Rp6197
(dp6198
g8
g6195
sg9
F0.0
sg10
g11
sg12
g11
sg13
g11
sg14
VAS6057
p6199
sg16
g11
sbsV13.90.249.3
p6200
g2
(g3
g4
Ntp6201
Rp6202
(dp6203
g8
g6200
sg9
F0.0
sg10
g11
sg12
g11
sg13
g11
sg14
VAS8075
p6204
sg16
g11
sbsV173.219.41.8
p6205
g2
(g3
g4
Ntp6206
Rp6207
(dp6208
g8
V173.219.41.8
p6209
sg9
F0.0
sg10
g11
sg12
g11
sg13
g11
sg14
VAS19108
p6210
sg16
g11
sbsV90.181.192.66
p6211
g2
(g3
g4
Ntp6212
Rp6213
(dp6214
g8
V90.181.192.66
p6215
sg9
F0.0
sg10
g11
sg12
g11
sg13
g11
sg14
VAS5610
p6216
sg16
g11
sbsV14.192.17.132
p6217
g2
(g3
g4
Ntp6218
Rp6219
(dp6220
g8
V14.192.17.132
p6221
sg9
F0.0
sg10
g11
sg12
g11
sg13
g11
sg14
VAS132717
p6222
sg16
g11
sbsV86.123.150.246
p6223
g2
(g3
g4
Ntp6224
Rp6225
(dp6226
g8
V86.123.150.246
p6227
sg9
F0.0
sg10
g11
sg12
g11
sg13
g11
sg14
VAS8708
p6228
sg16
g11
sbsV87.189.43.191
p6229
g2
(g3
g4
Ntp6230
Rp6231
(dp6232
g8
V87.189.43.191
p6233
sg9
F0.0
sg10
g11
sg12
g11
sg13
g11
sg14
VAS3320
p6234
sg16
g11
sbsV73.88.137.91
p6235
g2
(g3
g4
Ntp6236
Rp6237
(dp6238
g8
V73.88.137.91
p6239
sg9
F0.0
sg10
g11
sg12
g11
sg13
g11
sg14
VAS7922
p6240
sg16
g11
sbsV186.209.31.65
p6241
g2
(g3
g4
Ntp6242
Rp6243
(dp6244
g8
V186.209.31.65
p6245
sg9
F0.0
sg10
g11
sg12
g11
sg13
g11
sg14
VAS28343
p6246
sg16
g11
sbsV79.184.209.155
p6247
g2
(g3
g4
Ntp6248
Rp6249
(dp6250
g8
V79.184.209.155
p6251
sg9
F0.0
sg10
g11
sg12
g11
sg13
g11
sg14
VAS5617
p6252
sg16
g11
sbsV5.39.3.8
p6253
g2
(g3
g4
Ntp6254
Rp6255
(dp6256
g8
g6253
sg9
F0.0
sg10
g11
sg12
g11
sg13
g11
sg14
VAS16276
p6257
sg16
g11
sbsV86.123.150.247
p6258
g2
(g3
g4
Ntp6259
Rp6260
(dp6261
g8
V86.123.150.247
p6262
sg9
F0.0
sg10
g11
sg12
g11
sg13
g11
sg14
VAS8708
p6263
sg16
g11
sbsV191.178.34.21
p6264
g2
(g3
g4
Ntp6265
Rp6266
(dp6267
g8
V191.178.34.21
p6268
sg9
F0.0
sg10
g11
sg12
g11
sg13
g11
sg14
VAS28573
p6269
sg16
g11
sbsV73.10.109.228
p6270
g2
(g3
g4
Ntp6271
Rp6272
(dp6273
g8
V73.10.109.228
p6274
sg9
F0.0
sg10
g11
sg12
g11
sg13
g11
sg14
VAS7922
p6275
sg16
g11
sbsV23.249.100.91
p6276
g2
(g3
g4
Ntp6277
Rp6278
(dp6279
g8
g6276
sg9
F0.0
sg10
g11
sg12
g11
sg13
g11
sg14
VAS32732
p6280
sg16
g11
sbsV124.82.4.233
p6281
g2
(g3
g4
Ntp6282
Rp6283
(dp6284
g8
V124.82.4.233
p6285
sg9
F0.0
sg10
g11
sg12
g11
sg13
g11
sg14
VAS4788
p6286
sg16
g11
sbsV223.197.195.117
p6287
g2
(g3
g4
Ntp6288
Rp6289
(dp6290
g8
g6287
sg9
F0.0
sg10
g11
sg12
g11
sg13
g11
sg14
VAS4760
p6291
sg16
g11
sbsV169.50.202.156
p6292
g2
(g3
g4
Ntp6293
Rp6294
(dp6295
g8
V169.50.202.156
p6296
sg9
F0.0
sg10
g11
sg12
g11
sg13
g11
sg14
VAS36351
p6297
sg16
g11
sbsV185.110.20.35
p6298
g2
(g3
g4
Ntp6299
Rp6300
(dp6301
g8
V185.110.20.35
p6302
sg9
F0.0
sg10
g11
sg12
g11
sg13
g11
sg14
VAS12874
p6303
sg16
g11
sbsV42.3.253.74
p6304
g2
(g3
g4
Ntp6305
Rp6306
(dp6307
g8
g6304
sg9
F0.0
sg10
g11
sg12
g11
sg13
g11
sg14
VAS4760
p6308
sg16
g11
sbsV85.71.99.45
p6309
g2
(g3
g4
Ntp6310
Rp6311
(dp6312
g8
V85.71.99.45
p6313
sg9
F0.0
sg10
g11
sg12
g11
sg13
g11
sg14
VAS5610
p6314
sg16
g11
sbsV71.60.3.239
p6315
g2
(g3
g4
Ntp6316
Rp6317
(dp6318
g8
V71.60.3.239
p6319
sg9
F0.0
sg10
g11
sg12
g11
sg13
g11
sg14
VAS7922
p6320
sg16
g11
sbsV5.154.57.202
p6321
g2
(g3
g4
Ntp6322
Rp6323
(dp6324
g8
V5.154.57.202
p6325
sg9
F0.0
sg10
g11
sg12
g11
sg13
g11
sg14
VAS48427
p6326
sg16
g11
sbsV220.133.18.178
p6327
g2
(g3
g4
Ntp6328
Rp6329
(dp6330
g8
g6327
sg9
F0.0
sg10
g11
sg12
g11
sg13
g11
sg14
VAS3462
p6331
sg16
g11
sbsV93.104.47.89
p6332
g2
(g3
g4
Ntp6333
Rp6334
(dp6335
g8
V93.104.47.89
p6336
sg9
F0.0
sg10
g11
sg12
g11
sg13
g11
sg14
VAS8767
p6337
sg16
g11
sbsV62.33.39.71
p6338
g2
(g3
g4
Ntp6339
Rp6340
(dp6341
g8
V62.33.39.71
p6342
sg9
F0.0
sg10
g11
sg12
g11
sg13
g11
sg14
VAS20485
p6343
sg16
g11
sbsV78.187.24.144
p6344
g2
(g3
g4
Ntp6345
Rp6346
(dp6347
g8
V78.187.24.144
p6348
sg9
F0.0
sg10
g11
sg12
g11
sg13
g11
sg14
VAS9121
p6349
sg16
g11
sbsV182.150.24.10
p6350
g2
(g3
g4
Ntp6351
Rp6352
(dp6353
g8
V182.150.24.10
p6354
sg9
F0.0
sg10
g11
sg12
g11
sg13
g11
sg14
VAS4134
p6355
sg16
g11
sbsV54.67.47.149
p6356
g2
(g3
g4
Ntp6357
Rp6358
(dp6359
g8
V54.67.47.149
p6360
sg9
F0.0
sg10
g11
sg12
g11
sg13
g11
sg14
VAS16509
p6361
sg16
g11
sbsV187.109.97.114
p6362
g2
(g3
g4
Ntp6363
Rp6364
(dp6365
g8
V187.109.97.114
p6366
sg9
F0.0
sg10
g11
sg12
g11
sg13
g11
sg14
VAS28158
p6367
sg16
g11
sbsV74.194.195.239
p6368
g2
(g3
g4
Ntp6369
Rp6370
(dp6371
g8
V74.194.195.239
p6372
sg9
F0.0
sg10
g11
sg12
g11
sg13
g11
sg14
VAS19108
p6373
sg16
g11
sbsV200.46.249.101
p6374
g2
(g3
g4
Ntp6375
Rp6376
(dp6377
g8
V200.46.249.101
p6378
sg9
F0.0
sg10
g11
sg12
g11
sg13
g11
sg14
VAS21599
p6379
sg16
g11
sbsV116.48.155.164
p6380
g2
(g3
g4
Ntp6381
Rp6382
(dp6383
g8
V116.48.155.164
p6384
sg9
F0.0
sg10
g11
sg12
g11
sg13
g11
sg14
VAS4760
p6385
sg16
g11
sbsV82.77.200.118
p6386
g2
(g3
g4
Ntp6387
Rp6388
(dp6389
g8
V82.77.200.118
p6390
sg9
F0.0
sg10
g11
sg12
g11
sg13
g11
sg14
VAS8708
p6391
sg16
g11
sbsV199.96.0.20
p6392
g2
(g3
g4
Ntp6393
Rp6394
(dp6395
g8
V199.96.0.20
p6396
sg9
F0.0
sg10
g11
sg12
g11
sg13
g11
sg14
VAS19065
p6397
sg16
g11
sbsV209.5.230.242
p6398
g2
(g3
g4
Ntp6399
Rp6400
(dp6401
g8
V209.5.230.242
p6402
sg9
F0.0
sg10
g11
sg12
g11
sg13
g11
sg14
VAS812
p6403
sg16
g11
sbsV52.53.237.159
p6404
g2
(g3
g4
Ntp6405
Rp6406
(dp6407
g8
V52.53.237.159
p6408
sg9
F0.0
sg10
g11
sg12
g11
sg13
g11
sg14
VAS16509
p6409
sg16
g11
sbsV190.55.44.91
p6410
g2
(g3
g4
Ntp6411
Rp6412
(dp6413
g8
V190.55.44.91
p6414
sg9
F0.0
sg10
g11
sg12
g11
sg13
g11
sg14
VAS27747
p6415
sg16
g11
sbsV200.78.231.195
p6416
g2
(g3
g4
Ntp6417
Rp6418
(dp6419
g8
V200.78.231.195
p6420
sg9
F0.0
sg10
g11
sg12
g11
sg13
g11
sg14
VAS6503
p6421
sg16
g11
sbsV200.105.112.174
p6422
g2
(g3
g4
Ntp6423
Rp6424
(dp6425
g8
V200.105.112.174
p6426
sg9
F0.0
sg10
g11
sg12
g11
sg13
g11
sg14
VAS28058
p6427
sg16
g11
sbsV187.17.169.2
p6428
g2
(g3
g4
Ntp6429
Rp6430
(dp6431
g8
V187.17.169.2
p6432
sg9
F0.0
sg10
g11
sg12
g11
sg13
g11
sg14
VAS28263
p6433
sg16
g11
sbsV220.134.249.109
p6434
g2
(g3
g4
Ntp6435
Rp6436
(dp6437
g8
g6434
sg9
F0.0
sg10
g11
sg12
g11
sg13
g11
sg14
VAS3462
p6438
sg16
g11
sbsV177.12.226.242
p6439
g2
(g3
g4
Ntp6440
Rp6441
(dp6442
g8
V177.12.226.242
p6443
sg9
F0.0
sg10
g11
sg12
g11
sg13
g11
sg14
VAS61568
p6444
sg16
g11
sbsV186.137.97.40
p6445
g2
(g3
g4
Ntp6446
Rp6447
(dp6448
g8
V186.137.97.40
p6449
sg9
F0.0
sg10
g11
sg12
g11
sg13
g11
sg14
VAS10318
p6450
sg16
g11
sbsV187.60.52.96
p6451
g2
(g3
g4
Ntp6452
Rp6453
(dp6454
g8
V187.60.52.96
p6455
sg9
F0.0
sg10
g11
sg12
g11
sg13
g11
sg14
VAS28151
p6456
sg16
g11
sbsV196.6.103.210
p6457
g2
(g3
g4
Ntp6458
Rp6459
(dp6460
g8
V196.6.103.210
p6461
sg9
F0.0
sg10
g11
sg12
g11
sg13
g11
sg14
VAS37567
p6462
sg16
g11
sbsV220.132.185.167
p6463
g2
(g3
g4
Ntp6464
Rp6465
(dp6466
g8
V220.132.185.167
p6467
sg9
F0.0
sg10
g11
sg12
g11
sg13
g11
sg14
VAS3462
p6468
sg16
g11
sbsV187.19.10.43
p6469
g2
(g3
g4
Ntp6470
Rp6471
(dp6472
g8
V187.19.10.43
p6473
sg9
F0.0
sg10
g11
sg12
g11
sg13
g11
sg14
VAS28124
p6474
sg16
g11
sbsV179.190.28.244
p6475
g2
(g3
g4
Ntp6476
Rp6477
(dp6478
g8
g6475
sg9
F0.0
sg10
g11
sg12
g11
sg13
g11
sg14
VAS52925
p6479
sg16
g11
sbsV190.165.160.238
p6480
g2
(g3
g4
Ntp6481
Rp6482
(dp6483
g8
V190.165.160.238
p6484
sg9
F0.0
sg10
g11
sg12
g11
sg13
g11
sg14
VAS13489
p6485
sg16
g11
sbsV89.207.111.248
p6486
g2
(g3
g4
Ntp6487
Rp6488
(dp6489
g8
V89.207.111.248
p6490
sg9
F0.0
sg10
g11
sg12
g11
sg13
g11
sg14
VAS41160
p6491
sg16
g11
sbsV83.208.111.243
p6492
g2
(g3
g4
Ntp6493
Rp6494
(dp6495
g8
g6492
sg9
F0.0
sg10
g11
sg12
g11
sg13
g11
sg14
VAS5610
p6496
sg16
g11
sbsV185.10.114.91
p6497
g2
(g3
g4
Ntp6498
Rp6499
(dp6500
g8
V185.10.114.91
p6501
sg9
F0.0
sg10
g11
sg12
g11
sg13
g11
sg14
VAS29684
p6502
sg16
g11
sbsV50.7.99.74
p6503
g2
(g3
g4
Ntp6504
Rp6505
(dp6506
g8
V50.7.99.74
p6507
sg9
F0.0
sg10
g11
sg12
g11
sg13
g11
sg14
VAS174
p6508
sg16
g11
sbsV218.103.117.44
p6509
g2
(g3
g4
Ntp6510
Rp6511
(dp6512
g8
g6509
sg9
F0.0
sg10
g11
sg12
g11
sg13
g11
sg14
VAS4760
p6513
sg16
g11
sbsV45.79.130.94
p6514
g2
(g3
g4
Ntp6515
Rp6516
(dp6517
g8
g6514
sg9
F0.0
sg10
g11
sg12
g11
sg13
g11
sg14
VAS63949
p6518
sg16
g11
sbsV87.236.246.28
p6519
g2
(g3
g4
Ntp6520
Rp6521
(dp6522
g8
V87.236.246.28
p6523
sg9
F0.0
sg10
g11
sg12
g11
sg13
g11
sg14
VAS8426
p6524
sg16
g11
sbsV189.109.26.2
p6525
g2
(g3
g4
Ntp6526
Rp6527
(dp6528
g8
V189.109.26.2
p6529
sg9
F0.0
sg10
g11
sg12
g11
sg13
g11
sg14
VAS10429
p6530
sg16
g11
sbsV133.18.96.57
p6531
g2
(g3
g4
Ntp6532
Rp6533
(dp6534
g8
V133.18.96.57
p6535
sg9
F0.0
sg10
g11
sg12
g11
sg13
g11
sg14
VAS24282
p6536
sg16
g11
sbsV216.227.209.183
p6537
g2
(g3
g4
Ntp6538
Rp6539
(dp6540
g8
g6537
sg9
F0.0
sg10
g11
sg12
g11
sg13
g11
sg14
VAS15244
p6541
sg16
g11
sbsV72.38.5.89
p6542
g2
(g3
g4
Ntp6543
Rp6544
(dp6545
g8
g6542
sg9
F0.0
sg10
g11
sg12
g11
sg13
g11
sg14
VAS7992
p6546
sg16
g11
sbsV41.222.123.5
p6547
g2
(g3
g4
Ntp6548
Rp6549
(dp6550
g8
V41.222.123.5
p6551
sg9
F0.0
sg10
g11
sg12
g11
sg13
g11
sg14
VAS37511
p6552
sg16
g11
sbsV112.120.67.249
p6553
g2
(g3
g4
Ntp6554
Rp6555
(dp6556
g8
V112.120.67.249
p6557
sg9
F0.0
sg10
g11
sg12
g11
sg13
g11
sg14
VAS4760
p6558
sg16
g11
sbsV179.184.44.116
p6559
g2
(g3
g4
Ntp6560
Rp6561
(dp6562
g8
V179.184.44.116
p6563
sg9
F0.0
sg10
g11
sg12
g11
sg13
g11
sg14
VAS18881
p6564
sg16
g11
sbsV187.62.208.107
p6565
g2
(g3
g4
Ntp6566
Rp6567
(dp6568
g8
V187.62.208.107
p6569
sg9
F0.0
sg10
g11
sg12
g11
sg13
g11
sg14
VAS28165
p6570
sg16
g11
sbsV210.86.138.4
p6571
g2
(g3
g4
Ntp6572
Rp6573
(dp6574
g8
V210.86.138.4
p6575
sg9
F0.0
sg10
g11
sg12
g11
sg13
g11
sg14
VAS7470
p6576
sg16
g11
sbsV24.55.207.34
p6577
g2
(g3
g4
Ntp6578
Rp6579
(dp6580
g8
g6577
sg9
F0.0
sg10
g11
sg12
g11
sg13
g11
sg14
VAS7992
p6581
sg16
g11
sbsV31.215.94.124
p6582
g2
(g3
g4
Ntp6583
Rp6584
(dp6585
g8
g6582
sg9
F0.0
sg10
g11
sg12
g11
sg13
g11
sg14
VAS5384
p6586
sg16
g11
sbsV223.197.239.80
p6587
g2
(g3
g4
Ntp6588
Rp6589
(dp6590
g8
V223.197.239.80
p6591
sg9
F0.0
sg10
g11
sg12
g11
sg13
g11
sg14
VAS4760
p6592
sg16
g11
sbsV54.202.181.129
p6593
g2
(g3
g4
Ntp6594
Rp6595
(dp6596
g8
V54.202.181.129
p6597
sg9
F0.0
sg10
g11
sg12
g11
sg13
g11
sg14
VAS16509
p6598
sg16
g11
sbsV42.200.192.128
p6599
g2
(g3
g4
Ntp6600
Rp6601
(dp6602
g8
V42.200.192.128
p6603
sg9
F0.0
sg10
g11
sg12
g11
sg13
g11
sg14
VAS4760
p6604
sg16
g11
sbsV217.248.78.21
p6605
g2
(g3
g4
Ntp6606
Rp6607
(dp6608
g8
V217.248.78.21
p6609
sg9
F0.0
sg10
g11
sg12
g11
sg13
g11
sg14
VAS3320
p6610
sg16
g11
sbsV98.174.175.34
p6611
g2
(g3
g4
Ntp6612
Rp6613
(dp6614
g8
V98.174.175.34
p6615
sg9
F0.0
sg10
g11
sg12
g11
sg13
g11
sg14
VAS22773
p6616
sg16
g11
sbsV173.231.129.196
p6617
g2
(g3
g4
Ntp6618
Rp6619
(dp6620
g8
V173.231.129.196
p6621
sg9
F0.0
sg10
g11
sg12
g11
sg13
g11
sg14
VAS29791
p6622
sg16
g11
sbsV173.231.129.197
p6623
g2
(g3
g4
Ntp6624
Rp6625
(dp6626
g8
V173.231.129.197
p6627
sg9
F0.0
sg10
g11
sg12
g11
sg13
g11
sg14
VAS29791
p6628
sg16
g11
sbsV195.227.96.126
p6629
g2
(g3
g4
Ntp6630
Rp6631
(dp6632
g8
V195.227.96.126
p6633
sg9
F0.0
sg10
g11
sg12
g11
sg13
g11
sg14
VAS8469
p6634
sg16
g11
sbsV67.113.123.61
p6635
g2
(g3
g4
Ntp6636
Rp6637
(dp6638
g8
V67.113.123.61
p6639
sg9
F0.0
sg10
g11
sg12
g11
sg13
g11
sg14
VAS7018
p6640
sg16
g11
sbsV173.231.129.192
p6641
g2
(g3
g4
Ntp6642
Rp6643
(dp6644
g8
V173.231.129.192
p6645
sg9
F0.0
sg10
g11
sg12
g11
sg13
g11
sg14
VAS29791
p6646
sg16
g11
sbsV218.103.112.97
p6647
g2
(g3
g4
Ntp6648
Rp6649
(dp6650
g8
V218.103.112.97
p6651
sg9
F0.0
sg10
g11
sg12
g11
sg13
g11
sg14
VAS4760
p6652
sg16
g11
sbsV200.206.219.9
p6653
g2
(g3
g4
Ntp6654
Rp6655
(dp6656
g8
g6653
sg9
F0.0
sg10
g11
sg12
g11
sg13
g11
sg14
VAS27699
p6657
sg16
g11
sbsV190.57.239.66
p6658
g2
(g3
g4
Ntp6659
Rp6660
(dp6661
g8
V190.57.239.66
p6662
sg9
F0.0
sg10
g11
sg12
g11
sg13
g11
sg14
VAS20207
p6663
sg16
g11
sbsV62.4.22.242
p6664
g2
(g3
g4
Ntp6665
Rp6666
(dp6667
g8
V62.4.22.242
p6668
sg9
F0.0
sg10
g11
sg12
g11
sg13
g11
sg14
VAS12876
p6669
sg16
g11
sbsV81.171.251.114
p6670
g2
(g3
g4
Ntp6671
Rp6672
(dp6673
g8
V81.171.251.114
p6674
sg9
F0.0
sg10
g11
sg12
g11
sg13
g11
sg14
VAS8426
p6675
sg16
g11
sbsV210.208.104.163
p6676
g2
(g3
g4
Ntp6677
Rp6678
(dp6679
g8
V210.208.104.163
p6680
sg9
F0.0
sg10
g11
sg12
g11
sg13
g11
sg14
VAS9924
p6681
sg16
g11
sbsV183.88.84.125
p6682
g2
(g3
g4
Ntp6683
Rp6684
(dp6685
g8
V183.88.84.125
p6686
sg9
F0.0
sg10
g11
sg12
g11
sg13
g11
sg14
VAS45758
p6687
sg16
g11
sbsV219.76.176.66
p6688
g2
(g3
g4
Ntp6689
Rp6690
(dp6691
g8
V219.76.176.66
p6692
sg9
F0.0
sg10
g11
sg12
g11
sg13
g11
sg14
VAS4760
p6693
sg16
g11
sbsV220.246.79.113
p6694
g2
(g3
g4
Ntp6695
Rp6696
(dp6697
g8
V220.246.79.113
p6698
sg9
F0.0
sg10
g11
sg12
g11
sg13
g11
sg14
VAS4760
p6699
sg16
g11
sbsV42.200.198.229
p6700
g2
(g3
g4
Ntp6701
Rp6702
(dp6703
g8
V42.200.198.229
p6704
sg9
F0.0
sg10
g11
sg12
g11
sg13
g11
sg14
VAS4760
p6705
sg16
g11
sbsV80.96.122.50
p6706
g2
(g3
g4
Ntp6707
Rp6708
(dp6709
g8
g6706
sg9
F0.0
sg10
g11
sg12
g11
sg13
g11
sg14
VAS2614
p6710
sg16
g11
sbsV223.197.185.214
p6711
g2
(g3
g4
Ntp6712
Rp6713
(dp6714
g8
g6711
sg9
F0.0
sg10
g11
sg12
g11
sg13
g11
sg14
VAS4760
p6715
sg16
g11
sbsV142.51.236.42
p6716
g2
(g3
g4
Ntp6717
Rp6718
(dp6719
g8
g6716
sg9
F0.0
sg10
g11
sg12
g11
sg13
g11
sg14
VAS5690
p6720
sg16
g11
sbsV42.200.249.73
p6721
g2
(g3
g4
Ntp6722
Rp6723
(dp6724
g8
V42.200.249.73
p6725
sg9
F0.0
sg10
g11
sg12
g11
sg13
g11
sg14
VAS4760
p6726
sg16
g11
sbsV91.176.214.51
p6727
g2
(g3
g4
Ntp6728
Rp6729
(dp6730
g8
V91.176.214.51
p6731
sg9
F0.0
sg10
g11
sg12
g11
sg13
g11
sg14
VAS5432
p6732
sg16
g11
sbsV129.170.224.246
p6733
g2
(g3
g4
Ntp6734
Rp6735
(dp6736
g8
V129.170.224.246
p6737
sg9
F0.0
sg10
g11
sg12
g11
sg13
g11
sg14
VAS10755
p6738
sg16
g11
sbsV138.68.230.99
p6739
g2
(g3
g4
Ntp6740
Rp6741
(dp6742
g8
V138.68.230.99
p6743
sg9
F0.0
sg10
g11
sg12
g11
sg13
g11
sg14
VAS14061
p6744
sg16
g11
sbsV189.152.73.68
p6745
g2
(g3
g4
Ntp6746
Rp6747
(dp6748
g8
V189.152.73.68
p6749
sg9
F0.0
sg10
g11
sg12
g11
sg13
g11
sg14
VAS8151
p6750
sg16
g11
sbsV116.48.151.183
p6751
g2
(g3
g4
Ntp6752
Rp6753
(dp6754
g8
V116.48.151.183
p6755
sg9
F0.0
sg10
g11
sg12
g11
sg13
g11
sg14
VAS4760
p6756
sg16
g11
sbsV203.198.248.151
p6757
g2
(g3
g4
Ntp6758
Rp6759
(dp6760
g8
V203.198.248.151
p6761
sg9
F0.0
sg10
g11
sg12
g11
sg13
g11
sg14
VAS4760
p6762
sg16
g11
sbsV194.2.32.24
p6763
g2
(g3
g4
Ntp6764
Rp6765
(dp6766
g8
V194.2.32.24
p6767
sg9
F0.0
sg10
g11
sg12
g11
sg13
g11
sg14
VAS3215
p6768
sg16
g11
sbsV64.182.168.120
p6769
g2
(g3
g4
Ntp6770
Rp6771
(dp6772
g8
g6769
sg9
F0.0
sg10
g11
sg12
g11
sg13
g11
sg14
VAS54489
p6773
sg16
g11
sbsV223.197.182.23
p6774
g2
(g3
g4
Ntp6775
Rp6776
(dp6777
g8
V223.197.182.23
p6778
sg9
F0.0
sg10
g11
sg12
g11
sg13
g11
sg14
VAS4760
p6779
sg16
g11
sbsV206.16.57.55
p6780
g2
(g3
g4
Ntp6781
Rp6782
(dp6783
g8
V206.16.57.55
p6784
sg9
F0.0
sg10
g11
sg12
g11
sg13
g11
sg14
VAS17227
p6785
sg16
g11
sbsV45.52.3.125
p6786
g2
(g3
g4
Ntp6787
Rp6788
(dp6789
g8
V45.52.3.125
p6790
sg9
F0.0
sg10
g11
sg12
g11
sg13
g11
sg14
VAS5650
p6791
sg16
g11
sbsV212.175.88.252
p6792
g2
(g3
g4
Ntp6793
Rp6794
(dp6795
g8
V212.175.88.252
p6796
sg9
F0.0
sg10
g11
sg12
g11
sg13
g11
sg14
VAS9121
p6797
sg16
g11
sbsV91.191.151.101
p6798
g2
(g3
g4
Ntp6799
Rp6800
(dp6801
g8
g6798
sg9
F0.0
sg10
g11
sg12
g11
sg13
g11
sg14
VAS35393
p6802
sg16
g11
sbsV94.231.104.182
p6803
g2
(g3
g4
Ntp6804
Rp6805
(dp6806
g8
V94.231.104.182
p6807
sg9
F0.0
sg10
g11
sg12
g11
sg13
g11
sg14
VAS48854
p6808
sg16
g11
sbsV62.210.72.150
p6809
g2
(g3
g4
Ntp6810
Rp6811
(dp6812
g8
V62.210.72.150
p6813
sg9
F0.0
sg10
g11
sg12
g11
sg13
g11
sg14
VAS12876
p6814
sg16
g11
sbsV191.115.133.173
p6815
g2
(g3
g4
Ntp6816
Rp6817
(dp6818
g8
V191.115.133.173
p6819
sg9
F0.0
sg10
g11
sg12
g11
sg13
g11
sg14
VAS7418
p6820
sg16
g11
sbsV98.23.186.174
p6821
g2
(g3
g4
Ntp6822
Rp6823
(dp6824
g8
V98.23.186.174
p6825
sg9
F0.0
sg10
g11
sg12
g11
sg13
g11
sg14
VAS7029
p6826
sg16
g11
sbsV98.23.186.175
p6827
g2
(g3
g4
Ntp6828
Rp6829
(dp6830
g8
V98.23.186.175
p6831
sg9
F0.0
sg10
g11
sg12
g11
sg13
g11
sg14
VAS7029
p6832
sg16
g11
sbsV109.167.58.40
p6833
g2
(g3
g4
Ntp6834
Rp6835
(dp6836
g8
V109.167.58.40
p6837
sg9
F0.0
sg10
g11
sg12
g11
sg13
g11
sg14
VAS48427
p6838
sg16
g11
sbsV200.162.141.243
p6839
g2
(g3
g4
Ntp6840
Rp6841
(dp6842
g8
V200.162.141.243
p6843
sg9
F0.0
sg10
g11
sg12
g11
sg13
g11
sg14
VAS22177
p6844
sg16
g11
sbsV220.246.41.48
p6845
g2
(g3
g4
Ntp6846
Rp6847
(dp6848
g8
V220.246.41.48
p6849
sg9
F0.0
sg10
g11
sg12
g11
sg13
g11
sg14
VAS4760
p6850
sg16
g11
sbsV98.23.186.171
p6851
g2
(g3
g4
Ntp6852
Rp6853
(dp6854
g8
V98.23.186.171
p6855
sg9
F0.0
sg10
g11
sg12
g11
sg13
g11
sg14
VAS7029
p6856
sg16
g11
sbsV98.23.186.172
p6857
g2
(g3
g4
Ntp6858
Rp6859
(dp6860
g8
V98.23.186.172
p6861
sg9
F0.0
sg10
g11
sg12
g11
sg13
g11
sg14
VAS7029
p6862
sg16
g11
sbsV207.204.86.156
p6863
g2
(g3
g4
Ntp6864
Rp6865
(dp6866
g8
V207.204.86.156
p6867
sg9
F0.0
sg10
g11
sg12
g11
sg13
g11
sg14
VAS30689
p6868
sg16
g11
sbsV72.67.86.15
p6869
g2
(g3
g4
Ntp6870
Rp6871
(dp6872
g8
g6869
sg9
F0.0
sg10
g11
sg12
g11
sg13
g11
sg14
VAS5650
p6873
sg16
g11
sbsV92.249.74.160
p6874
g2
(g3
g4
Ntp6875
Rp6876
(dp6877
g8
V92.249.74.160
p6878
sg9
F0.0
sg10
g11
sg12
g11
sg13
g11
sg14
VAS29107
p6879
sg16
g11
sbsV189.212.167.173
p6880
g2
(g3
g4
Ntp6881
Rp6882
(dp6883
g8
V189.212.167.173
p6884
sg9
F0.0
sg10
g11
sg12
g11
sg13
g11
sg14
VAS6503
p6885
sg16
g11
sbsV104.47.153.25
p6886
g2
(g3
g4
Ntp6887
Rp6888
(dp6889
g8
V104.47.153.25
p6890
sg9
F0.0
sg10
g11
sg12
g11
sg13
g11
sg14
VAS8075
p6891
sg16
g11
sbsV86.126.87.104
p6892
g2
(g3
g4
Ntp6893
Rp6894
(dp6895
g8
V86.126.87.104
p6896
sg9
F0.0
sg10
g11
sg12
g11
sg13
g11
sg14
VAS8708
p6897
sg16
g11
sbsV199.6.26.56
p6898
g2
(g3
g4
Ntp6899
Rp6900
(dp6901
g8
V199.6.26.56
p6902
sg9
F0.0
sg10
g11
sg12
g11
sg13
g11
sg14
VAS209
p6903
sg16
g11
sbsV149.168.254.96
p6904
g2
(g3
g4
Ntp6905
Rp6906
(dp6907
g8
V149.168.254.96
p6908
sg9
F0.0
sg10
g11
sg12
g11
sg13
g11
sg14
VAS6559
p6909
sg16
g11
sbsV94.142.237.64
p6910
g2
(g3
g4
Ntp6911
Rp6912
(dp6913
g8
V94.142.237.64
p6914
sg9
F0.0
sg10
g11
sg12
g11
sg13
g11
sg14
VAS48926
p6915
sg16
g11
sbsV156.34.63.92
p6916
g2
(g3
g4
Ntp6917
Rp6918
(dp6919
g8
g6916
sg9
F0.0
sg10
g11
sg12
g11
sg13
g11
sg14
VAS855
p6920
sg16
g11
sbsV79.232.62.12
p6921
g2
(g3
g4
Ntp6922
Rp6923
(dp6924
g8
V79.232.62.12
p6925
sg9
F0.0
sg10
g11
sg12
g11
sg13
g11
sg14
VAS3320
p6926
sg16
g11
sbsV167.58.130.213
p6927
g2
(g3
g4
Ntp6928
Rp6929
(dp6930
g8
g6927
sg9
F0.0
sg10
g11
sg12
g11
sg13
g11
sg14
VAS6057
p6931
sg16
g11
sbsV72.249.76.43
p6932
g2
(g3
g4
Ntp6933
Rp6934
(dp6935
g8
V72.249.76.43
p6936
sg9
F0.0
sg10
g11
sg12
g11
sg13
g11
sg14
VAS55045
p6937
sg16
g11
sbsV104.46.108.32
p6938
g2
(g3
g4
Ntp6939
Rp6940
(dp6941
g8
V104.46.108.32
p6942
sg9
F0.0
sg10
g11
sg12
g11
sg13
g11
sg14
VAS8075
p6943
sg16
g11
sbsV66.191.238.126
p6944
g2
(g3
g4
Ntp6945
Rp6946
(dp6947
g8
V66.191.238.126
p6948
sg9
F0.0
sg10
g11
sg12
g11
sg13
g11
sg14
VAS20115
p6949
sg16
g11
sbsV217.92.59.87
p6950
g2
(g3
g4
Ntp6951
Rp6952
(dp6953
g8
V217.92.59.87
p6954
sg9
F0.0
sg10
g11
sg12
g11
sg13
g11
sg14
VAS3320
p6955
sg16
g11
sbsV143.192.97.178
p6956
g2
(g3
g4
Ntp6957
Rp6958
(dp6959
g8
V143.192.97.178
p6960
sg9
F0.0
sg10
g11
sg12
g11
sg13
g11
sg14
VAS131310
p6961
sg16
g11
sbsV217.69.39.75
p6962
g2
(g3
g4
Ntp6963
Rp6964
(dp6965
g8
g6962
sg9
F0.0
sg10
g11
sg12
g11
sg13
g11
sg14
VAS29611
p6966
sg16
g11
sbsV84.137.155.192
p6967
g2
(g3
g4
Ntp6968
Rp6969
(dp6970
g8
V84.137.155.192
p6971
sg9
F0.0
sg10
g11
sg12
g11
sg13
g11
sg14
VAS3320
p6972
sg16
g11
sbsV121.208.235.87
p6973
g2
(g3
g4
Ntp6974
Rp6975
(dp6976
g8
V121.208.235.87
p6977
sg9
F0.0
sg10
g11
sg12
g11
sg13
g11
sg14
VAS1221
p6978
sg16
g11
sbsV52.187.188.219
p6979
g2
(g3
g4
Ntp6980
Rp6981
(dp6982
g8
V52.187.188.219
p6983
sg9
F0.0
sg10
g11
sg12
g11
sg13
g11
sg14
VAS8075
p6984
sg16
g11
sbsV36.226.43.202
p6985
g2
(g3
g4
Ntp6986
Rp6987
(dp6988
g8
V36.226.43.202
p6989
sg9
F0.0
sg10
g11
sg12
g11
sg13
g11
sg14
VAS3462
p6990
sg16
g11
sbsV196.219.194.180
p6991
g2
(g3
g4
Ntp6992
Rp6993
(dp6994
g8
V196.219.194.180
p6995
sg9
F0.0
sg10
g11
sg12
g11
sg13
g11
sg14
VAS8452
p6996
sg16
g11
sbsV173.231.129.212
p6997
g2
(g3
g4
Ntp6998
Rp6999
(dp7000
g8
V173.231.129.212
p7001
sg9
F0.0
sg10
g11
sg12
g11
sg13
g11
sg14
VAS29791
p7002
sg16
g11
sbsV116.48.134.121
p7003
g2
(g3
g4
Ntp7004
Rp7005
(dp7006
g8
V116.48.134.121
p7007
sg9
F0.0
sg10
g11
sg12
g11
sg13
g11
sg14
VAS4760
p7008
sg16
g11
sbsV197.156.116.53
p7009
g2
(g3
g4
Ntp7010
Rp7011
(dp7012
g8
V197.156.116.53
p7013
sg9
F0.0
sg10
g11
sg12
g11
sg13
g11
sg14
VAS24757
p7014
sg16
g11
sbsV195.202.159.210
p7015
g2
(g3
g4
Ntp7016
Rp7017
(dp7018
g8
g7015
sg9
F0.0
sg10
g11
sg12
g11
sg13
g11
sg14
VAS8339
p7019
sg16
g11
sbsV173.231.129.209
p7020
g2
(g3
g4
Ntp7021
Rp7022
(dp7023
g8
V173.231.129.209
p7024
sg9
F0.0
sg10
g11
sg12
g11
sg13
g11
sg14
VAS29791
p7025
sg16
g11
sbsV65.38.211.146
p7026
g2
(g3
g4
Ntp7027
Rp7028
(dp7029
g8
V65.38.211.146
p7030
sg9
F0.0
sg10
g11
sg12
g11
sg13
g11
sg14
VAS11992
p7031
sg16
g11
sbsV212.160.235.74
p7032
g2
(g3
g4
Ntp7033
Rp7034
(dp7035
g8
V212.160.235.74
p7036
sg9
F0.0
sg10
g11
sg12
g11
sg13
g11
sg14
VAS5617
p7037
sg16
g11
sbsV173.231.129.204
p7038
g2
(g3
g4
Ntp7039
Rp7040
(dp7041
g8
V173.231.129.204
p7042
sg9
F0.0
sg10
g11
sg12
g11
sg13
g11
sg14
VAS29791
p7043
sg16
g11
sbsV173.231.129.210
p7044
g2
(g3
g4
Ntp7045
Rp7046
(dp7047
g8
V173.231.129.210
p7048
sg9
F0.0
sg10
g11
sg12
g11
sg13
g11
sg14
VAS29791
p7049
sg16
g11
sbsV104.236.100.14
p7050
g2
(g3
g4
Ntp7051
Rp7052
(dp7053
g8
V104.236.100.14
p7054
sg9
F0.0
sg10
g11
sg12
g11
sg13
g11
sg14
VAS393406
p7055
sg16
g11
sbsV173.231.129.201
p7056
g2
(g3
g4
Ntp7057
Rp7058
(dp7059
g8
V173.231.129.201
p7060
sg9
F0.0
sg10
g11
sg12
g11
sg13
g11
sg14
VAS29791
p7061
sg16
g11
sbsV189.36.196.158
p7062
g2
(g3
g4
Ntp7063
Rp7064
(dp7065
g8
V189.36.196.158
p7066
sg9
F0.0
sg10
g11
sg12
g11
sg13
g11
sg14
VAS28308
p7067
sg16
g11
sbsV162.209.235.39
p7068
g2
(g3
g4
Ntp7069
Rp7070
(dp7071
g8
g7068
sg9
F0.0
sg10
g11
sg12
g11
sg13
g11
sg14
VAS33330
p7072
sg16
g11
sbsV84.52.196.74
p7073
g2
(g3
g4
Ntp7074
Rp7075
(dp7076
g8
V84.52.196.74
p7077
sg9
F0.0
sg10
g11
sg12
g11
sg13
g11
sg14
VAS34087
p7078
sg16
g11
sbsV86.109.72.14
p7079
g2
(g3
g4
Ntp7080
Rp7081
(dp7082
g8
V86.109.72.14
p7083
sg9
F0.0
sg10
g11
sg12
g11
sg13
g11
sg14
VAS35263
p7084
sg16
g11
sbsV131.255.20.44
p7085
g2
(g3
g4
Ntp7086
Rp7087
(dp7088
g8
V131.255.20.44
p7089
sg9
F0.0
sg10
g11
sg12
g11
sg13
g11
sg14
VAS262271
p7090
sg16
g11
sbsV201.53.37.100
p7091
g2
(g3
g4
Ntp7092
Rp7093
(dp7094
g8
V201.53.37.100
p7095
sg9
F0.0
sg10
g11
sg12
g11
sg13
g11
sg14
VAS28573
p7096
sg16
g11
sbsV220.135.101.59
p7097
g2
(g3
g4
Ntp7098
Rp7099
(dp7100
g8
V220.135.101.59
p7101
sg9
F0.0
sg10
g11
sg12
g11
sg13
g11
sg14
VAS3462
p7102
sg16
g11
sbsV52.8.138.24
p7103
g2
(g3
g4
Ntp7104
Rp7105
(dp7106
g8
V52.8.138.24
p7107
sg9
F0.0
sg10
g11
sg12
g11
sg13
g11
sg14
VAS16509
p7108
sg16
g11
sbsV213.56.231.160
p7109
g2
(g3
g4
Ntp7110
Rp7111
(dp7112
g8
V213.56.231.160
p7113
sg9
F0.0
sg10
g11
sg12
g11
sg13
g11
sg14
VAS3215
p7114
sg16
g11
sbsV115.160.240.150
p7115
g2
(g3
g4
Ntp7116
Rp7117
(dp7118
g8
V115.160.240.150
p7119
sg9
F0.0
sg10
g11
sg12
g11
sg13
g11
sg14
VAS45820
p7120
sg16
g11
sbsV41.33.131.163
p7121
g2
(g3
g4
Ntp7122
Rp7123
(dp7124
g8
V41.33.131.163
p7125
sg9
F0.0
sg10
g11
sg12
g11
sg13
g11
sg14
VAS8452
p7126
sg16
g11
sbsV42.200.252.163
p7127
g2
(g3
g4
Ntp7128
Rp7129
(dp7130
g8
V42.200.252.163
p7131
sg9
F0.0
sg10
g11
sg12
g11
sg13
g11
sg14
VAS4760
p7132
sg16
g11
sbsV201.48.152.98
p7133
g2
(g3
g4
Ntp7134
Rp7135
(dp7136
g8
V201.48.152.98
p7137
sg9
F0.0
sg10
g11
sg12
g11
sg13
g11
sg14
VAS16735
p7138
sg16
g11
sbsV212.175.88.228
p7139
g2
(g3
g4
Ntp7140
Rp7141
(dp7142
g8
V212.175.88.228
p7143
sg9
F0.0
sg10
g11
sg12
g11
sg13
g11
sg14
VAS9121
p7144
sg16
g11
sbsV70.35.202.142
p7145
g2
(g3
g4
Ntp7146
Rp7147
(dp7148
g8
V70.35.202.142
p7149
sg9
F0.0
sg10
g11
sg12
g11
sg13
g11
sg14
VAS8560
p7150
sg16
g11
sbsV208.178.179.2
p7151
g2
(g3
g4
Ntp7152
Rp7153
(dp7154
g8
V208.178.179.2
p7155
sg9
F0.0
sg10
g11
sg12
g11
sg13
g11
sg14
VAS3549
p7156
sg16
g11
sbsV81.193.213.118
p7157
g2
(g3
g4
Ntp7158
Rp7159
(dp7160
g8
g7157
sg9
F0.0
sg10
g11
sg12
g11
sg13
g11
sg14
VAS3243
p7161
sg16
g11
sbsV203.30.237.59
p7162
g2
(g3
g4
Ntp7163
Rp7164
(dp7165
g8
V203.30.237.59
p7166
sg9
F0.0
sg10
g11
sg12
g11
sg13
g11
sg14
VAS55666
p7167
sg16
g11
sbsV24.191.24.231
p7168
g2
(g3
g4
Ntp7169
Rp7170
(dp7171
g8
V24.191.24.231
p7172
sg9
F0.0
sg10
g11
sg12
g11
sg13
g11
sg14
VAS6128
p7173
sg16
g11
sbsV50.62.140.107
p7174
g2
(g3
g4
Ntp7175
Rp7176
(dp7177
g8
V50.62.140.107
p7178
sg9
F0.0
sg10
g11
sg12
g11
sg13
g11
sg14
VAS26496
p7179
sg16
g11
sbsV223.197.163.31
p7180
g2
(g3
g4
Ntp7181
Rp7182
(dp7183
g8
g7180
sg9
F0.0
sg10
g11
sg12
g11
sg13
g11
sg14
VAS4760
p7184
sg16
g11
sbsV185.21.146.38
p7185
g2
(g3
g4
Ntp7186
Rp7187
(dp7188
g8
g7185
sg9
F0.0
sg10
g11
sg12
g11
sg13
g11
sg14
VAS3301
p7189
sg16
g11
sbsV68.169.203.53
p7190
g2
(g3
g4
Ntp7191
Rp7192
(dp7193
g8
g7190
sg9
F0.0
sg10
g11
sg12
g11
sg13
g11
sg14
VAS17223
p7194
sg16
g11
sbsV34.196.107.188
p7195
g2
(g3
g4
Ntp7196
Rp7197
(dp7198
g8
V34.196.107.188
p7199
sg9
F0.0
sg10
g11
sg12
g11
sg13
g11
sg14
VAS14618
p7200
sg16
g11
sbsV213.32.68.20
p7201
g2
(g3
g4
Ntp7202
Rp7203
(dp7204
g8
g7201
sg9
F0.0
sg10
g11
sg12
g11
sg13
g11
sg14
VAS16276
p7205
sg16
g11
sbsV199.217.117.162
p7206
g2
(g3
g4
Ntp7207
Rp7208
(dp7209
g8
V199.217.117.162
p7210
sg9
F0.0
sg10
g11
sg12
g11
sg13
g11
sg14
VAS30083
p7211
sg16
g11
sbsV179.53.140.91
p7212
g2
(g3
g4
Ntp7213
Rp7214
(dp7215
g8
V179.53.140.91
p7216
sg9
F0.0
sg10
g11
sg12
g11
sg13
g11
sg14
VAS6400
p7217
sg16
g11
sbsV201.238.248.133
p7218
g2
(g3
g4
Ntp7219
Rp7220
(dp7221
g8
V201.238.248.133
p7222
sg9
F0.0
sg10
g11
sg12
g11
sg13
g11
sg14
VAS14259
p7223
sg16
g11
sbsV50.87.35.112
p7224
g2
(g3
g4
Ntp7225
Rp7226
(dp7227
g8
g7224
sg9
F0.0
sg10
g11
sg12
g11
sg13
g11
sg14
VAS46606
p7228
sg16
g11
sbsV203.198.147.107
p7229
g2
(g3
g4
Ntp7230
Rp7231
(dp7232
g8
V203.198.147.107
p7233
sg9
F0.0
sg10
g11
sg12
g11
sg13
g11
sg14
VAS4760
p7234
sg16
g11
sbsV94.56.128.123
p7235
g2
(g3
g4
Ntp7236
Rp7237
(dp7238
g8
V94.56.128.123
p7239
sg9
F0.0
sg10
g11
sg12
g11
sg13
g11
sg14
VAS5384
p7240
sg16
g11
sbsV93.213.221.65
p7241
g2
(g3
g4
Ntp7242
Rp7243
(dp7244
g8
g7241
sg9
F0.0
sg10
g11
sg12
g11
sg13
g11
sg14
VAS3320
p7245
sg16
g11
sbsV200.98.64.85
p7246
g2
(g3
g4
Ntp7247
Rp7248
(dp7249
g8
g7246
sg9
F0.0
sg10
g11
sg12
g11
sg13
g11
sg14
VAS7162
p7250
sg16
g11
sbsV41.33.218.165
p7251
g2
(g3
g4
Ntp7252
Rp7253
(dp7254
g8
g7251
sg9
F0.0
sg10
g11
sg12
g11
sg13
g11
sg14
VAS8452
p7255
sg16
g11
sbsV213.77.26.81
p7256
g2
(g3
g4
Ntp7257
Rp7258
(dp7259
g8
V213.77.26.81
p7260
sg9
F0.0
sg10
g11
sg12
g11
sg13
g11
sg14
VAS5617
p7261
sg16
g11
sbsV123.56.170.139
p7262
g2
(g3
g4
Ntp7263
Rp7264
(dp7265
g8
g7262
sg9
F0.0
sg10
g11
sg12
g11
sg13
g11
sg14
VAS37963
p7266
sg16
g11
sbsV113.31.81.79
p7267
g2
(g3
g4
Ntp7268
Rp7269
(dp7270
g8
V113.31.81.79
p7271
sg9
F0.0
sg10
g11
sg12
g11
sg13
g11
sg14
VAS23724
p7272
sg16
g11
sbsV50.92.142.133
p7273
g2
(g3
g4
Ntp7274
Rp7275
(dp7276
g8
V50.92.142.133
p7277
sg9
F0.0
sg10
g11
sg12
g11
sg13
g11
sg14
VAS852
p7278
sg16
g11
sbsV190.116.39.38
p7279
g2
(g3
g4
Ntp7280
Rp7281
(dp7282
g8
V190.116.39.38
p7283
sg9
F0.0
sg10
g11
sg12
g11
sg13
g11
sg14
VAS12252
p7284
sg16
g11
sbsV218.103.33.129
p7285
g2
(g3
g4
Ntp7286
Rp7287
(dp7288
g8
V218.103.33.129
p7289
sg9
F0.0
sg10
g11
sg12
g11
sg13
g11
sg14
VAS4760
p7290
sg16
g11
sbsV83.170.113.194
p7291
g2
(g3
g4
Ntp7292
Rp7293
(dp7294
g8
V83.170.113.194
p7295
sg9
F0.0
sg10
g11
sg12
g11
sg13
g11
sg14
VAS13213
p7296
sg16
g11
sbsV181.14.243.166
p7297
g2
(g3
g4
Ntp7298
Rp7299
(dp7300
g8
g7297
sg9
F0.0
sg10
g11
sg12
g11
sg13
g11
sg14
VAS7303
p7301
sg16
g11
sbsV82.117.248.140
p7302
g2
(g3
g4
Ntp7303
Rp7304
(dp7305
g8
g7302
sg9
F0.0
sg10
g11
sg12
g11
sg13
g11
sg14
VAS34248
p7306
sg16
g11
sbsV200.41.95.158
p7307
g2
(g3
g4
Ntp7308
Rp7309
(dp7310
g8
V200.41.95.158
p7311
sg9
F0.0
sg10
g11
sg12
g11
sg13
g11
sg14
VAS3549
p7312
sg16
g11
sbsV220.246.47.157
p7313
g2
(g3
g4
Ntp7314
Rp7315
(dp7316
g8
V220.246.47.157
p7317
sg9
F0.0
sg10
g11
sg12
g11
sg13
g11
sg14
VAS4760
p7318
sg16
g11
sbsV74.223.13.154
p7319
g2
(g3
g4
Ntp7320
Rp7321
(dp7322
g8
V74.223.13.154
p7323
sg9
F0.0
sg10
g11
sg12
g11
sg13
g11
sg14
VAS7029
p7324
sg16
g11
sbsV77.246.211.199
p7325
g2
(g3
g4
Ntp7326
Rp7327
(dp7328
g8
V77.246.211.199
p7329
sg9
F0.0
sg10
g11
sg12
g11
sg13
g11
sg14
VAS60447
p7330
sg16
g11
sbsV62.226.201.182
p7331
g2
(g3
g4
Ntp7332
Rp7333
(dp7334
g8
V62.226.201.182
p7335
sg9
F0.0
sg10
g11
sg12
g11
sg13
g11
sg14
VAS3320
p7336
sg16
g11
sbsV104.24.158.206
p7337
g2
(g3
g4
Ntp7338
Rp7339
(dp7340
g8
g7337
sg9
F0.0
sg10
g11
sg12
g11
sg13
g11
sg14
VAS13335
p7341
sg16
g11
sbsV13.124.31.27
p7342
g2
(g3
g4
Ntp7343
Rp7344
(dp7345
g8
V13.124.31.27
p7346
sg9
F0.0
sg10
g11
sg12
g11
sg13
g11
sg14
I0
sg16
g11
sbsV52.15.139.40
p7347
g2
(g3
g4
Ntp7348
Rp7349
(dp7350
g8
V52.15.139.40
p7351
sg9
F0.0
sg10
g11
sg12
g11
sg13
g11
sg14
VAS16509
p7352
sg16
g11
sbsV201.161.12.60
p7353
g2
(g3
g4
Ntp7354
Rp7355
(dp7356
g8
V201.161.12.60
p7357
sg9
F0.0
sg10
g11
sg12
g11
sg13
g11
sg14
VAS22566
p7358
sg16
g11
sbsV37.205.121.39
p7359
g2
(g3
g4
Ntp7360
Rp7361
(dp7362
g8
V37.205.121.39
p7363
sg9
F0.0
sg10
g11
sg12
g11
sg13
g11
sg14
VAS42525
p7364
sg16
g11
sbsV204.122.20.7
p7365
g2
(g3
g4
Ntp7366
Rp7367
(dp7368
g8
V204.122.20.7
p7369
sg9
F0.0
sg10
g11
sg12
g11
sg13
g11
sg14
VAS18530
p7370
sg16
g11
sbsV91.35.50.170
p7371
g2
(g3
g4
Ntp7372
Rp7373
(dp7374
g8
V91.35.50.170
p7375
sg9
F0.0
sg10
g11
sg12
g11
sg13
g11
sg14
VAS3320
p7376
sg16
g11
sbsV203.198.137.168
p7377
g2
(g3
g4
Ntp7378
Rp7379
(dp7380
g8
V203.198.137.168
p7381
sg9
F0.0
sg10
g11
sg12
g11
sg13
g11
sg14
VAS4760
p7382
sg16
g11
sbsV82.153.190.197
p7383
g2
(g3
g4
Ntp7384
Rp7385
(dp7386
g8
V82.153.190.197
p7387
sg9
F0.0
sg10
g11
sg12
g11
sg13
g11
sg14
VAS12513
p7388
sg16
g11
sbsV68.186.244.101
p7389
g2
(g3
g4
Ntp7390
Rp7391
(dp7392
g8
V68.186.244.101
p7393
sg9
F0.0
sg10
g11
sg12
g11
sg13
g11
sg14
VAS20115
p7394
sg16
g11
sbsV220.137.4.193
p7395
g2
(g3
g4
Ntp7396
Rp7397
(dp7398
g8
V220.137.4.193
p7399
sg9
F0.0
sg10
g11
sg12
g11
sg13
g11
sg14
VAS3462
p7400
sg16
g11
sbsV117.56.253.114
p7401
g2
(g3
g4
Ntp7402
Rp7403
(dp7404
g8
g7401
sg9
F0.0
sg10
g11
sg12
g11
sg13
g11
sg14
VAS4782
p7405
sg16
g11
sbsV104.236.147.156
p7406
g2
(g3
g4
Ntp7407
Rp7408
(dp7409
g8
V104.236.147.156
p7410
sg9
F0.0
sg10
g11
sg12
g11
sg13
g11
sg14
VAS14061
p7411
sg16
g11
sbsV203.198.140.95
p7412
g2
(g3
g4
Ntp7413
Rp7414
(dp7415
g8
V203.198.140.95
p7416
sg9
F0.0
sg10
g11
sg12
g11
sg13
g11
sg14
VAS4760
p7417
sg16
g11
sbsV223.197.129.122
p7418
g2
(g3
g4
Ntp7419
Rp7420
(dp7421
g8
V223.197.129.122
p7422
sg9
F0.0
sg10
g11
sg12
g11
sg13
g11
sg14
VAS4760
p7423
sg16
g11
sbsV94.56.72.64
p7424
g2
(g3
g4
Ntp7425
Rp7426
(dp7427
g8
V94.56.72.64
p7428
sg9
F0.0
sg10
g11
sg12
g11
sg13
g11
sg14
VAS5384
p7429
sg16
g11
sbsV96.231.207.20
p7430
g2
(g3
g4
Ntp7431
Rp7432
(dp7433
g8
V96.231.207.20
p7434
sg9
F0.0
sg10
g11
sg12
g11
sg13
g11
sg14
VAS701
p7435
sg16
g11
sbsV168.227.228.66
p7436
g2
(g3
g4
Ntp7437
Rp7438
(dp7439
g8
V168.227.228.66
p7440
sg9
F0.0
sg10
g11
sg12
g11
sg13
g11
sg14
VAS264890
p7441
sg16
g11
sbsV177.139.140.242
p7442
g2
(g3
g4
Ntp7443
Rp7444
(dp7445
g8
V177.139.140.242
p7446
sg9
F0.0
sg10
g11
sg12
g11
sg13
g11
sg14
VAS27699
p7447
sg16
g11
sbsV93.223.19.66
p7448
g2
(g3
g4
Ntp7449
Rp7450
(dp7451
g8
V93.223.19.66
p7452
sg9
F0.0
sg10
g11
sg12
g11
sg13
g11
sg14
VAS3320
p7453
sg16
g11
sbsV79.212.161.182
p7454
g2
(g3
g4
Ntp7455
Rp7456
(dp7457
g8
V79.212.161.182
p7458
sg9
F0.0
sg10
g11
sg12
g11
sg13
g11
sg14
VAS3320
p7459
sg16
g11
sbsV223.255.131.210
p7460
g2
(g3
g4
Ntp7461
Rp7462
(dp7463
g8
V223.255.131.210
p7464
sg9
F0.0
sg10
g11
sg12
g11
sg13
g11
sg14
VAS9381
p7465
sg16
g11
sbsV80.19.120.228
p7466
g2
(g3
g4
Ntp7467
Rp7468
(dp7469
g8
V80.19.120.228
p7470
sg9
F0.0
sg10
g11
sg12
g11
sg13
g11
sg14
VAS3269
p7471
sg16
g11
sbsV206.69.163.116
p7472
g2
(g3
g4
Ntp7473
Rp7474
(dp7475
g8
V206.69.163.116
p7476
sg9
F0.0
sg10
g11
sg12
g11
sg13
g11
sg14
VAS27595
p7477
sg16
g11
sbsV114.34.79.94
p7478
g2
(g3
g4
Ntp7479
Rp7480
(dp7481
g8
V114.34.79.94
p7482
sg9
F0.0
sg10
g11
sg12
g11
sg13
g11
sg14
VAS3462
p7483
sg16
g11
sbsV190.244.179.92
p7484
g2
(g3
g4
Ntp7485
Rp7486
(dp7487
g8
V190.244.179.92
p7488
sg9
F0.0
sg10
g11
sg12
g11
sg13
g11
sg14
VAS10318
p7489
sg16
g11
sbsV50.248.80.195
p7490
g2
(g3
g4
Ntp7491
Rp7492
(dp7493
g8
V50.248.80.195
p7494
sg9
F0.0
sg10
g11
sg12
g11
sg13
g11
sg14
VAS7922
p7495
sg16
g11
sbsV45.33.100.9
p7496
g2
(g3
g4
Ntp7497
Rp7498
(dp7499
g8
g7496
sg9
F0.0
sg10
g11
sg12
g11
sg13
g11
sg14
VAS63949
p7500
sg16
g11
sbsV216.237.16.150
p7501
g2
(g3
g4
Ntp7502
Rp7503
(dp7504
g8
g7501
sg9
F0.0
sg10
g11
sg12
g11
sg13
g11
sg14
VAS7829
p7505
sg16
g11
sbsV184.61.25.98
p7506
g2
(g3
g4
Ntp7507
Rp7508
(dp7509
g8
V184.61.25.98
p7510
sg9
F0.0
sg10
g11
sg12
g11
sg13
g11
sg14
VAS4181
p7511
sg16
g11
sbsV121.37.17.135
p7512
g2
(g3
g4
Ntp7513
Rp7514
(dp7515
g8
g7512
sg9
F0.0
sg10
g11
sg12
g11
sg13
g11
sg14
VAS4134
p7516
sg16
g11
sbsV179.52.157.251
p7517
g2
(g3
g4
Ntp7518
Rp7519
(dp7520
g8
V179.52.157.251
p7521
sg9
F0.0
sg10
g11
sg12
g11
sg13
g11
sg14
VAS6400
p7522
sg16
g11
sbsV218.253.226.163
p7523
g2
(g3
g4
Ntp7524
Rp7525
(dp7526
g8
g7523
sg9
F0.0
sg10
g11
sg12
g11
sg13
g11
sg14
VAS9381
p7527
sg16
g11
sbsV217.7.204.67
p7528
g2
(g3
g4
Ntp7529
Rp7530
(dp7531
g8
g7528
sg9
F0.0
sg10
g11
sg12
g11
sg13
g11
sg14
VAS3320
p7532
sg16
g11
sbsV112.120.79.143
p7533
g2
(g3
g4
Ntp7534
Rp7535
(dp7536
g8
V112.120.79.143
p7537
sg9
F0.0
sg10
g11
sg12
g11
sg13
g11
sg14
VAS4760
p7538
sg16
g11
sbsV89.204.242.186
p7539
g2
(g3
g4
Ntp7540
Rp7541
(dp7542
g8
V89.204.242.186
p7543
sg9
F0.0
sg10
g11
sg12
g11
sg13
g11
sg14
VAS13280
p7544
sg16
g11
sbsV206.51.184.65
p7545
g2
(g3
g4
Ntp7546
Rp7547
(dp7548
g8
V206.51.184.65
p7549
sg9
F0.0
sg10
g11
sg12
g11
sg13
g11
sg14
VAS31841
p7550
sg16
g11
sbs.