(dp0
V116.48.153.74
p1
ccopy_reg
_reconstructor
p2
(cip
IP
p3
c__builtin__
object
p4
Ntp5
Rp6
(dp7
S'ip'
p8
V42.200.171.31
p9
sS'asn'
p10
VAS4760
p11
sbsV192.185.150.70
p12
g6
sV42.200.192.128
p13
g6
sV112.120.72.171
p14
g6
sV220.246.46.64
p15
g6
sV42.200.204.1
p16
g6
sV223.197.239.231
p17
g6
sV91.242.194.94
p18
g6
sV203.198.124.41
p19
g6
sV75.103.79.226
p20
g6
sV91.120.36.229
p21
g6
sV198.154.223.65
p22
g6
sV172.252.56.40
p23
g6
sV195.146.148.82
p24
g6
sV104.25.230.131
p25
g6
sV136.0.111.95
p26
g6
sV219.76.176.66
p27
g6
sV47.88.60.4
p28
g6
sV42.200.227.61
p29
g6
sV86.65.174.69
p30
g6
sV42.200.198.229
p31
g6
sV69.167.139.82
p32
g6
sV58.152.41.153
p33
g6
sV112.120.110.75
p34
g6
sV188.40.83.88
p35
g6
sV104.25.15.85
p36
g6
sV218.103.32.123
p37
g6
sV223.197.202.96
p38
g6
sV218.103.112.97
p39
g6
sV108.61.155.22
p40
g6
sV45.58.42.164
p41
g6
sV162.220.112.42
p42
g6
sV74.81.64.46
p43
g6
sV82.222.45.115
p44
g6
sV86.123.150.245
p45
g6
sV108.167.191.54
p46
g6
sV104.25.227.179
p47
g6
sV66.70.153.141
p48
g6
sV222.231.24.83
p49
g6
sV42.200.202.234
p50
g6
sV198.136.50.201
p51
g6
sV218.103.120.199
p52
g6
sV62.149.232.204
p53
g6
sV58.152.110.97
p54
g6
sV203.198.133.186
p55
g6
sV77.89.79.88
p56
g6
sV220.246.41.48
p57
g6
sV50.6.0.253
p58
g6
sV42.200.250.178
p59
g6
sV69.1.141.60
p60
g6
sV104.17.104.235
p61
g6
sV176.98.127.191
p62
g6
sV198.91.91.61
p63
g6
sV223.130.24.61
p64
g6
sV112.120.90.29
p65
g6
sV122.1.220.25
p66
g6
sV219.76.179.37
p67
g6
sV176.53.118.196
p68
g6
sV223.197.235.64
p69
g6
sV220.246.33.45
p70
g6
sV121.208.235.87
p71
g6
sV88.150.170.215
p72
g6
sV173.219.41.8
p73
g6
sV173.199.177.127
p74
g6
sV198.84.109.51
p75
g6
sV223.197.182.23
p76
g6
sV92.222.232.82
p77
g6
sV84.232.55.238
p78
g6
sV103.195.236.103
p79
g6
sV104.19.0.105
p80
g6
sV185.58.73.212
p81
g6
sV220.246.79.174
p82
g6
sV103.23.115.81
p83
g6
sV112.120.66.132
p84
g6
sV223.197.253.180
p85
g6
sV219.76.187.218
p86
g6
sV93.118.36.99
p87
g6
sV72.10.34.188
p88
g6
sV58.152.78.47
p89
g6
sV209.182.104.4
p90
g6
sV96.9.1.112
p91
g6
sV42.200.196.214
p92
g6
sV159.174.184.20
p93
g6
sV23.235.226.158
p94
g6
sV62.161.105.118
p95
g6
sV223.197.146.79
p96
g6
sV223.197.234.72
p97
g6
sV116.48.128.61
p98
g6
sV218.103.120.242
p99
g6
sV67.229.27.207
p100
g6
sV192.185.63.133
p101
g6
sV220.246.76.78
p102
g6
sg9
g6
sV87.233.217.83
p103
g6
sV45.56.219.251
p104
g6
sV66.221.171.74
p105
g6
sV112.120.66.81
p106
g6
sV5.154.56.189
p107
g6
sV112.120.120.103
p108
g6
sV79.118.135.27
p109
g6
sV218.103.115.11
p110
g6
sV89.37.29.29
p111
g6
sV220.246.77.191
p112
g6
sV58.152.12.46
p113
g6
sV220.246.47.157
p114
g6
sV109.167.58.67
p115
g6
sV188.128.161.39
p116
g6
sV223.197.242.204
p117
g6
sV50.204.130.205
p118
g6
sV79.96.33.115
p119
g6
sV198.1.78.233
p120
g6
sV187.186.5.119
p121
g6
sV209.59.190.112
p122
g6
sV203.198.137.168
p123
g6
sV220.246.35.71
p124
g6
sV59.106.32.125
p125
g6
sV58.152.72.65
p126
g6
sV208.110.65.107
p127
g6
sV85.13.147.113
p128
g6
sV91.75.35.6
p129
g6
sV209.207.237.189
p130
g6
sV218.103.121.20
p131
g6
sV50.6.209.111
p132
g6
sV128.140.218.96
p133
g6
sV121.161.10.210
p134
g6
sV112.120.79.143
p135
g6
sV112.120.77.223
p136
g6
sV42.200.249.73
p137
g6
sV134.119.220.162
p138
g6
sV112.120.91.78
p139
g6
sV220.246.75.166
p140
g6
sV89.135.52.5
p141
g6
sV223.197.226.230
p142
g6
sV223.197.202.224
p143
g6
s.