(dp0
V45.79.130.94
p1
ccopy_reg
_reconstructor
p2
(cip
IP
p3
c__builtin__
object
p4
Ntp5
Rp6
(dp7
S'ip'
p8
V206.51.184.65
p9
sS'rank'
p10
F0.0
sS'netblock'
p11
S''
p12
sS'lastseen'
p13
g12
sS'asname'
p14
g12
sS'asn'
p15
V3215
p16
sS'firstseen'
p17
g12
sbsV117.102.119.155
p18
g6
sV201.235.76.117
p19
g6
sV42.200.252.13
p20
g6
sV190.14.240.206
p21
g6
sV217.91.99.151
p22
g6
sV190.151.33.14
p23
g6
sV38.122.247.222
p24
g6
sV130.149.22.165
p25
g6
sV104.196.10.21
p26
g6
sV50.17.68.240
p27
g6
sV210.66.142.117
p28
g6
sV200.195.170.130
p29
g6
sV24.206.14.37
p30
g6
sV155.93.142.227
p31
g6
sV71.8.207.70
p32
g6
sV14.136.206.197
p33
g6
sV77.40.152.130
p34
g6
sV186.219.48.66
p35
g6
sV123.57.157.242
p36
g6
sV117.27.89.146
p37
g6
sV220.137.9.189
p38
g6
sV98.172.81.119
p39
g6
sV136.0.111.95
p40
g6
sV196.61.11.107
p41
g6
sV79.220.139.192
p42
g6
sV112.74.219.18
p43
g6
sV139.162.2.145
p44
g6
sV104.25.227.179
p45
g6
sV190.216.202.25
p46
g6
sV179.185.78.251
p47
g6
sV217.7.204.67
p48
g6
sV42.200.202.15
p49
g6
sV62.210.70.193
p50
g6
sV190.161.97.37
p51
g6
sV179.124.9.181
p52
g6
sV201.151.165.198
p53
g6
sV81.130.168.69
p54
g6
sV187.108.38.205
p55
g6
sV190.213.183.60
p56
g6
sV187.108.38.203
p57
g6
sV81.200.59.186
p58
g6
sV13.81.205.203
p59
g6
sV27.100.44.80
p60
g6
sV54.207.96.152
p61
g6
sV183.88.67.249
p62
g6
sV67.113.123.61
p63
g6
sV179.126.141.249
p64
g6
sV62.23.15.237
p65
g6
sV200.153.162.10
p66
g6
sV208.3.90.233
p67
g6
sV223.197.235.64
p68
g6
sV202.57.130.93
p69
g6
sV85.214.155.253
p70
g6
sV5.9.89.102
p71
g6
sV67.215.1.42
p72
g6
sV74.63.50.176
p73
g6
sV54.87.87.144
p74
g6
sV198.84.109.51
p75
g6
sV123.176.6.146
p76
g6
sV89.36.37.140
p77
g6
sV173.231.129.209
p78
g6
sV52.44.196.51
p79
g6
sV101.200.146.91
p80
g6
sV62.181.225.186
p81
g6
sV217.29.100.47
p82
g6
sV202.170.112.202
p83
g6
sV24.96.91.159
p84
g6
sV80.135.97.71
p85
g6
sV52.170.37.231
p86
g6
sV202.170.112.206
p87
g6
sV220.246.37.52
p88
g6
sV37.187.224.7
p89
g6
sV103.23.115.81
p90
g6
sV173.18.244.252
p91
g6
sV167.114.102.233
p92
g6
sV23.99.59.128
p93
g6
sV194.3.162.168
p94
g6
sV92.50.93.126
p95
g6
sV129.144.41.93
p96
g6
sV196.219.30.40
p97
g6
sV186.250.92.90
p98
g6
sV123.30.110.185
p99
g6
sV220.135.28.15
p100
g6
sV211.193.193.48
p101
g6
sV216.92.142.166
p102
g6
sV52.26.177.245
p103
g6
sV187.63.193.110
p104
g6
sV67.229.27.207
p105
g6
sV85.229.85.17
p106
g6
sV139.196.107.47
p107
g6
sV178.208.141.183
p108
g6
sV138.186.185.158
p109
g6
sV174.140.166.189
p110
g6
sV85.10.199.200
p111
g6
sV2.50.7.210
p112
g6
sV107.170.132.78
p113
g6
sV218.103.120.199
p114
g6
sV105.255.156.208
p115
g6
sV104.236.64.142
p116
g6
sV217.92.141.113
p117
g6
sV184.145.95.120
p118
g6
sV210.82.62.250
p119
g6
sV58.138.140.204
p120
g6
sV152.173.13.150
p121
g6
sV95.211.147.233
p122
g6
sV206.253.174.136
p123
g6
sV190.110.204.219
p124
g6
sV93.204.255.12
p125
g6
sV112.120.66.81
p126
g6
sV177.124.195.180
p127
g6
sV217.167.140.183
p128
g6
sV202.162.198.43
p129
g6
sV68.146.112.157
p130
g6
sV208.178.179.5
p131
g6
sV35.185.99.64
p132
g6
sV187.4.207.241
p133
g6
sV209.59.190.112
p134
g6
sV75.18.169.145
p135
g6
sV85.214.99.114
p136
g6
sV172.252.56.40
p137
g6
sV72.27.221.113
p138
g6
sV219.76.181.53
p139
g6
sV210.242.68.145
p140
g6
sV187.18.105.62
p141
g6
sV115.29.76.85
p142
g6
sV27.254.30.166
p143
g6
sV134.213.133.205
p144
g6
sV151.80.45.126
p145
g6
sV82.244.183.137
p146
g6
sV103.56.235.83
p147
g6
sV67.88.110.236
p148
g6
sV182.150.24.10
p149
g6
sV75.80.220.247
p150
g6
sV41.33.203.20
p151
g6
sV181.143.3.106
p152
g6
sV134.119.220.162
p153
g6
sV203.176.142.84
p154
g6
sV187.16.114.146
p155
g6
sV5.158.71.249
p156
g6
sV223.197.226.230
p157
g6
sV81.169.185.64
p158
g6
sV59.115.220.176
p159
g6
sV195.160.232.108
p160
g6
sV217.57.19.250
p161
g6
sV13.92.142.151
p162
g6
sV71.57.34.132
p163
g6
sV78.188.7.191
p164
g6
sV85.43.183.139
p165
g6
sV76.19.124.143
p166
g6
sV90.228.255.6
p167
g6
sV91.242.194.94
p168
g6
sV62.15.232.243
p169
g6
sV195.46.10.195
p170
g6
sV42.200.196.214
p171
g6
sV198.154.223.65
p172
g6
sV62.15.232.245
p173
g6
sV193.104.79.69
p174
g6
sV62.15.232.248
p175
g6
sV62.15.232.249
p176
g6
sV79.212.161.182
p177
g6
sV201.116.197.114
p178
g6
sV24.191.24.231
p179
g6
sV191.242.241.168
p180
g6
sV41.33.218.165
p181
g6
sV223.197.152.195
p182
g6
sV218.103.112.97
p183
g6
sV201.30.158.137
p184
g6
sV93.118.36.99
p185
g6
sV81.26.205.10
p186
g6
sV23.99.59.197
p187
g6
sV174.46.254.101
p188
g6
sV118.163.47.123
p189
g6
sV43.240.244.144
p190
g6
sV66.70.153.141
p191
g6
sV82.117.248.140
p192
g6
sV119.81.101.253
p193
g6
sV118.163.47.124
p194
g6
sV51.254.139.68
p195
g6
sV84.52.196.74
p196
g6
sV65.48.133.105
p197
g6
sV223.197.250.54
p198
g6
sV138.219.94.78
p199
g6
sV34.248.178.86
p200
g6
sV46.101.242.186
p201
g6
sV202.191.187.92
p202
g6
sV31.192.230.109
p203
g6
sV52.6.243.217
p204
g6
sV41.33.225.80
p205
g6
sV132.247.103.8
p206
g6
sV78.134.54.32
p207
g6
sV85.11.45.12
p208
g6
sV87.157.96.173
p209
g6
sV177.99.240.66
p210
g6
sV82.71.44.41
p211
g6
sV92.63.240.174
p212
g6
sV42.200.240.46
p213
g6
sV112.120.120.103
p214
g6
sV186.103.200.213
p215
g6
sV223.130.24.61
p216
g6
sV41.159.0.3
p217
g6
sV128.199.173.151
p218
g6
sV98.23.186.166
p219
g6
sV175.45.92.162
p220
g6
sV62.227.198.24
p221
g6
sV68.186.50.29
p222
g6
sV190.52.191.50
p223
g6
sV67.43.216.130
p224
g6
sV84.44.160.230
p225
g6
sV54.207.52.19
p226
g6
sV173.215.247.253
p227
g6
sV79.226.115.105
p228
g6
sV201.237.119.150
p229
g6
sV101.200.192.204
p230
g6
sV200.166.254.242
p231
g6
sV35.185.99.82
p232
g6
sV217.165.113.138
p233
g6
sV186.209.31.65
p234
g6
sV81.82.36.47
p235
g6
sV223.197.229.34
p236
g6
sV128.140.218.96
p237
g6
sV194.213.44.45
p238
g6
sV217.92.22.12
p239
g6
sV72.67.86.15
p240
g6
sV82.135.27.167
p241
g6
sV82.79.184.241
p242
g6
sV86.125.99.232
p243
g6
sV140.247.116.186
p244
g6
sV173.231.129.197
p245
g6
sV94.103.42.8
p246
g6
sV116.50.224.197
p247
g6
sV74.223.13.154
p248
g6
sV111.93.49.2
p249
g6
sV188.109.104.91
p250
g6
sV203.125.13.118
p251
g6
sV124.158.6.211
p252
g6
sV201.158.223.170
p253
g6
sV88.198.22.184
p254
g6
sV78.46.44.206
p255
g6
sV187.34.126.60
p256
g6
sV70.38.55.2
p257
g6
sV52.11.207.17
p258
g6
sV220.246.76.78
p259
g6
sV186.208.65.76
p260
g6
sV168.187.98.175
p261
g6
sV70.38.55.3
p262
g6
sV128.211.239.54
p263
g6
sV182.239.169.101
p264
g6
sV74.63.50.186
p265
g6
sV201.175.12.107
p266
g6
sV185.26.171.186
p267
g6
sV79.118.135.27
p268
g6
sV89.212.244.39
p269
g6
sV74.63.50.180
p270
g6
sV139.124.244.85
p271
g6
sV35.185.52.254
p272
g6
sV114.34.79.94
p273
g6
sV69.167.139.82
p274
g6
sV89.216.122.97
p275
g6
sV62.28.225.59
p276
g6
sV194.141.4.18
p277
g6
sV91.75.35.6
p278
g6
sV217.8.62.237
p279
g6
sV201.55.140.36
p280
g6
sV50.155.205.197
p281
g6
sV50.242.57.197
p282
g6
sV208.110.65.107
p283
g6
sV112.120.91.78
p284
g6
sV45.55.75.125
p285
g6
sV171.34.78.113
p286
g6
sV122.227.225.76
p287
g6
sV181.209.239.156
p288
g6
sV88.26.252.210
p289
g6
sV177.134.41.154
p290
g6
sV91.121.223.89
p291
g6
sV210.187.31.221
p292
g6
sV86.43.98.147
p293
g6
sV83.111.38.136
p294
g6
sV219.145.109.30
p295
g6
sV5.9.240.86
p296
g6
sV223.197.202.224
p297
g6
sV123.56.157.215
p298
g6
sV77.238.99.52
p299
g6
sV187.60.50.64
p300
g6
sV38.124.174.112
p301
g6
sV192.185.150.70
p302
g6
sV200.21.193.181
p303
g6
sV5.135.195.225
p304
g6
sV187.60.50.63
p305
g6
sV84.200.85.44
p306
g6
sV186.42.186.170
p307
g6
sV85.126.85.98
p308
g6
sV183.62.220.180
p309
g6
sV80.162.199.244
p310
g6
sV187.141.145.3
p311
g6
sV112.120.66.132
p312
g6
sV187.16.4.41
p313
g6
sV217.160.110.108
p314
g6
sV151.80.135.206
p315
g6
sV203.86.153.103
p316
g6
sV85.99.108.2
p317
g6
sV173.180.44.190
p318
g6
sV197.253.22.245
p319
g6
sV200.80.201.217
p320
g6
sV201.120.73.231
p321
g6
sV52.38.210.15
p322
g6
sV186.46.6.178
p323
g6
sV64.13.205.190
p324
g6
sV140.114.38.250
p325
g6
sV121.123.150.51
p326
g6
sV190.19.31.185
p327
g6
sV188.40.83.88
p328
g6
sV192.99.220.97
p329
g6
sV218.103.32.123
p330
g6
sV114.143.192.179
p331
g6
sV108.61.155.22
p332
g6
sV209.87.234.94
p333
g6
sV186.95.39.83
p334
g6
sV79.172.201.107
p335
g6
sV75.99.179.38
p336
g6
sV74.93.155.13
p337
g6
sV68.37.66.18
p338
g6
sV41.204.84.211
p339
g6
sV222.231.24.83
p340
g6
sV212.45.30.220
p341
g6
sV118.101.11.84
p342
g6
sV92.234.245.120
p343
g6
sV220.167.118.181
p344
g6
sV62.160.48.103
p345
g6
sV178.33.116.51
p346
g6
sV188.247.61.90
p347
g6
sV138.94.113.178
p348
g6
sV50.6.0.253
p349
g6
sV73.219.119.153
p350
g6
sV85.105.39.251
p351
g6
sV203.128.246.254
p352
g6
sV223.197.163.170
p353
g6
sV95.68.252.180
p354
g6
sV184.177.173.169
p355
g6
sV78.186.195.129
p356
g6
sV158.106.204.226
p357
g6
sV191.85.172.168
p358
g6
sV91.183.201.229
p359
g6
sV12.43.127.202
p360
g6
sV42.200.250.178
p361
g6
sV200.206.219.9
p362
g6
sV64.237.211.20
p363
g6
sV120.24.210.119
p364
g6
sV190.188.100.156
p365
g6
sV104.17.104.235
p366
g6
sV211.240.71.38
p367
g6
sV54.254.183.8
p368
g6
sV58.152.39.63
p369
g6
sV54.173.70.146
p370
g6
sV52.76.102.231
p371
g6
sV82.208.131.132
p372
g6
sV213.97.227.152
p373
g6
sV104.199.231.18
p374
g6
sV178.248.39.150
p375
g6
sV179.51.74.5
p376
g6
sV213.77.26.86
p377
g6
sV213.77.26.87
p378
g6
sV223.197.184.174
p379
g6
sV213.77.26.85
p380
g6
sV108.61.221.125
p381
g6
sV179.153.38.196
p382
g6
sV104.19.0.105
p383
g6
sV85.236.191.80
p384
g6
sV89.239.191.69
p385
g6
sV65.38.211.147
p386
g6
sV175.138.66.100
p387
g6
sV212.175.88.247
p388
g6
sV12.71.140.107
p389
g6
sV24.139.11.69
p390
g6
sV24.249.193.235
p391
g6
sV163.200.81.94
p392
g6
sV219.76.187.218
p393
g6
sV201.86.187.31
p394
g6
sV23.30.73.254
p395
g6
sV24.218.54.49
p396
g6
sV120.76.154.191
p397
g6
sV132.255.29.227
p398
g6
sV203.116.137.100
p399
g6
sV223.197.146.79
p400
g6
sV223.197.234.72
p401
g6
sV177.69.250.65
p402
g6
sV190.248.136.53
p403
g6
sV218.100.84.180
p404
g6
sV185.110.20.170
p405
g6
sV43.242.241.218
p406
g6
sV45.117.239.197
p407
g6
sV46.101.238.243
p408
g6
sV87.106.136.145
p409
g6
sV80.152.253.191
p410
g6
sV79.229.173.118
p411
g6
sV188.85.159.185
p412
g6
sV217.253.99.113
p413
g6
sV194.250.50.137
p414
g6
sV185.110.20.35
p415
g6
sV175.136.242.41
p416
g6
sV46.101.199.59
p417
g6
sV219.76.179.37
p418
g6
sV182.19.4.220
p419
g6
sV93.211.178.14
p420
g6
sV200.88.48.173
p421
g6
sV84.246.0.193
p422
g6
sV92.212.27.28
p423
g6
sV93.207.56.18
p424
g6
sV187.17.169.2
p425
g6
sV169.50.202.156
p426
g6
sV72.10.34.188
p427
g6
sV167.250.177.178
p428
g6
sV49.231.149.16
p429
g6
sV213.114.239.155
p430
g6
sV80.18.171.82
p431
g6
sV54.145.241.36
p432
g6
sV129.82.109.193
p433
g6
sV98.174.175.34
p434
g6
sV194.2.189.71
p435
g6
sV186.155.192.149
p436
g6
sV104.196.114.170
p437
g6
sV200.145.241.88
p438
g6
sV41.33.225.82
p439
g6
sV41.33.225.83
p440
g6
sV149.5.2.36
p441
g6
sV209.207.237.189
p442
g6
sV54.213.142.168
p443
g6
sV5.179.74.44
p444
g6
sV41.33.225.85
p445
g6
sV200.33.31.116
p446
g6
sV41.33.225.88
p447
g6
sV52.87.36.190
p448
g6
sV208.180.143.219
p449
g6
sV74.121.190.252
p450
g6
sV139.162.191.146
p451
g6
sV94.56.90.60
p452
g6
sV51.255.53.76
p453
g6
sV95.168.206.93
p454
g6
sV223.197.178.94
p455
g6
sV83.254.134.36
p456
g6
sV124.43.80.61
p457
g6
sV2.234.230.253
p458
g6
sV74.90.132.139
p459
g6
sV116.48.153.74
p460
g6
sV46.13.165.206
p461
g6
sV108.161.132.109
p462
g6
sV119.36.145.35
p463
g6
sV217.92.53.211
p464
g6
sV176.222.88.218
p465
g6
sV73.150.147.161
p466
g6
sV217.130.245.41
p467
g6
sV190.80.252.107
p468
g6
sV182.92.170.25
p469
g6
sV177.101.124.179
p470
g6
sV219.76.190.200
p471
g6
sV72.197.12.43
p472
g6
sV104.36.17.83
p473
g6
sV86.20.238.156
p474
g6
sV220.246.64.95
p475
g6
sV210.1.85.146
p476
g6
sV52.3.47.23
p477
g6
sV108.166.29.202
p478
g6
sV220.246.206.197
p479
g6
sV177.220.165.5
p480
g6
sV177.220.165.2
p481
g6
sV52.77.158.187
p482
g6
sV201.238.248.158
p483
g6
sV104.25.15.85
p484
g6
sV200.79.225.84
p485
g6
sV91.16.38.15
p486
g6
sV200.42.164.155
p487
g6
sV162.242.209.38
p488
g6
sV201.238.248.159
p489
g6
sV84.238.5.42
p490
g6
sV190.121.226.108
p491
g6
sV187.75.193.11
p492
g6
sV42.3.238.185
p493
g6
sV62.67.57.158
p494
g6
sV178.4.96.103
p495
g6
sV42.200.202.234
p496
g6
sV192.34.86.45
p497
g6
sV185.10.114.91
p498
g6
sV201.222.53.242
p499
g6
sV199.47.100.230
p500
g6
sV84.175.202.238
p501
g6
sV188.26.123.222
p502
g6
sV80.82.150.134
p503
g6
sV91.196.159.66
p504
g6
sV218.103.127.170
p505
g6
sV58.152.72.65
p506
g6
sV116.228.168.118
p507
g6
sV80.153.198.122
p508
g6
sV187.146.97.105
p509
g6
sV189.225.155.85
p510
g6
sV86.47.50.200
p511
g6
sV176.98.127.191
p512
g6
sV208.80.183.17
p513
g6
sV85.255.15.115
p514
g6
sV54.84.240.216
p515
g6
sV223.197.129.122
p516
g6
sV50.207.19.122
p517
g6
sV87.237.15.216
p518
g6
sV85.181.197.208
p519
g6
sV220.246.64.122
p520
g6
sV191.101.3.230
p521
g6
sV211.218.145.222
p522
g6
sV219.145.152.62
p523
g6
sV84.134.128.98
p524
g6
sV219.79.172.86
p525
g6
sV23.25.129.196
p526
g6
sV201.234.81.60
p527
g6
sV14.141.118.67
p528
g6
sV133.242.16.26
p529
g6
sV84.232.55.238
p530
g6
sV82.127.101.116
p531
g6
sV79.134.23.48
p532
g6
sV223.197.202.96
p533
g6
sV104.131.23.45
p534
g6
sV85.71.99.45
p535
g6
sV80.76.166.62
p536
g6
sV80.69.162.116
p537
g6
sV138.197.48.193
p538
g6
sV213.56.231.176
p539
g6
sV122.112.217.110
p540
g6
sV117.3.70.65
p541
g6
sV103.195.236.103
p542
g6
sV186.251.24.36
p543
g6
sV52.31.178.92
p544
g6
sV87.187.235.248
p545
g6
sV41.33.225.84
p546
g6
sV190.194.46.52
p547
g6
sV50.156.159.70
p548
g6
sV170.185.232.22
p549
g6
sV45.32.8.117
p550
g6
sV183.89.93.165
p551
g6
sV125.35.14.11
p552
g6
sV70.102.137.225
p553
g6
sV47.88.60.4
p554
g6
sV177.101.125.67
p555
g6
sV73.254.12.47
p556
g6
sV180.211.97.35
p557
g6
sV116.48.128.61
p558
g6
sV188.97.177.27
p559
g6
sV193.227.5.221
p560
g6
sV104.46.105.108
p561
g6
sV141.105.125.124
p562
g6
sV194.78.164.114
p563
g6
sV124.43.68.136
p564
g6
sV42.200.171.31
p565
g6
sV190.104.179.98
p566
g6
sV176.123.217.28
p567
g6
sV66.221.171.74
p568
g6
sV178.248.39.104
p569
g6
sV212.123.229.245
p570
g6
sV213.42.88.54
p571
g6
sV179.190.28.61
p572
g6
sV68.4.250.175
p573
g6
sV220.246.112.81
p574
g6
sV223.197.220.103
p575
g6
sV86.123.150.246
p576
g6
sV182.139.132.196
p577
g6
sV86.123.150.245
p578
g6
sV188.128.161.39
p579
g6
sV82.70.38.142
p580
g6
sV42.200.236.196
p581
g6
sV79.210.84.152
p582
g6
sV217.92.59.87
p583
g6
sV218.103.121.103
p584
g6
sV188.26.122.59
p585
g6
sV116.48.157.117
p586
g6
sV208.70.196.25
p587
g6
sV112.120.72.219
p588
g6
sV108.80.69.65
p589
g6
sV217.82.59.175
p590
g6
sV223.197.242.240
p591
g6
sV209.197.117.170
p592
g6
sV85.13.147.113
p593
g6
sV58.177.214.197
p594
g6
sV86.51.187.102
p595
g6
sV202.212.213.173
p596
g6
sV104.236.218.193
p597
g6
sV104.209.137.118
p598
g6
sV80.11.224.25
p599
g6
sV206.16.57.61
p600
g6
sV200.89.183.250
p601
g6
sV140.113.235.180
p602
g6
sV89.205.89.29
p603
g6
sV85.196.184.40
p604
g6
sV112.120.77.223
p605
g6
sV91.58.122.182
p606
g6
sV223.197.239.231
p607
g6
sV173.231.129.222
p608
g6
sV49.156.42.246
p609
g6
sV173.231.129.220
p610
g6
sV96.38.32.130
p611
g6
sV74.63.50.191
p612
g6
sV74.63.50.190
p613
g6
sV173.199.177.127
p614
g6
sV200.24.214.86
p615
g6
sV186.249.1.136
p616
g6
sV85.13.240.94
p617
g6
sV213.158.103.105
p618
g6
sV216.80.7.15
p619
g6
sV64.150.177.14
p620
g6
sV92.60.108.156
p621
g6
sV203.113.115.116
p622
g6
sV79.235.165.125
p623
g6
sV118.166.254.189
p624
g6
sV71.174.92.130
p625
g6
sV68.179.69.49
p626
g6
sV195.146.148.82
p627
g6
sV196.0.7.186
p628
g6
sV212.33.231.11
p629
g6
sV120.131.8.223
p630
g6
sV202.175.98.138
p631
g6
sV71.92.53.230
p632
g6
sV5.135.195.226
p633
g6
sV36.229.128.86
p634
g6
sV112.120.110.75
p635
g6
sV50.200.149.53
p636
g6
sV82.68.126.227
p637
g6
sV162.243.1.130
p638
g6
sV190.216.194.73
p639
g6
sV77.89.79.88
p640
g6
sV201.83.22.108
p641
g6
sV175.139.195.133
p642
g6
sV74.81.64.46
p643
g6
sV91.43.59.153
p644
g6
sV195.154.134.16
p645
g6
sV14.141.33.202
p646
g6
sV108.167.191.54
p647
g6
sV203.117.49.102
p648
g6
sV206.16.57.17
p649
g6
sV5.2.156.103
p650
g6
sV93.239.245.156
p651
g6
sV45.56.219.251
p652
g6
sV223.165.66.54
p653
g6
sV193.238.149.214
p654
g6
sV87.139.139.212
p655
g6
sV62.149.232.204
p656
g6
sV50.196.8.193
p657
g6
sV210.187.19.28
p658
g6
sV218.103.115.11
p659
g6
sV187.60.214.90
p660
g6
sV193.238.149.218
p661
g6
sV52.88.246.5
p662
g6
sV90.190.254.222
p663
g6
sV116.228.167.147
p664
g6
sV89.135.52.5
p665
g6
sV187.33.208.138
p666
g6
sV184.168.147.170
p667
g6
sV112.120.90.29
p668
g6
sV217.92.197.98
p669
g6
sV144.76.109.77
p670
g6
sV59.42.53.243
p671
g6
sV54.153.54.246
p672
g6
sV191.252.64.75
p673
g6
sV62.89.32.251
p674
g6
sV60.250.240.117
p675
g6
sV187.217.87.235
p676
g6
sV216.97.233.40
p677
g6
sV196.203.248.178
p678
g6
sV92.222.232.82
p679
g6
sV84.160.124.49
p680
g6
sV123.56.129.117
p681
g6
sV188.165.218.196
p682
g6
sV213.123.192.115
p683
g6
sV166.142.24.231
p684
g6
sV82.77.200.80
p685
g6
sV75.145.166.5
p686
g6
sV75.145.166.4
p687
g6
sV220.246.79.174
p688
g6
sV181.166.87.250
p689
g6
sV54.233.142.202
p690
g6
sV200.165.106.254
p691
g6
sV80.147.214.14
p692
g6
sV113.52.45.106
p693
g6
sV124.43.85.47
p694
g6
sV134.213.219.94
p695
g6
sV195.37.211.34
p696
g6
sV181.120.253.174
p697
g6
sV218.103.121.61
p698
g6
sV89.207.111.248
p699
g6
sV202.43.74.149
p700
g6
sV93.62.73.141
p701
g6
sV52.91.36.185
p702
g6
sV124.49.112.185
p703
g6
sV220.246.44.27
p704
g6
sV92.74.122.209
p705
g6
sV62.161.100.216
p706
g6
sV52.73.117.168
p707
g6
sV41.76.193.104
p708
g6
sV190.80.165.72
p709
g6
sV192.185.63.133
p710
g6
sV88.132.200.124
p711
g6
sV54.193.112.30
p712
g6
sV119.81.118.39
p713
g6
sV62.138.247.226
p714
g6
sV203.198.151.228
p715
g6
sV223.197.242.204
p716
g6
sV45.56.90.209
p717
g6
sV103.228.254.142
p718
g6
sV187.62.208.110
p719
g6
sV220.246.35.71
p720
g6
sV54.186.214.117
p721
g6
sV203.198.151.223
p722
g6
sV69.64.49.142
p723
g6
sV65.38.211.146
p724
g6
sV58.152.12.46
p725
g6
sV89.251.44.143
p726
g6
sV70.35.202.142
p727
g6
sV52.173.188.201
p728
g6
sV201.39.164.106
p729
g6
sV176.115.95.77
p730
g6
sV89.213.18.121
p731
g6
sV79.193.249.22
p732
g6
sV173.248.132.169
p733
g6
sV196.15.208.199
p734
g6
sV50.204.130.205
p735
g6
sV84.244.91.3
p736
g6
sV116.50.244.10
p737
g6
sV91.59.90.88
p738
g6
sV213.211.47.138
p739
g6
sV202.77.50.130
p740
g6
sV84.140.115.55
p741
g6
sV200.42.149.196
p742
g6
sV179.111.213.6
p743
g6
sV187.75.163.32
p744
g6
sV85.25.119.138
p745
g6
sV212.154.154.214
p746
g6
sV54.93.39.203
p747
g6
sV58.152.41.153
p748
g6
sV201.9.12.14
p749
g6
sV74.124.164.92
p750
g6
sV124.82.216.154
p751
g6
sV221.186.135.77
p752
g6
sV220.246.75.166
p753
g6
sV74.124.164.95
p754
g6
sV213.32.14.57
p755
g6
sV69.164.192.31
p756
g6
sV177.250.29.71
p757
g6
sV82.114.69.218
p758
g6
sV61.185.48.182
p759
g6
sV50.28.48.92
p760
g6
sV83.110.13.135
p761
g6
sV82.69.8.177
p762
g6
sV41.33.16.59
p763
g6
sV216.161.180.151
p764
g6
sV88.212.11.111
p765
g6
sV206.190.205.26
p766
g6
sV42.200.227.61
p767
g6
sV212.175.88.242
p768
g6
sV62.28.33.122
p769
g6
sV103.6.205.164
p770
g6
sV220.246.46.64
p771
g6
sV42.200.204.1
p772
g6
sV69.127.113.50
p773
g6
sV88.198.219.19
p774
g6
sV98.23.186.163
p775
g6
sV203.198.124.41
p776
g6
sV98.23.186.161
p777
g6
sV98.23.186.160
p778
g6
sV98.23.186.167
p779
g6
sV103.15.60.95
p780
g6
sV98.23.186.165
p781
g6
sV104.131.15.238
p782
g6
sV87.138.112.113
p783
g6
sV98.23.186.168
p784
g6
sV138.201.254.160
p785
g6
sV201.33.200.18
p786
g6
sV5.9.34.41
p787
g6
sV116.48.155.164
p788
g6
sV67.205.112.138
p789
g6
sV40.127.180.216
p790
g6
sV96.235.22.43
p791
g6
sV80.69.162.115
p792
g6
sV92.66.6.126
p793
g6
sV88.248.192.152
p794
g6
sV88.212.52.95
p795
g6
sV82.165.46.37
p796
g6
sV51.255.55.85
p797
g6
sV50.202.91.36
p798
g6
sV121.41.41.45
p799
g6
sV67.14.253.154
p800
g6
sV46.229.182.100
p801
g6
sV217.125.83.35
p802
g6
sV192.5.186.52
p803
g6
sV173.231.129.216
p804
g6
sV173.231.129.215
p805
g6
sV188.231.1.180
p806
g6
sV173.231.129.212
p807
g6
sV173.231.129.210
p808
g6
sV95.168.200.217
p809
g6
sV213.3.17.36
p810
g6
sV198.136.50.201
p811
g6
sV94.97.125.121
p812
g6
sV27.251.120.242
p813
g6
sV78.188.217.137
p814
g6
sV54.200.46.253
p815
g6
sV66.228.115.98
p816
g6
sV203.198.133.186
p817
g6
sV51.255.53.132
p818
g6
sV46.92.61.6
p819
g6
sV152.173.149.153
p820
g6
sV212.175.88.248
p821
g6
sV2.229.6.6
p822
g6
sV54.255.145.34
p823
g6
sV79.112.4.96
p824
g6
sV38.65.136.143
p825
g6
sV220.130.12.233
p826
g6
sV218.161.88.91
p827
g6
sV52.203.41.221
p828
g6
sV122.1.220.25
p829
g6
sV79.252.223.146
p830
g6
sV177.135.122.20
p831
g6
sV62.161.120.7
p832
g6
sV217.155.34.166
p833
g6
sV97.79.199.22
p834
g6
sV88.150.170.215
p835
g6
sV78.245.88.194
p836
g6
sV216.1.187.167
p837
g6
sV218.103.120.242
p838
g6
sV203.127.71.88
p839
g6
sV190.242.37.84
p840
g6
sV177.72.147.215
p841
g6
sV220.246.77.191
p842
g6
sV81.133.46.148
p843
g6
sV81.133.46.149
p844
g6
sV81.133.46.146
p845
g6
sV189.14.87.138
p846
g6
sV46.86.15.45
p847
g6
sV58.7.218.70
p848
g6
sV112.121.130.254
p849
g6
sV178.63.17.205
p850
g6
sV91.221.177.59
p851
g6
sV139.224.224.191
p852
g6
sV190.2.72.97
p853
g6
sV88.198.33.201
p854
g6
sV177.188.5.132
p855
g6
sV119.81.101.252
p856
g6
sV223.197.253.180
p857
g6
sV123.56.177.106
p858
g6
sV62.33.39.71
p859
g6
sV84.90.166.214
p860
g6
sV128.97.39.180
p861
g6
sV195.81.66.137
p862
g6
sV81.184.4.81
p863
g6
sV95.183.198.131
p864
g6
sV52.64.105.255
p865
g6
sV220.246.75.34
p866
g6
sV92.249.74.160
p867
g6
sV87.191.154.92
p868
g6
sV62.161.105.118
p869
g6
sV109.106.53.8
p870
g6
sV144.160.16.98
p871
g6
sV217.92.183.184
p872
g6
sV36.225.32.6
p873
g6
sV91.235.165.46
p874
g6
sV189.50.2.162
p875
g6
sV42.200.237.145
p876
g6
sV210.195.119.171
p877
g6
sV52.91.217.31
p878
g6
sV109.167.58.67
p879
g6
sV179.111.220.199
p880
g6
sV109.109.138.171
p881
g6
sV65.50.255.18
p882
g6
sV133.18.96.58
p883
g6
sV89.37.29.29
p884
g6
sV91.250.82.245
p885
g6
sV69.55.137.214
p886
g6
sV159.203.113.117
p887
g6
sV42.200.244.41
p888
g6
sV68.11.223.20
p889
g6
sV82.208.53.115
p890
g6
sV210.61.49.241
p891
g6
sV45.33.100.9
p892
g6
sV81.218.41.96
p893
g6
sV66.146.122.158
p894
g6
sV74.121.190.251
p895
g6
sV198.1.78.233
p896
g6
sV167.21.98.11
p897
g6
sV217.25.27.206
p898
g6
sV219.76.188.165
p899
g6
sV45.52.3.125
p900
g6
sV189.115.46.164
p901
g6
sV5.154.56.189
p902
g6
sV72.14.187.103
p903
g6
sV173.219.41.8
p904
g6
sV41.224.13.106
p905
g6
sV89.96.48.36
p906
g6
sV68.157.192.10
p907
g6
sV90.75.216.146
p908
g6
sV178.208.141.180
p909
g6
sV50.6.209.111
p910
g6
sV50.164.91.183
p911
g6
sV82.77.201.239
p912
g6
sV177.9.216.250
p913
g6
sV200.204.160.17
p914
g6
sV194.2.32.24
p915
g6
sV40.87.66.201
p916
g6
sV46.45.136.126
p917
g6
sV201.49.29.18
p918
g6
sV206.193.219.150
p919
g6
sV85.152.4.140
p920
g6
sV186.194.224.105
p921
g6
sV186.195.80.77
p922
g6
sV84.192.114.213
p923
g6
sV186.209.163.95
p924
g6
sV178.254.34.169
p925
g6
sV112.120.72.171
p926
g6
sV202.170.126.181
p927
g6
sV220.246.112.59
p928
g6
sV88.141.144.193
p929
g6
sV121.242.77.202
p930
g6
sV79.248.176.155
p931
g6
sV188.231.1.236
p932
g6
sV217.12.181.173
p933
g6
sV177.39.55.164
p934
g6
sV104.196.211.133
p935
g6
sV210.86.138.4
p936
g6
sV219.76.132.93
p937
g6
sV107.1.121.114
p938
g6
sV188.27.232.39
p939
g6
sV78.188.171.101
p940
g6
sV119.11.243.94
p941
g6
sV45.79.149.59
p942
g6
sV165.255.184.141
p943
g6
sV184.61.25.97
p944
g6
sV85.13.240.85
p945
g6
sV85.13.240.86
p946
g6
sV54.70.1.113
p947
g6
sV185.7.254.33
p948
g6
sV106.248.227.163
p949
g6
sV218.103.121.20
p950
g6
sV112.120.79.99
p951
g6
sV179.61.83.79
p952
g6
sV200.217.24.30
p953
g6
sV80.28.115.195
p954
g6
sV181.47.24.241
p955
g6
sV223.197.202.162
p956
g6
sV188.165.233.145
p957
g6
sV51.254.135.114
p958
g6
sV216.53.206.228
p959
g6
sV212.18.43.107
p960
g6
sV212.175.88.249
p961
g6
sV104.169.27.130
p962
g6
sV198.20.116.236
p963
g6
sV77.93.128.10
p964
g6
sV51.255.55.86
p965
g6
sV77.43.77.237
p966
g6
sV58.152.110.97
p967
g6
sV84.232.146.190
p968
g6
sV58.137.154.119
p969
g6
sV223.197.237.233
p970
g6
sV179.190.28.244
p971
g6
sV98.23.186.162
p972
g6
sV220.246.33.45
p973
g6
sV177.36.9.50
p974
g6
sV190.144.124.75
p975
g6
sV203.190.173.81
p976
g6
sV52.3.210.82
p977
g6
sV181.167.131.35
p978
g6
sV104.196.219.48
p979
g6
sV207.157.12.4
p980
g6
sV188.138.75.221
p981
g6
sV83.208.111.243
p982
g6
sV93.237.145.105
p983
g6
sV178.156.171.19
p984
g6
sV192.252.215.177
p985
g6
sV50.77.152.10
p986
g6
sV107.190.140.10
p987
g6
sV185.58.73.212
p988
g6
sV186.4.186.124
p989
g6
sV88.85.239.100
p990
g6
sV78.37.124.252
p991
g6
sV96.88.75.68
p992
g6
sV98.23.186.164
p993
g6
sV188.175.31.10
p994
g6
sV187.73.210.233
p995
g6
sV24.139.44.195
p996
g6
sV50.207.19.115
p997
g6
sV87.58.249.138
p998
g6
sV90.181.192.66
p999
g6
sV14.192.17.132
p1000
g6
sV177.34.248.132
p1001
g6
sV87.189.43.191
p1002
g6
sV73.88.137.91
p1003
g6
sV122.146.92.88
p1004
g6
sV79.184.209.155
p1005
g6
sV190.128.16.59
p1006
g6
sV86.123.150.247
p1007
g6
sV191.178.34.21
p1008
g6
sV73.10.109.228
p1009
g6
sV23.249.100.91
p1010
g6
sV212.156.91.238
p1011
g6
sV177.43.57.60
p1012
g6
sV210.208.104.163
p1013
g6
sV71.60.3.239
p1014
g6
sV5.154.57.202
p1015
g6
sV164.132.105.141
p1016
g6
sV220.133.18.178
p1017
g6
sV78.187.24.144
p1018
g6
sV223.197.177.79
p1019
g6
sV220.246.41.48
p1020
g6
sV54.67.47.149
p1021
g6
sV187.109.97.114
p1022
g6
sV74.194.195.239
p1023
g6
sV200.46.249.101
p1024
g6
sV54.227.174.163
p1025
g6
sV82.77.200.118
p1026
g6
sV199.96.0.20
p1027
g6
sV209.5.230.242
p1028
g6
sV52.53.237.159
p1029
g6
sV200.78.231.195
p1030
g6
sV200.105.112.174
p1031
g6
sV177.12.226.242
p1032
g6
sV186.137.97.40
p1033
g6
sV187.60.52.96
p1034
g6
sV196.6.103.210
p1035
g6
sV124.107.138.238
p1036
g6
sV187.19.10.43
p1037
g6
sV59.106.32.125
p1038
g6
sV176.9.24.45
p1039
g6
sV198.91.91.61
p1040
g6
sV190.165.160.238
p1041
g6
sV200.98.129.43
p1042
g6
sV201.131.12.60
p1043
g6
sV213.80.171.54
p1044
g6
sV50.7.99.74
p1045
g6
sV96.9.1.112
p1046
g6
sV198.50.220.173
p1047
g6
sV87.236.246.28
p1048
g6
sV189.109.26.2
p1049
g6
sV133.18.96.57
p1050
g6
sV27.254.88.130
p1051
g6
sV31.147.204.111
p1052
g6
sV72.38.5.89
p1053
g6
sV41.222.123.5
p1054
g6
sV112.120.67.249
p1055
g6
sV179.184.44.116
p1056
g6
sV187.62.208.107
p1057
g6
sV208.101.63.211
p1058
g6
sV179.234.2.53
p1059
g6
sV75.103.79.226
p1060
g6
sV223.197.239.80
p1061
g6
sV54.202.181.129
p1062
g6
sV42.200.192.128
p1063
g6
sV217.248.78.21
p1064
g6
sV59.120.185.135
p1065
g6
sV173.231.129.196
p1066
g6
sV96.38.34.222
p1067
g6
sV195.227.96.126
p1068
g6
sV173.231.129.192
p1069
g6
sV173.231.129.193
p1070
g6
sV190.60.232.197
p1071
g6
sV190.57.239.66
p1072
g6
sV81.171.251.114
p1073
g6
sV202.75.100.210
p1074
g6
sV104.25.230.131
p1075
g6
sV183.88.84.125
p1076
g6
sV219.76.176.66
p1077
g6
sV220.246.79.113
p1078
g6
sV27.114.136.149
p1079
g6
sV86.65.174.69
p1080
g6
sV42.200.198.229
p1081
g6
sV80.96.122.50
p1082
g6
sV50.196.205.249
p1083
g6
sV177.43.48.163
p1084
g6
sV42.200.249.73
p1085
g6
sV91.176.214.51
p1086
g6
sV129.170.224.246
p1087
g6
sV91.120.36.229
p1088
g6
sV45.58.42.164
p1089
g6
sV189.36.196.158
p1090
g6
sV162.220.112.42
p1091
g6
sV138.68.230.99
p1092
g6
sV82.222.45.115
p1093
g6
sV189.152.73.68
p1094
g6
sV203.198.248.151
p1095
g6
sV36.226.43.202
p1096
g6
sV223.197.182.23
p1097
g6
sV206.16.57.55
p1098
g6
sV182.48.119.151
p1099
g6
sV91.191.151.101
p1100
g6
sV94.231.104.182
p1101
g6
sV62.210.72.150
p1102
g6
sV91.191.151.104
p1103
g6
sV98.23.186.174
p1104
g6
sV98.23.186.175
p1105
g6
sV200.162.141.243
p1106
g6
sV93.239.29.201
p1107
g6
sV98.23.186.171
p1108
g6
sV98.23.186.172
p1109
g6
sV207.204.86.156
p1110
g6
sV87.189.194.219
p1111
g6
sV96.231.207.20
p1112
g6
sV189.212.167.173
p1113
g6
sV104.47.153.25
p1114
g6
sV86.126.87.104
p1115
g6
sV199.6.26.56
p1116
g6
sV149.168.254.96
p1117
g6
sV94.142.237.64
p1118
g6
sV156.34.63.92
p1119
g6
sV79.232.62.12
p1120
g6
sV72.249.76.43
p1121
g6
sV104.46.108.32
p1122
g6
sV66.191.238.126
p1123
g6
sV200.203.125.155
p1124
g6
sV176.53.118.196
p1125
g6
sV143.192.97.178
p1126
g6
sV84.137.155.192
p1127
g6
sV121.208.235.87
p1128
g6
sV52.187.188.219
p1129
g6
sV52.18.238.227
p1130
g6
sV196.219.194.180
p1131
g6
sV193.214.111.209
p1132
g6
sV211.174.239.151
p1133
g6
sV116.48.134.121
p1134
g6
sV197.156.116.53
p1135
g6
sV23.21.162.66
p1136
g6
sV220.132.185.167
p1137
g6
sV212.160.235.74
p1138
g6
sV173.231.129.204
p1139
g6
sV200.157.14.99
p1140
g6
sV104.236.100.14
p1141
g6
sV173.231.129.201
p1142
g6
sV58.152.78.47
p1143
g6
sV86.109.72.14
p1144
g6
sV206.69.163.116
p1145
g6
sV131.255.20.44
p1146
g6
sV209.182.104.4
p1147
g6
sV201.53.37.100
p1148
g6
sV220.135.101.59
p1149
g6
sV52.8.138.24
p1150
g6
sV213.56.231.160
p1151
g6
sV212.175.88.226
p1152
g6
sV124.82.4.233
p1153
g6
sV212.175.88.225
p1154
g6
sV190.244.179.92
p1155
g6
sV37.58.70.213
p1156
g6
sV42.200.252.163
p1157
g6
sV201.48.152.98
p1158
g6
sV159.174.184.20
p1159
g6
sV212.175.88.228
p1160
g6
sV23.235.226.158
p1161
g6
sV208.178.179.2
p1162
g6
sV203.30.237.59
p1163
g6
sV83.111.146.37
p1164
g6
sV50.62.140.107
p1165
g6
sV185.21.146.38
p1166
g6
sV177.22.43.59
p1167
g6
sV34.196.107.188
p1168
g6
sV213.32.68.20
p1169
g6
sV199.217.117.162
p1170
g6
sV177.220.144.3
p1171
g6
sV179.53.140.91
p1172
g6
sV201.238.248.133
p1173
g6
sV66.228.115.99
p1174
g6
sV203.198.147.107
p1175
g6
sV87.233.217.83
p1176
g6
sV94.56.128.123
p1177
g6
sV93.213.221.65
p1178
g6
sV218.103.37.207
p1179
g6
sV200.98.64.85
p1180
g6
sV69.1.141.60
p1181
g6
sV213.77.26.81
p1182
g6
sV123.56.170.139
p1183
g6
sV23.102.61.200
p1184
g6
sV113.31.81.79
p1185
g6
sV50.92.142.133
p1186
g6
sV190.116.39.38
p1187
g6
sV83.170.113.194
p1188
g6
sV222.33.46.114
p1189
g6
sV79.96.33.115
p1190
g6
sV200.41.95.158
p1191
g6
sV220.246.47.157
p1192
g6
sV41.33.131.163
p1193
g6
sV77.246.211.199
p1194
g6
sV62.226.201.182
p1195
g6
sV66.228.115.97
p1196
g6
sV179.52.157.251
p1197
g6
sV52.15.139.40
p1198
g6
sV201.161.12.60
p1199
g6
sV37.205.121.39
p1200
g6
sV204.122.20.7
p1201
g6
sV91.35.50.170
p1202
g6
sV187.186.5.119
p1203
g6
sV203.198.137.168
p1204
g6
sV82.153.190.197
p1205
g6
sV68.186.244.101
p1206
g6
sV78.187.238.29
p1207
g6
sV220.137.4.193
p1208
g6
sV212.175.88.252
p1209
g6
sV104.236.147.156
p1210
g6
sV203.198.140.95
p1211
g6
sV191.115.133.173
p1212
g6
sV94.56.72.64
p1213
g6
sV177.130.63.102
p1214
g6
sV168.227.228.66
p1215
g6
sV177.139.140.242
p1216
g6
sV93.223.19.66
p1217
g6
sV213.153.182.82
p1218
g6
sV223.255.131.210
p1219
g6
sV80.19.120.228
p1220
g6
sV177.95.66.22
p1221
g6
sV115.160.240.150
p1222
g6
sV121.161.10.210
p1223
g6
sV50.248.80.195
p1224
g6
sV223.197.186.82
p1225
g6
sV216.237.16.150
p1226
g6
sV184.61.25.98
p1227
g6
sV164.132.141.199
p1228
g6
sV217.231.36.103
p1229
g6
sV208.104.92.202
p1230
g6
sV112.120.79.143
p1231
g6
sV89.204.242.186
p1232
g6
sg9
g6
sV223.197.201.151
p1233
g6
s.