(dp0
V38.122.247.222
p1
ccopy_reg
_reconstructor
p2
(cip
IP
p3
c__builtin__
object
p4
Ntp5
Rp6
(dp7
S'ip'
p8
g1
sS'rank'
p9
F0.0
sS'netblock'
p10
V38.122.247.0
p11
sS'lastseen'
p12
S''
p13
sS'asname'
p14
g13
sS'asn'
p15
V174
p16
sS'firstseen'
p17
g13
sbsV201.235.76.117
p18
g2
(g3
g4
Ntp19
Rp20
(dp21
g8
g18
sg9
F0.0
sg10
V201.235.76.0
p22
sg12
g13
sg14
g13
sg15
V10481
p23
sg17
g13
sbsV42.200.252.13
p24
g2
(g3
g4
Ntp25
Rp26
(dp27
g8
g24
sg9
F0.0
sg10
V42.200.252.0
p28
sg12
g13
sg14
g13
sg15
V4760
p29
sg17
g13
sbsV190.14.240.206
p30
g2
(g3
g4
Ntp31
Rp32
(dp33
g8
g30
sg9
F0.0
sg10
V190.14.240.0
p34
sg12
g13
sg14
g13
sg15
V27951
p35
sg17
g13
sbsV217.91.99.151
p36
g2
(g3
g4
Ntp37
Rp38
(dp39
g8
g36
sg9
F0.0
sg10
V217.91.99.0
p40
sg12
g13
sg14
g13
sg15
V3320
p41
sg17
g13
sbsV190.151.33.14
p42
g2
(g3
g4
Ntp43
Rp44
(dp45
g8
g42
sg9
F0.0
sg10
V190.151.33.0
p46
sg12
g13
sg14
g13
sg15
V6471
p47
sg17
g13
sbsV117.102.119.155
p48
g2
(g3
g4
Ntp49
Rp50
(dp51
g8
g48
sg9
F0.0
sg10
V117.102.119.0
p52
sg12
g13
sg14
g13
sg15
V17451
p53
sg17
g13
sbsV130.149.22.165
p54
g2
(g3
g4
Ntp55
Rp56
(dp57
g8
g54
sg9
F0.0
sg10
V130.149.22.0
p58
sg12
g13
sg14
g13
sg15
V680
p59
sg17
g13
sbsV23.99.59.128
p60
g2
(g3
g4
Ntp61
Rp62
(dp63
g8
g60
sg9
F0.0
sg10
V23.99.59.0
p64
sg12
g13
sg14
g13
sg15
V8075
p65
sg17
g13
sbsV187.63.193.110
p66
g2
(g3
g4
Ntp67
Rp68
(dp69
g8
g66
sg9
F0.0
sg10
V187.63.193.0
p70
sg12
g13
sg14
g13
sg15
V53050
p71
sg17
g13
sbsV24.206.14.37
p72
g2
(g3
g4
Ntp73
Rp74
(dp75
g8
g72
sg9
F0.0
sg10
V24.206.14.0
p76
sg12
g13
sg14
g13
sg15
V15146
p77
sg17
g13
sbsV155.93.142.227
p78
g2
(g3
g4
Ntp79
Rp80
(dp81
g8
g78
sg9
F0.0
sg10
V155.93.142.0
p82
sg12
g13
sg14
g13
sg15
V37680
p83
sg17
g13
sbsV71.8.207.70
p84
g2
(g3
g4
Ntp85
Rp86
(dp87
g8
g84
sg9
F0.0
sg10
V71.8.207.0
p88
sg12
g13
sg14
g13
sg15
V20115
p89
sg17
g13
sbsV14.136.206.197
p90
g2
(g3
g4
Ntp91
Rp92
(dp93
g8
g90
sg9
F0.0
sg10
V14.136.206.0
p94
sg12
g13
sg14
g13
sg15
V10103
p95
sg17
g13
sbsV77.40.152.130
p96
g2
(g3
g4
Ntp97
Rp98
(dp99
g8
g96
sg9
F0.0
sg10
V77.40.152.0
p100
sg12
g13
sg14
g13
sg15
V5381
p101
sg17
g13
sbsV186.219.48.66
p102
g2
(g3
g4
Ntp103
Rp104
(dp105
g8
g102
sg9
F0.0
sg10
V186.219.48.0
p106
sg12
g13
sg14
g13
sg15
V52678
p107
sg17
g13
sbsV123.57.157.242
p108
g2
(g3
g4
Ntp109
Rp110
(dp111
g8
g108
sg9
F0.0
sg10
V123.57.157.0
p112
sg12
g13
sg14
g13
sg15
V37963
p113
sg17
g13
sbsV117.27.89.146
p114
g2
(g3
g4
Ntp115
Rp116
(dp117
g8
g114
sg9
F0.0
sg10
V117.27.89.0
p118
sg12
g13
sg14
g13
sg15
V4134
p119
sg17
g13
sbsV220.137.9.189
p120
g2
(g3
g4
Ntp121
Rp122
(dp123
g8
g120
sg9
F0.0
sg10
V220.137.9.0
p124
sg12
g13
sg14
g13
sg15
V3462
p125
sg17
g13
sbsV98.172.81.119
p126
g2
(g3
g4
Ntp127
Rp128
(dp129
g8
g126
sg9
F0.0
sg10
V98.172.81.0
p130
sg12
g13
sg14
g13
sg15
V22773
p131
sg17
g13
sbsV196.61.11.107
p132
g2
(g3
g4
Ntp133
Rp134
(dp135
g8
g132
sg9
F0.0
sg10
V196.61.11.0
p136
sg12
g13
sg14
g13
sg15
V328075
p137
sg17
g13
sbsV112.74.219.18
p138
g2
(g3
g4
Ntp139
Rp140
(dp141
g8
g138
sg9
F0.0
sg10
V112.74.219.0
p142
sg12
g13
sg14
g13
sg15
V37963
p143
sg17
g13
sbsV67.23.249.9
p144
g2
(g3
g4
Ntp145
Rp146
(dp147
g8
g144
sg9
F0.0
sg10
V67.23.249.0
p148
sg12
g13
sg14
g13
sg15
V33182
p149
sg17
g13
sbsV193.226.169.146
p150
g2
(g3
g4
Ntp151
Rp152
(dp153
g8
g150
sg9
F0.0
sg10
V193.226.169.0
p154
sg12
g13
sg14
g13
sg15
V5588
p155
sg17
g13
sbsV190.216.202.25
p156
g2
(g3
g4
Ntp157
Rp158
(dp159
g8
g156
sg9
F0.0
sg10
V190.216.202.0
p160
sg12
g13
sg14
g13
sg15
V3549
p161
sg17
g13
sbsV179.185.78.251
p162
g2
(g3
g4
Ntp163
Rp164
(dp165
g8
g162
sg9
F0.0
sg10
V179.185.78.0
p166
sg12
g13
sg14
g13
sg15
V18881
p167
sg17
g13
sbsV217.7.204.67
p168
g2
(g3
g4
Ntp169
Rp170
(dp171
g8
g168
sg9
F0.0
sg10
V217.7.204.0
p172
sg12
g13
sg14
g13
sg15
V3320
p173
sg17
g13
sbsV42.200.202.15
p174
g2
(g3
g4
Ntp175
Rp176
(dp177
g8
g174
sg9
F0.0
sg10
V42.200.202.0
p178
sg12
g13
sg14
g13
sg15
V4760
p179
sg17
g13
sbsV62.210.70.193
p180
g2
(g3
g4
Ntp181
Rp182
(dp183
g8
g180
sg9
F0.0
sg10
V62.210.70.0
p184
sg12
g13
sg14
g13
sg15
V12876
p185
sg17
g13
sbsV190.161.97.37
p186
g2
(g3
g4
Ntp187
Rp188
(dp189
g8
g186
sg9
F0.0
sg10
V190.161.97.0
p190
sg12
g13
sg14
g13
sg15
V22047
p191
sg17
g13
sbsV179.124.9.181
p192
g2
(g3
g4
Ntp193
Rp194
(dp195
g8
g192
sg9
F0.0
sg10
V179.124.9.0
p196
sg12
g13
sg14
g13
sg15
V263609
p197
sg17
g13
sbsV201.151.165.198
p198
g2
(g3
g4
Ntp199
Rp200
(dp201
g8
g198
sg9
F0.0
sg10
V201.151.165.0
p202
sg12
g13
sg14
g13
sg15
V11172
p203
sg17
g13
sbsV81.130.168.69
p204
g2
(g3
g4
Ntp205
Rp206
(dp207
g8
g204
sg9
F0.0
sg10
V81.130.168.0
p208
sg12
g13
sg14
g13
sg15
V2856
p209
sg17
g13
sbsV187.108.38.205
p210
g2
(g3
g4
Ntp211
Rp212
(dp213
g8
g210
sg9
F0.0
sg10
V187.108.38.0
p214
sg12
g13
sg14
g13
sg15
V28669
p215
sg17
g13
sbsV190.213.183.60
p216
g2
(g3
g4
Ntp217
Rp218
(dp219
g8
g216
sg9
F0.0
sg10
V190.213.183.0
p220
sg12
g13
sg14
g13
sg15
V27665
p221
sg17
g13
sbsV187.108.38.203
p222
g2
(g3
g4
Ntp223
Rp224
(dp225
g8
g222
sg9
F0.0
sg10
V187.108.38.0
p226
sg12
g13
sg14
g13
sg15
V28669
p227
sg17
g13
sbsV81.200.59.186
p228
g2
(g3
g4
Ntp229
Rp230
(dp231
g8
g228
sg9
F0.0
sg10
V81.200.59.0
p232
sg12
g13
sg14
g13
sg15
V41046
p233
sg17
g13
sbsV13.81.205.203
p234
g2
(g3
g4
Ntp235
Rp236
(dp237
g8
g234
sg9
F0.0
sg10
V13.81.205.0
p238
sg12
g13
sg14
g13
sg15
V8075
p239
sg17
g13
sbsV27.100.44.80
p240
g2
(g3
g4
Ntp241
Rp242
(dp243
g8
g240
sg9
F0.0
sg10
V27.100.44.0
p244
sg12
g13
sg14
g13
sg15
V45458
p245
sg17
g13
sbsV54.207.96.152
p246
g2
(g3
g4
Ntp247
Rp248
(dp249
g8
g246
sg9
F0.0
sg10
V54.207.96.0
p250
sg12
g13
sg14
g13
sg15
V16509
p251
sg17
g13
sbsV183.88.67.249
p252
g2
(g3
g4
Ntp253
Rp254
(dp255
g8
g252
sg9
F0.0
sg10
V183.88.67.0
p256
sg12
g13
sg14
g13
sg15
V45758
p257
sg17
g13
sbsV72.29.88.211
p258
g2
(g3
g4
Ntp259
Rp260
(dp261
g8
g258
sg9
F0.0
sg10
V72.29.88.0
p262
sg12
g13
sg14
g13
sg15
V33182
p263
sg17
g13
sbsV179.126.141.249
p264
g2
(g3
g4
Ntp265
Rp266
(dp267
g8
g264
sg9
F0.0
sg10
V179.126.141.0
p268
sg12
g13
sg14
g13
sg15
V53006
p269
sg17
g13
sbsV62.23.15.237
p270
g2
(g3
g4
Ntp271
Rp272
(dp273
g8
g270
sg9
F0.0
sg10
V62.23.15.0
p274
sg12
g13
sg14
g13
sg15
V8220
p275
sg17
g13
sbsV200.153.162.10
p276
g2
(g3
g4
Ntp277
Rp278
(dp279
g8
g276
sg9
F0.0
sg10
V200.153.162.0
p280
sg12
g13
sg14
g13
sg15
V27699
p281
sg17
g13
sbsV208.3.90.233
p282
g2
(g3
g4
Ntp283
Rp284
(dp285
g8
g282
sg9
F0.0
sg10
V208.3.90.0
p286
sg12
g13
sg14
g13
sg15
V15265
p287
sg17
g13
sbsV223.197.235.64
p288
g2
(g3
g4
Ntp289
Rp290
(dp291
g8
g288
sg9
F0.0
sg10
V223.197.235.0
p292
sg12
g13
sg14
g13
sg15
V4760
p293
sg17
g13
sbsV202.57.130.93
p294
g2
(g3
g4
Ntp295
Rp296
(dp297
g8
g294
sg9
F0.0
sg10
V202.57.130.0
p298
sg12
g13
sg14
g13
sg15
V7654
p299
sg17
g13
sbsV85.214.155.253
p300
g2
(g3
g4
Ntp301
Rp302
(dp303
g8
g300
sg9
F0.0
sg10
V85.214.155.0
p304
sg12
g13
sg14
g13
sg15
V6724
p305
sg17
g13
sbsV91.235.165.46
p306
g2
(g3
g4
Ntp307
Rp308
(dp309
g8
g306
sg9
F0.0
sg10
V91.235.165.0
p310
sg12
g13
sg14
g13
sg15
V57815
p311
sg17
g13
sbsV70.39.147.58
p312
g2
(g3
g4
Ntp313
Rp314
(dp315
g8
g312
sg9
F0.0
sg10
V70.39.147.0
p316
sg12
g13
sg14
g13
sg15
V54641
p317
sg17
g13
sbsV67.215.1.42
p318
g2
(g3
g4
Ntp319
Rp320
(dp321
g8
g318
sg9
F0.0
sg10
V67.215.1.0
p322
sg12
g13
sg14
g13
sg15
V36666
p323
sg17
g13
sbsV74.63.50.176
p324
g2
(g3
g4
Ntp325
Rp326
(dp327
g8
g324
sg9
F0.0
sg10
V74.63.50.0
p328
sg12
g13
sg14
g13
sg15
V29791
p329
sg17
g13
sbsV54.87.87.144
p330
g2
(g3
g4
Ntp331
Rp332
(dp333
g8
g330
sg9
F0.0
sg10
V54.87.87.0
p334
sg12
g13
sg14
g13
sg15
V14618
p335
sg17
g13
sbsV123.176.6.146
p336
g2
(g3
g4
Ntp337
Rp338
(dp339
g8
g336
sg9
F0.0
sg10
V123.176.6.0
p340
sg12
g13
sg14
g13
sg15
V7642
p341
sg17
g13
sbsV89.36.37.140
p342
g2
(g3
g4
Ntp343
Rp344
(dp345
g8
g342
sg9
F0.0
sg10
V89.36.37.0
p346
sg12
g13
sg14
g13
sg15
V20524
p347
sg17
g13
sbsV67.205.76.101
p348
g2
(g3
g4
Ntp349
Rp350
(dp351
g8
g348
sg9
F0.0
sg10
V67.205.76.0
p352
sg12
g13
sg14
g13
sg15
V32613
p353
sg17
g13
sbsV217.92.183.184
p354
g2
(g3
g4
Ntp355
Rp356
(dp357
g8
g354
sg9
F0.0
sg10
V217.92.183.0
p358
sg12
g13
sg14
g13
sg15
V3320
p359
sg17
g13
sbsV52.44.196.51
p360
g2
(g3
g4
Ntp361
Rp362
(dp363
g8
g360
sg9
F0.0
sg10
V52.44.196.0
p364
sg12
g13
sg14
g13
sg15
V14618
p365
sg17
g13
sbsV216.97.239.13
p366
g2
(g3
g4
Ntp367
Rp368
(dp369
g8
g366
sg9
F0.0
sg10
V216.97.239.0
p370
sg12
g13
sg14
g13
sg15
V15244
p371
sg17
g13
sbsV101.200.146.91
p372
g2
(g3
g4
Ntp373
Rp374
(dp375
g8
g372
sg9
F0.0
sg10
V101.200.146.0
p376
sg12
g13
sg14
g13
sg15
V37963
p377
sg17
g13
sbsV62.181.225.186
p378
g2
(g3
g4
Ntp379
Rp380
(dp381
g8
g378
sg9
F0.0
sg10
V62.181.225.0
p382
sg12
g13
sg14
g13
sg15
V21195
p383
sg17
g13
sbsV217.29.100.47
p384
g2
(g3
g4
Ntp385
Rp386
(dp387
g8
g384
sg9
F0.0
sg10
V217.29.100.0
p388
sg12
g13
sg14
g13
sg15
V48427
p389
sg17
g13
sbsV202.170.112.202
p390
g2
(g3
g4
Ntp391
Rp392
(dp393
g8
g390
sg9
F0.0
sg10
V202.170.112.0
p394
sg12
g13
sg14
g13
sg15
V23884
p395
sg17
g13
sbsV24.96.91.159
p396
g2
(g3
g4
Ntp397
Rp398
(dp399
g8
g396
sg9
F0.0
sg10
V24.96.91.0
p400
sg12
g13
sg14
g13
sg15
V12083
p401
sg17
g13
sbsV80.135.97.71
p402
g2
(g3
g4
Ntp403
Rp404
(dp405
g8
g402
sg9
F0.0
sg10
V80.135.97.0
p406
sg12
g13
sg14
g13
sg15
V3320
p407
sg17
g13
sbsV202.170.112.206
p408
g2
(g3
g4
Ntp409
Rp410
(dp411
g8
g408
sg9
F0.0
sg10
V202.170.112.0
p412
sg12
g13
sg14
g13
sg15
V23884
p413
sg17
g13
sbsV2400:cb00:2048:1::6811:6ea6
p414
g2
(g3
g4
Ntp415
Rp416
(dp417
g8
g414
sg9
F0.0
sg10
V2400:cb00:2048:1::6811:6ea.0
p418
sg12
g13
sg14
g13
sg15
V37955
p419
sg17
g13
sbsV220.246.37.52
p420
g2
(g3
g4
Ntp421
Rp422
(dp423
g8
g420
sg9
F0.0
sg10
V220.246.37.0
p424
sg12
g13
sg14
g13
sg15
V4760
p425
sg17
g13
sbsV173.18.244.252
p426
g2
(g3
g4
Ntp427
Rp428
(dp429
g8
g426
sg9
F0.0
sg10
V173.18.244.0
p430
sg12
g13
sg14
g13
sg15
V30036
p431
sg17
g13
sbsV167.114.102.233
p432
g2
(g3
g4
Ntp433
Rp434
(dp435
g8
g432
sg9
F0.0
sg10
V167.114.102.0
p436
sg12
g13
sg14
g13
sg15
V16276
p437
sg17
g13
sbsV104.196.10.21
p438
g2
(g3
g4
Ntp439
Rp440
(dp441
g8
g438
sg9
F0.0
sg10
V104.196.10.0
p442
sg12
g13
sg14
g13
sg15
V15169
p443
sg17
g13
sbsV194.3.162.168
p444
g2
(g3
g4
Ntp445
Rp446
(dp447
g8
g444
sg9
F0.0
sg10
V194.3.162.0
p448
sg12
g13
sg14
g13
sg15
V3215
p449
sg17
g13
sbsV92.50.93.126
p450
g2
(g3
g4
Ntp451
Rp452
(dp453
g8
g450
sg9
F0.0
sg10
V92.50.93.0
p454
sg12
g13
sg14
g13
sg15
V6830
p455
sg17
g13
sbsV129.144.41.93
p456
g2
(g3
g4
Ntp457
Rp458
(dp459
g8
g456
sg9
F0.0
sg10
V129.144.41.0
p460
sg12
g13
sg14
g13
sg15
V7160
p461
sg17
g13
sbsV196.219.30.40
p462
g2
(g3
g4
Ntp463
Rp464
(dp465
g8
g462
sg9
F0.0
sg10
V196.219.30.0
p466
sg12
g13
sg14
g13
sg15
V8452
p467
sg17
g13
sbsV186.250.92.90
p468
g2
(g3
g4
Ntp469
Rp470
(dp471
g8
g468
sg9
F0.0
sg10
V186.250.92.0
p472
sg12
g13
sg14
g13
sg15
V262967
p473
sg17
g13
sbsV220.135.28.15
p474
g2
(g3
g4
Ntp475
Rp476
(dp477
g8
g474
sg9
F0.0
sg10
V220.135.28.0
p478
sg12
g13
sg14
g13
sg15
V3462
p479
sg17
g13
sbsV211.193.193.48
p480
g2
(g3
g4
Ntp481
Rp482
(dp483
g8
g480
sg9
F0.0
sg10
V211.193.193.0
p484
sg12
g13
sg14
g13
sg15
V4793
p485
sg17
g13
sbsV216.92.142.166
p486
g2
(g3
g4
Ntp487
Rp488
(dp489
g8
g486
sg9
F0.0
sg10
V216.92.142.0
p490
sg12
g13
sg14
g13
sg15
V7859
p491
sg17
g13
sbsV52.26.177.245
p492
g2
(g3
g4
Ntp493
Rp494
(dp495
g8
g492
sg9
F0.0
sg10
V52.26.177.0
p496
sg12
g13
sg14
g13
sg15
V16509
p497
sg17
g13
sbsV200.195.170.130
p498
g2
(g3
g4
Ntp499
Rp500
(dp501
g8
g498
sg9
F0.0
sg10
V200.195.170.0
p502
sg12
g13
sg14
g13
sg15
V14868
p503
sg17
g13
sbsV212.33.231.11
p504
g2
(g3
g4
Ntp505
Rp506
(dp507
g8
g504
sg9
F0.0
sg10
V212.33.231.0
p508
sg12
g13
sg14
g13
sg15
V12768
p509
sg17
g13
sbsV85.229.85.17
p510
g2
(g3
g4
Ntp511
Rp512
(dp513
g8
g510
sg9
F0.0
sg10
V85.229.85.0
p514
sg12
g13
sg14
g13
sg15
V2119
p515
sg17
g13
sbsV139.196.107.47
p516
g2
(g3
g4
Ntp517
Rp518
(dp519
g8
g516
sg9
F0.0
sg10
V139.196.107.0
p520
sg12
g13
sg14
g13
sg15
V37963
p521
sg17
g13
sbsV196.0.7.186
p522
g2
(g3
g4
Ntp523
Rp524
(dp525
g8
g522
sg9
F0.0
sg10
V196.0.7.0
p526
sg12
g13
sg14
g13
sg15
V21491
p527
sg17
g13
sbsV138.186.185.158
p528
g2
(g3
g4
Ntp529
Rp530
(dp531
g8
g528
sg9
F0.0
sg10
V138.186.185.0
p532
sg12
g13
sg14
g13
sg15
V61784
p533
sg17
g13
sbsV174.140.166.189
p534
g2
(g3
g4
Ntp535
Rp536
(dp537
g8
g534
sg9
F0.0
sg10
V174.140.166.0
p538
sg12
g13
sg14
g13
sg15
V46816
p539
sg17
g13
sbsV85.10.199.200
p540
g2
(g3
g4
Ntp541
Rp542
(dp543
g8
g540
sg9
F0.0
sg10
V85.10.199.0
p544
sg12
g13
sg14
g13
sg15
V24940
p545
sg17
g13
sbsV2.50.7.210
p546
g2
(g3
g4
Ntp547
Rp548
(dp549
g8
g546
sg9
F0.0
sg10
V2.50.7.0
p550
sg12
g13
sg14
g13
sg15
V5384
p551
sg17
g13
sbsV107.170.132.78
p552
g2
(g3
g4
Ntp553
Rp554
(dp555
g8
g552
sg9
F0.0
sg10
V107.170.132.0
p556
sg12
g13
sg14
g13
sg15
V62567
p557
sg17
g13
sbsV105.255.156.208
p558
g2
(g3
g4
Ntp559
Rp560
(dp561
g8
g558
sg9
F0.0
sg10
V105.255.156.0
p562
sg12
g13
sg14
g13
sg15
V36994
p563
sg17
g13
sbsV104.236.64.142
p564
g2
(g3
g4
Ntp565
Rp566
(dp567
g8
g564
sg9
F0.0
sg10
V104.236.64.0
p568
sg12
g13
sg14
g13
sg15
V393406
p569
sg17
g13
sbsV217.92.141.113
p570
g2
(g3
g4
Ntp571
Rp572
(dp573
g8
g570
sg9
F0.0
sg10
V217.92.141.0
p574
sg12
g13
sg14
g13
sg15
V3320
p575
sg17
g13
sbsV184.145.95.120
p576
g2
(g3
g4
Ntp577
Rp578
(dp579
g8
g576
sg9
F0.0
sg10
V184.145.95.0
p580
sg12
g13
sg14
g13
sg15
V577
p581
sg17
g13
sbsV210.82.62.250
p582
g2
(g3
g4
Ntp583
Rp584
(dp585
g8
g582
sg9
F0.0
sg10
V210.82.62.0
p586
sg12
g13
sg14
g13
sg15
V4808
p587
sg17
g13
sbsV58.138.140.204
p588
g2
(g3
g4
Ntp589
Rp590
(dp591
g8
g588
sg9
F0.0
sg10
V58.138.140.0
p592
sg12
g13
sg14
g13
sg15
V2497
p593
sg17
g13
sbsV152.173.13.150
p594
g2
(g3
g4
Ntp595
Rp596
(dp597
g8
g594
sg9
F0.0
sg10
V152.173.13.0
p598
sg12
g13
sg14
g13
sg15
V7418
p599
sg17
g13
sbsV95.211.147.233
p600
g2
(g3
g4
Ntp601
Rp602
(dp603
g8
g600
sg9
F0.0
sg10
V95.211.147.0
p604
sg12
g13
sg14
g13
sg15
V60781
p605
sg17
g13
sbsV206.253.174.136
p606
g2
(g3
g4
Ntp607
Rp608
(dp609
g8
g606
sg9
F0.0
sg10
V206.253.174.0
p610
sg12
g13
sg14
g13
sg15
V32632
p611
sg17
g13
sbsV190.110.204.219
p612
g2
(g3
g4
Ntp613
Rp614
(dp615
g8
g612
sg9
F0.0
sg10
V190.110.204.0
p616
sg12
g13
sg14
g13
sg15
V22724
p617
sg17
g13
sbsV93.204.255.12
p618
g2
(g3
g4
Ntp619
Rp620
(dp621
g8
g618
sg9
F0.0
sg10
V93.204.255.0
p622
sg12
g13
sg14
g13
sg15
V3320
p623
sg17
g13
sbsV177.124.195.180
p624
g2
(g3
g4
Ntp625
Rp626
(dp627
g8
g624
sg9
F0.0
sg10
V177.124.195.0
p628
sg12
g13
sg14
g13
sg15
V17222
p629
sg17
g13
sbsV217.167.140.183
p630
g2
(g3
g4
Ntp631
Rp632
(dp633
g8
g630
sg9
F0.0
sg10
V217.167.140.0
p634
sg12
g13
sg14
g13
sg15
V3215
p635
sg17
g13
sbsV202.162.198.43
p636
g2
(g3
g4
Ntp637
Rp638
(dp639
g8
g636
sg9
F0.0
sg10
V202.162.198.0
p640
sg12
g13
sg14
g13
sg15
V23679
p641
sg17
g13
sbsV140.86.33.7
p642
g2
(g3
g4
Ntp643
Rp644
(dp645
g8
g642
sg9
F0.0
sg10
V140.86.33.0
p646
sg12
g13
sg14
g13
sg15
V7160
p647
sg17
g13
sbsV68.146.112.157
p648
g2
(g3
g4
Ntp649
Rp650
(dp651
g8
g648
sg9
F0.0
sg10
V68.146.112.0
p652
sg12
g13
sg14
g13
sg15
V6327
p653
sg17
g13
sbsV208.178.179.5
p654
g2
(g3
g4
Ntp655
Rp656
(dp657
g8
g654
sg9
F0.0
sg10
V208.178.179.0
p658
sg12
g13
sg14
g13
sg15
V3549
p659
sg17
g13
sbsV35.185.99.64
p660
g2
(g3
g4
Ntp661
Rp662
(dp663
g8
g660
sg9
F0.0
sg10
V35.185.99.0
p664
sg12
g13
sg14
g13
sg15
V15169
p665
sg17
g13
sbsV187.4.207.241
p666
g2
(g3
g4
Ntp667
Rp668
(dp669
g8
g666
sg9
F0.0
sg10
V187.4.207.0
p670
sg12
g13
sg14
g13
sg15
V8167
p671
sg17
g13
sbsV75.18.169.145
p672
g2
(g3
g4
Ntp673
Rp674
(dp675
g8
g672
sg9
F0.0
sg10
V75.18.169.0
p676
sg12
g13
sg14
g13
sg15
V7018
p677
sg17
g13
sbsV85.214.99.114
p678
g2
(g3
g4
Ntp679
Rp680
(dp681
g8
g678
sg9
F0.0
sg10
V85.214.99.0
p682
sg12
g13
sg14
g13
sg15
V6724
p683
sg17
g13
sbsV217.114.220.233
p684
g2
(g3
g4
Ntp685
Rp686
(dp687
g8
g684
sg9
F0.0
sg10
V217.114.220.0
p688
sg12
g13
sg14
g13
sg15
V31103
p689
sg17
g13
sbsV177.23.8.99
p690
g2
(g3
g4
Ntp691
Rp692
(dp693
g8
g690
sg9
F0.0
sg10
V177.23.8.0
p694
sg12
g13
sg14
g13
sg15
V263037
p695
sg17
g13
sbsV219.76.181.53
p696
g2
(g3
g4
Ntp697
Rp698
(dp699
g8
g696
sg9
F0.0
sg10
V219.76.181.0
p700
sg12
g13
sg14
g13
sg15
V4760
p701
sg17
g13
sbsV210.242.68.145
p702
g2
(g3
g4
Ntp703
Rp704
(dp705
g8
g702
sg9
F0.0
sg10
V210.242.68.0
p706
sg12
g13
sg14
g13
sg15
V3462
p707
sg17
g13
sbsV187.18.105.62
p708
g2
(g3
g4
Ntp709
Rp710
(dp711
g8
g708
sg9
F0.0
sg10
V187.18.105.0
p712
sg12
g13
sg14
g13
sg15
V22689
p713
sg17
g13
sbsV54.255.145.34
p714
g2
(g3
g4
Ntp715
Rp716
(dp717
g8
g714
sg9
F0.0
sg10
V54.255.145.0
p718
sg12
g13
sg14
g13
sg15
V16509
p719
sg17
g13
sbsV134.213.133.205
p720
g2
(g3
g4
Ntp721
Rp722
(dp723
g8
g720
sg9
F0.0
sg10
V134.213.133.0
p724
sg12
g13
sg14
g13
sg15
V15395
p725
sg17
g13
sbsV151.80.45.126
p726
g2
(g3
g4
Ntp727
Rp728
(dp729
g8
g726
sg9
F0.0
sg10
V151.80.45.0
p730
sg12
g13
sg14
g13
sg15
V16276
p731
sg17
g13
sbsV82.244.183.137
p732
g2
(g3
g4
Ntp733
Rp734
(dp735
g8
g732
sg9
F0.0
sg10
V82.244.183.0
p736
sg12
g13
sg14
g13
sg15
V12322
p737
sg17
g13
sbsV173.231.129.196
p738
g2
(g3
g4
Ntp739
Rp740
(dp741
g8
g738
sg9
F0.0
sg10
V173.231.129.0
p742
sg12
g13
sg14
g13
sg15
V29791
p743
sg17
g13
sbsV103.56.235.83
p744
g2
(g3
g4
Ntp745
Rp746
(dp747
g8
g744
sg9
F0.0
sg10
V103.56.235.0
p748
sg12
g13
sg14
g13
sg15
V23947
p749
sg17
g13
sbsV86.123.150.245
p750
g2
(g3
g4
Ntp751
Rp752
(dp753
g8
g750
sg9
F0.0
sg10
V86.123.150.0
p754
sg12
g13
sg14
g13
sg15
V8708
p755
sg17
g13
sbsV75.80.220.247
p756
g2
(g3
g4
Ntp757
Rp758
(dp759
g8
g756
sg9
F0.0
sg10
V75.80.220.0
p760
sg12
g13
sg14
g13
sg15
V20001
p761
sg17
g13
sbsV62.161.105.118
p762
g2
(g3
g4
Ntp763
Rp764
(dp765
g8
g762
sg9
F0.0
sg10
V62.161.105.0
p766
sg12
g13
sg14
g13
sg15
V3215
p767
sg17
g13
sbsV181.143.3.106
p768
g2
(g3
g4
Ntp769
Rp770
(dp771
g8
g768
sg9
F0.0
sg10
V181.143.3.0
p772
sg12
g13
sg14
g13
sg15
V13489
p773
sg17
g13
sbsV52.91.217.31
p774
g2
(g3
g4
Ntp775
Rp776
(dp777
g8
g774
sg9
F0.0
sg10
V52.91.217.0
p778
sg12
g13
sg14
g13
sg15
V14618
p779
sg17
g13
sbsV203.176.142.84
p780
g2
(g3
g4
Ntp781
Rp782
(dp783
g8
g780
sg9
F0.0
sg10
V203.176.142.0
p784
sg12
g13
sg14
g13
sg15
V38235
p785
sg17
g13
sbsV187.16.114.146
p786
g2
(g3
g4
Ntp787
Rp788
(dp789
g8
g786
sg9
F0.0
sg10
V187.16.114.0
p790
sg12
g13
sg14
g13
sg15
V17222
p791
sg17
g13
sbsV179.52.157.251
p792
g2
(g3
g4
Ntp793
Rp794
(dp795
g8
g792
sg9
F0.0
sg10
V179.52.157.0
p796
sg12
g13
sg14
g13
sg15
V6400
p797
sg17
g13
sbsV142.11.192.199
p798
g2
(g3
g4
Ntp799
Rp800
(dp801
g8
g798
sg9
F0.0
sg10
V142.11.192.0
p802
sg12
g13
sg14
g13
sg15
V54290
p803
sg17
g13
sbsV5.158.71.249
p804
g2
(g3
g4
Ntp805
Rp806
(dp807
g8
g804
sg9
F0.0
sg10
V5.158.71.0
p808
sg12
g13
sg14
g13
sg15
V199181
p809
sg17
g13
sbsV223.197.226.230
p810
g2
(g3
g4
Ntp811
Rp812
(dp813
g8
g810
sg9
F0.0
sg10
V223.197.226.0
p814
sg12
g13
sg14
g13
sg15
V4760
p815
sg17
g13
sbsV81.169.185.64
p816
g2
(g3
g4
Ntp817
Rp818
(dp819
g8
g816
sg9
F0.0
sg10
V81.169.185.0
p820
sg12
g13
sg14
g13
sg15
V6724
p821
sg17
g13
sbsV182.75.131.51
p822
g2
(g3
g4
Ntp823
Rp824
(dp825
g8
g822
sg9
F0.0
sg10
V182.75.131.0
p826
sg12
g13
sg14
g13
sg15
V9498
p827
sg17
g13
sbsV59.115.220.176
p828
g2
(g3
g4
Ntp829
Rp830
(dp831
g8
g828
sg9
F0.0
sg10
V59.115.220.0
p832
sg12
g13
sg14
g13
sg15
V3462
p833
sg17
g13
sbsV195.160.232.108
p834
g2
(g3
g4
Ntp835
Rp836
(dp837
g8
g834
sg9
F0.0
sg10
V195.160.232.0
p838
sg12
g13
sg14
g13
sg15
V28776
p839
sg17
g13
sbsV217.57.19.250
p840
g2
(g3
g4
Ntp841
Rp842
(dp843
g8
g840
sg9
F0.0
sg10
V217.57.19.0
p844
sg12
g13
sg14
g13
sg15
V3269
p845
sg17
g13
sbsV71.57.34.132
p846
g2
(g3
g4
Ntp847
Rp848
(dp849
g8
g846
sg9
F0.0
sg10
V71.57.34.0
p850
sg12
g13
sg14
g13
sg15
V7922
p851
sg17
g13
sbsV78.188.7.191
p852
g2
(g3
g4
Ntp853
Rp854
(dp855
g8
g852
sg9
F0.0
sg10
V78.188.7.0
p856
sg12
g13
sg14
g13
sg15
V9121
p857
sg17
g13
sbsV85.43.183.139
p858
g2
(g3
g4
Ntp859
Rp860
(dp861
g8
g858
sg9
F0.0
sg10
V85.43.183.0
p862
sg12
g13
sg14
g13
sg15
V3269
p863
sg17
g13
sbsV76.19.124.143
p864
g2
(g3
g4
Ntp865
Rp866
(dp867
g8
g864
sg9
F0.0
sg10
V76.19.124.0
p868
sg12
g13
sg14
g13
sg15
V7922
p869
sg17
g13
sbsV90.228.255.6
p870
g2
(g3
g4
Ntp871
Rp872
(dp873
g8
g870
sg9
F0.0
sg10
V90.228.255.0
p874
sg12
g13
sg14
g13
sg15
V3301
p875
sg17
g13
sbsV46.45.136.126
p876
g2
(g3
g4
Ntp877
Rp878
(dp879
g8
g876
sg9
F0.0
sg10
V46.45.136.0
p880
sg12
g13
sg14
g13
sg15
V197328
p881
sg17
g13
sbsV84.232.146.190
p882
g2
(g3
g4
Ntp883
Rp884
(dp885
g8
g882
sg9
F0.0
sg10
V84.232.146.0
p886
sg12
g13
sg14
g13
sg15
V8708
p887
sg17
g13
sbsV62.15.232.243
p888
g2
(g3
g4
Ntp889
Rp890
(dp891
g8
g888
sg9
F0.0
sg10
V62.15.232.0
p892
sg12
g13
sg14
g13
sg15
V12715
p893
sg17
g13
sbsV195.46.10.195
p894
g2
(g3
g4
Ntp895
Rp896
(dp897
g8
g894
sg9
F0.0
sg10
V195.46.10.0
p898
sg12
g13
sg14
g13
sg15
V12361
p899
sg17
g13
sbsV173.231.129.197
p900
g2
(g3
g4
Ntp901
Rp902
(dp903
g8
g900
sg9
F0.0
sg10
V173.231.129.0
p904
sg12
g13
sg14
g13
sg15
V29791
p905
sg17
g13
sbsV62.15.232.245
p906
g2
(g3
g4
Ntp907
Rp908
(dp909
g8
g906
sg9
F0.0
sg10
V62.15.232.0
p910
sg12
g13
sg14
g13
sg15
V12715
p911
sg17
g13
sbsV193.104.79.69
p912
g2
(g3
g4
Ntp913
Rp914
(dp915
g8
g912
sg9
F0.0
sg10
V193.104.79.0
p916
sg12
g13
sg14
g13
sg15
V50020
p917
sg17
g13
sbsV62.15.232.248
p918
g2
(g3
g4
Ntp919
Rp920
(dp921
g8
g918
sg9
F0.0
sg10
V62.15.232.0
p922
sg12
g13
sg14
g13
sg15
V12715
p923
sg17
g13
sbsV62.15.232.249
p924
g2
(g3
g4
Ntp925
Rp926
(dp927
g8
g924
sg9
F0.0
sg10
V62.15.232.0
p928
sg12
g13
sg14
g13
sg15
V12715
p929
sg17
g13
sbsV213.153.182.82
p930
g2
(g3
g4
Ntp931
Rp932
(dp933
g8
g930
sg9
F0.0
sg10
V213.153.182.0
p934
sg12
g13
sg14
g13
sg15
V34984
p935
sg17
g13
sbsV201.116.197.114
p936
g2
(g3
g4
Ntp937
Rp938
(dp939
g8
g936
sg9
F0.0
sg10
V201.116.197.0
p940
sg12
g13
sg14
g13
sg15
V8151
p941
sg17
g13
sbsV193.180.221.132
p942
g2
(g3
g4
Ntp943
Rp944
(dp945
g8
g942
sg9
F0.0
sg10
V193.180.221.0
p946
sg12
g13
sg14
g13
sg15
V51747
p947
sg17
g13
sbsV191.242.241.168
p948
g2
(g3
g4
Ntp949
Rp950
(dp951
g8
g948
sg9
F0.0
sg10
V191.242.241.0
p952
sg12
g13
sg14
g13
sg15
V262318
p953
sg17
g13
sbsV112.121.130.97
p954
g2
(g3
g4
Ntp955
Rp956
(dp957
g8
g954
sg9
F0.0
sg10
V112.121.130.0
p958
sg12
g13
sg14
g13
sg15
V23884
p959
sg17
g13
sbsV223.197.152.195
p960
g2
(g3
g4
Ntp961
Rp962
(dp963
g8
g960
sg9
F0.0
sg10
V223.197.152.0
p964
sg12
g13
sg14
g13
sg15
V4760
p965
sg17
g13
sbsV40.127.180.216
p966
g2
(g3
g4
Ntp967
Rp968
(dp969
g8
g966
sg9
F0.0
sg10
V40.127.180.0
p970
sg12
g13
sg14
g13
sg15
V8075
p971
sg17
g13
sbsV201.30.158.137
p972
g2
(g3
g4
Ntp973
Rp974
(dp975
g8
g972
sg9
F0.0
sg10
V201.30.158.0
p976
sg12
g13
sg14
g13
sg15
V4230
p977
sg17
g13
sbsV81.26.205.10
p978
g2
(g3
g4
Ntp979
Rp980
(dp981
g8
g978
sg9
F0.0
sg10
V81.26.205.0
p982
sg12
g13
sg14
g13
sg15
V197167
p983
sg17
g13
sbsV23.99.59.197
p984
g2
(g3
g4
Ntp985
Rp986
(dp987
g8
g984
sg9
F0.0
sg10
V23.99.59.0
p988
sg12
g13
sg14
g13
sg15
V8075
p989
sg17
g13
sbsV174.46.254.101
p990
g2
(g3
g4
Ntp991
Rp992
(dp993
g8
g990
sg9
F0.0
sg10
V174.46.254.0
p994
sg12
g13
sg14
g13
sg15
V3549
p995
sg17
g13
sbsV118.163.47.122
p996
g2
(g3
g4
Ntp997
Rp998
(dp999
g8
g996
sg9
F0.0
sg10
V118.163.47.0
p1000
sg12
g13
sg14
g13
sg15
V3462
p1001
sg17
g13
sbsV118.163.47.123
p1002
g2
(g3
g4
Ntp1003
Rp1004
(dp1005
g8
g1002
sg9
F0.0
sg10
V118.163.47.0
p1006
sg12
g13
sg14
g13
sg15
V3462
p1007
sg17
g13
sbsV43.240.244.144
p1008
g2
(g3
g4
Ntp1009
Rp1010
(dp1011
g8
g1008
sg9
F0.0
sg10
V43.240.244.0
p1012
sg12
g13
sg14
g13
sg15
V4808
p1013
sg17
g13
sbsV200.203.125.155
p1014
g2
(g3
g4
Ntp1015
Rp1016
(dp1017
g8
g1014
sg9
F0.0
sg10
V200.203.125.0
p1018
sg12
g13
sg14
g13
sg15
V8167
p1019
sg17
g13
sbsV177.188.5.132
p1020
g2
(g3
g4
Ntp1021
Rp1022
(dp1023
g8
g1020
sg9
F0.0
sg10
V177.188.5.0
p1024
sg12
g13
sg14
g13
sg15
V27699
p1025
sg17
g13
sbsV118.163.47.124
p1026
g2
(g3
g4
Ntp1027
Rp1028
(dp1029
g8
g1026
sg9
F0.0
sg10
V118.163.47.0
p1030
sg12
g13
sg14
g13
sg15
V3462
p1031
sg17
g13
sbsV116.48.136.28
p1032
g2
(g3
g4
Ntp1033
Rp1034
(dp1035
g8
g1032
sg9
F0.0
sg10
V116.48.136.0
p1036
sg12
g13
sg14
g13
sg15
V4760
p1037
sg17
g13
sbsV108.163.202.94
p1038
g2
(g3
g4
Ntp1039
Rp1040
(dp1041
g8
g1038
sg9
F0.0
sg10
V108.163.202.0
p1042
sg12
g13
sg14
g13
sg15
V32475
p1043
sg17
g13
sbsV65.48.133.105
p1044
g2
(g3
g4
Ntp1045
Rp1046
(dp1047
g8
g1044
sg9
F0.0
sg10
V65.48.133.0
p1048
sg12
g13
sg14
g13
sg15
V11139
p1049
sg17
g13
sbsV223.197.250.54
p1050
g2
(g3
g4
Ntp1051
Rp1052
(dp1053
g8
g1050
sg9
F0.0
sg10
V223.197.250.0
p1054
sg12
g13
sg14
g13
sg15
V4760
p1055
sg17
g13
sbsV34.248.178.86
p1056
g2
(g3
g4
Ntp1057
Rp1058
(dp1059
g8
g1056
sg9
F0.0
sg10
V34.248.178.0
p1060
sg12
g13
sg14
g13
sg15
V16509
p1061
sg17
g13
sbsV46.101.242.186
p1062
g2
(g3
g4
Ntp1063
Rp1064
(dp1065
g8
g1062
sg9
F0.0
sg10
V46.101.242.0
p1066
sg12
g13
sg14
g13
sg15
V201229
p1067
sg17
g13
sbsV202.191.187.92
p1068
g2
(g3
g4
Ntp1069
Rp1070
(dp1071
g8
g1068
sg9
F0.0
sg10
V202.191.187.0
p1072
sg12
g13
sg14
g13
sg15
V9583
p1073
sg17
g13
sbsV31.192.230.109
p1074
g2
(g3
g4
Ntp1075
Rp1076
(dp1077
g8
g1074
sg9
F0.0
sg10
V31.192.230.0
p1078
sg12
g13
sg14
g13
sg15
V43948
p1079
sg17
g13
sbsV144.76.14.156
p1080
g2
(g3
g4
Ntp1081
Rp1082
(dp1083
g8
g1080
sg9
F0.0
sg10
V144.76.14.0
p1084
sg12
g13
sg14
g13
sg15
V24940
p1085
sg17
g13
sbsV52.6.243.217
p1086
g2
(g3
g4
Ntp1087
Rp1088
(dp1089
g8
g1086
sg9
F0.0
sg10
V52.6.243.0
p1090
sg12
g13
sg14
g13
sg15
V14618
p1091
sg17
g13
sbsV41.33.225.80
p1092
g2
(g3
g4
Ntp1093
Rp1094
(dp1095
g8
g1092
sg9
F0.0
sg10
V41.33.225.0
p1096
sg12
g13
sg14
g13
sg15
V8452
p1097
sg17
g13
sbsV132.247.103.8
p1098
g2
(g3
g4
Ntp1099
Rp1100
(dp1101
g8
g1098
sg9
F0.0
sg10
V132.247.103.0
p1102
sg12
g13
sg14
g13
sg15
V278
p1103
sg17
g13
sbsV78.134.54.32
p1104
g2
(g3
g4
Ntp1105
Rp1106
(dp1107
g8
g1104
sg9
F0.0
sg10
V78.134.54.0
p1108
sg12
g13
sg14
g13
sg15
V35612
p1109
sg17
g13
sbsV85.11.45.12
p1110
g2
(g3
g4
Ntp1111
Rp1112
(dp1113
g8
g1110
sg9
F0.0
sg10
V85.11.45.0
p1114
sg12
g13
sg14
g13
sg15
V34610
p1115
sg17
g13
sbsV87.157.96.173
p1116
g2
(g3
g4
Ntp1117
Rp1118
(dp1119
g8
g1116
sg9
F0.0
sg10
V87.157.96.0
p1120
sg12
g13
sg14
g13
sg15
V3320
p1121
sg17
g13
sbsV177.99.240.66
p1122
g2
(g3
g4
Ntp1123
Rp1124
(dp1125
g8
g1122
sg9
F0.0
sg10
V177.99.240.0
p1126
sg12
g13
sg14
g13
sg15
V18881
p1127
sg17
g13
sbsV82.71.44.41
p1128
g2
(g3
g4
Ntp1129
Rp1130
(dp1131
g8
g1128
sg9
F0.0
sg10
V82.71.44.0
p1132
sg12
g13
sg14
g13
sg15
V13037
p1133
sg17
g13
sbsV92.63.240.174
p1134
g2
(g3
g4
Ntp1135
Rp1136
(dp1137
g8
g1134
sg9
F0.0
sg10
V92.63.240.0
p1138
sg12
g13
sg14
g13
sg15
V44789
p1139
sg17
g13
sbsV104.131.207.50
p1140
g2
(g3
g4
Ntp1141
Rp1142
(dp1143
g8
g1140
sg9
F0.0
sg10
V104.131.207.0
p1144
sg12
g13
sg14
g13
sg15
V62567
p1145
sg17
g13
sbsV112.120.120.103
p1146
g2
(g3
g4
Ntp1147
Rp1148
(dp1149
g8
g1146
sg9
F0.0
sg10
V112.120.120.0
p1150
sg12
g13
sg14
g13
sg15
V4760
p1151
sg17
g13
sbsV186.103.200.213
p1152
g2
(g3
g4
Ntp1153
Rp1154
(dp1155
g8
g1152
sg9
F0.0
sg10
V186.103.200.0
p1156
sg12
g13
sg14
g13
sg15
V15311
p1157
sg17
g13
sbsV213.80.171.54
p1158
g2
(g3
g4
Ntp1159
Rp1160
(dp1161
g8
g1158
sg9
F0.0
sg10
V213.80.171.0
p1162
sg12
g13
sg14
g13
sg15
V15974
p1163
sg17
g13
sbsV84.90.166.214
p1164
g2
(g3
g4
Ntp1165
Rp1166
(dp1167
g8
g1164
sg9
F0.0
sg10
V84.90.166.0
p1168
sg12
g13
sg14
g13
sg15
V13156
p1169
sg17
g13
sbsV98.23.186.166
p1170
g2
(g3
g4
Ntp1171
Rp1172
(dp1173
g8
g1170
sg9
F0.0
sg10
V98.23.186.0
p1174
sg12
g13
sg14
g13
sg15
V7029
p1175
sg17
g13
sbsV175.45.92.162
p1176
g2
(g3
g4
Ntp1177
Rp1178
(dp1179
g8
g1176
sg9
F0.0
sg10
V175.45.92.0
p1180
sg12
g13
sg14
g13
sg15
V4826
p1181
sg17
g13
sbsV62.227.198.24
p1182
g2
(g3
g4
Ntp1183
Rp1184
(dp1185
g8
g1182
sg9
F0.0
sg10
V62.227.198.0
p1186
sg12
g13
sg14
g13
sg15
V3320
p1187
sg17
g13
sbsV27.254.30.166
p1188
g2
(g3
g4
Ntp1189
Rp1190
(dp1191
g8
g1188
sg9
F0.0
sg10
V27.254.30.0
p1192
sg12
g13
sg14
g13
sg15
V4750
p1193
sg17
g13
sbsV190.52.191.50
p1194
g2
(g3
g4
Ntp1195
Rp1196
(dp1197
g8
g1194
sg9
F0.0
sg10
V190.52.191.0
p1198
sg12
g13
sg14
g13
sg15
V27866
p1199
sg17
g13
sbsV84.44.160.230
p1200
g2
(g3
g4
Ntp1201
Rp1202
(dp1203
g8
g1200
sg9
F0.0
sg10
V84.44.160.0
p1204
sg12
g13
sg14
g13
sg15
V8422
p1205
sg17
g13
sbsV54.207.52.19
p1206
g2
(g3
g4
Ntp1207
Rp1208
(dp1209
g8
g1206
sg9
F0.0
sg10
V54.207.52.0
p1210
sg12
g13
sg14
g13
sg15
V16509
p1211
sg17
g13
sbsV85.25.105.239
p1212
g2
(g3
g4
Ntp1213
Rp1214
(dp1215
g8
g1212
sg9
F0.0
sg10
V85.25.105.0
p1216
sg12
g13
sg14
g13
sg15
V8972
p1217
sg17
g13
sbsV51.254.139.68
p1218
g2
(g3
g4
Ntp1219
Rp1220
(dp1221
g8
g1218
sg9
F0.0
sg10
V51.254.139.0
p1222
sg12
g13
sg14
g13
sg15
V16276
p1223
sg17
g13
sbsV201.237.119.150
p1224
g2
(g3
g4
Ntp1225
Rp1226
(dp1227
g8
g1224
sg9
F0.0
sg10
V201.237.119.0
p1228
sg12
g13
sg14
g13
sg15
V11830
p1229
sg17
g13
sbsV101.200.192.204
p1230
g2
(g3
g4
Ntp1231
Rp1232
(dp1233
g8
g1230
sg9
F0.0
sg10
V101.200.192.0
p1234
sg12
g13
sg14
g13
sg15
V37963
p1235
sg17
g13
sbsV200.166.254.242
p1236
g2
(g3
g4
Ntp1237
Rp1238
(dp1239
g8
g1236
sg9
F0.0
sg10
V200.166.254.0
p1240
sg12
g13
sg14
g13
sg15
V4230
p1241
sg17
g13
sbsV35.185.99.82
p1242
g2
(g3
g4
Ntp1243
Rp1244
(dp1245
g8
g1242
sg9
F0.0
sg10
V35.185.99.0
p1246
sg12
g13
sg14
g13
sg15
V15169
p1247
sg17
g13
sbsV91.242.138.11
p1248
g2
(g3
g4
Ntp1249
Rp1250
(dp1251
g8
g1248
sg9
F0.0
sg10
V91.242.138.0
p1252
sg12
g13
sg14
g13
sg15
V48427
p1253
sg17
g13
sbsV217.165.113.138
p1254
g2
(g3
g4
Ntp1255
Rp1256
(dp1257
g8
g1254
sg9
F0.0
sg10
V217.165.113.0
p1258
sg12
g13
sg14
g13
sg15
V5384
p1259
sg17
g13
sbsV217.25.27.206
p1260
g2
(g3
g4
Ntp1261
Rp1262
(dp1263
g8
g1260
sg9
F0.0
sg10
V217.25.27.0
p1264
sg12
g13
sg14
g13
sg15
V39232
p1265
sg17
g13
sbsV199.204.187.51
p1266
g2
(g3
g4
Ntp1267
Rp1268
(dp1269
g8
g1266
sg9
F0.0
sg10
V199.204.187.0
p1270
sg12
g13
sg14
g13
sg15
V7363
p1271
sg17
g13
sbsV81.82.36.47
p1272
g2
(g3
g4
Ntp1273
Rp1274
(dp1275
g8
g1272
sg9
F0.0
sg10
V81.82.36.0
p1276
sg12
g13
sg14
g13
sg15
V6848
p1277
sg17
g13
sbsV223.197.229.34
p1278
g2
(g3
g4
Ntp1279
Rp1280
(dp1281
g8
g1278
sg9
F0.0
sg10
V223.197.229.0
p1282
sg12
g13
sg14
g13
sg15
V4760
p1283
sg17
g13
sbsV202.212.213.173
p1284
g2
(g3
g4
Ntp1285
Rp1286
(dp1287
g8
g1284
sg9
F0.0
sg10
V202.212.213.0
p1288
sg12
g13
sg14
g13
sg15
V2514
p1289
sg17
g13
sbsV194.213.44.45
p1290
g2
(g3
g4
Ntp1291
Rp1292
(dp1293
g8
g1290
sg9
F0.0
sg10
V194.213.44.0
p1294
sg12
g13
sg14
g13
sg15
V5588
p1295
sg17
g13
sbsV217.92.22.12
p1296
g2
(g3
g4
Ntp1297
Rp1298
(dp1299
g8
g1296
sg9
F0.0
sg10
V217.92.22.0
p1300
sg12
g13
sg14
g13
sg15
V3320
p1301
sg17
g13
sbsV68.186.50.29
p1302
g2
(g3
g4
Ntp1303
Rp1304
(dp1305
g8
g1302
sg9
F0.0
sg10
V68.186.50.0
p1306
sg12
g13
sg14
g13
sg15
V20115
p1307
sg17
g13
sbsV82.135.27.167
p1308
g2
(g3
g4
Ntp1309
Rp1310
(dp1311
g8
g1308
sg9
F0.0
sg10
V82.135.27.0
p1312
sg12
g13
sg14
g13
sg15
V8767
p1313
sg17
g13
sbsV82.79.184.241
p1314
g2
(g3
g4
Ntp1315
Rp1316
(dp1317
g8
g1314
sg9
F0.0
sg10
V82.79.184.0
p1318
sg12
g13
sg14
g13
sg15
V8708
p1319
sg17
g13
sbsV86.125.99.232
p1320
g2
(g3
g4
Ntp1321
Rp1322
(dp1323
g8
g1320
sg9
F0.0
sg10
V86.125.99.0
p1324
sg12
g13
sg14
g13
sg15
V8708
p1325
sg17
g13
sbsV140.247.116.186
p1326
g2
(g3
g4
Ntp1327
Rp1328
(dp1329
g8
g1326
sg9
F0.0
sg10
V140.247.116.0
p1330
sg12
g13
sg14
g13
sg15
V1742
p1331
sg17
g13
sbsV94.103.42.8
p1332
g2
(g3
g4
Ntp1333
Rp1334
(dp1335
g8
g1332
sg9
F0.0
sg10
V94.103.42.0
p1336
sg12
g13
sg14
g13
sg15
V47894
p1337
sg17
g13
sbsV116.50.224.197
p1338
g2
(g3
g4
Ntp1339
Rp1340
(dp1341
g8
g1338
sg9
F0.0
sg10
V116.50.224.0
p1342
sg12
g13
sg14
g13
sg15
V9658
p1343
sg17
g13
sbsV74.223.13.154
p1344
g2
(g3
g4
Ntp1345
Rp1346
(dp1347
g8
g1344
sg9
F0.0
sg10
V74.223.13.0
p1348
sg12
g13
sg14
g13
sg15
V7029
p1349
sg17
g13
sbsV111.93.49.2
p1350
g2
(g3
g4
Ntp1351
Rp1352
(dp1353
g8
g1350
sg9
F0.0
sg10
V111.93.49.0
p1354
sg12
g13
sg14
g13
sg15
V45820
p1355
sg17
g13
sbsV188.109.104.91
p1356
g2
(g3
g4
Ntp1357
Rp1358
(dp1359
g8
g1356
sg9
F0.0
sg10
V188.109.104.0
p1360
sg12
g13
sg14
g13
sg15
V3209
p1361
sg17
g13
sbsV203.125.13.118
p1362
g2
(g3
g4
Ntp1363
Rp1364
(dp1365
g8
g1362
sg9
F0.0
sg10
V203.125.13.0
p1366
sg12
g13
sg14
g13
sg15
V3758
p1367
sg17
g13
sbsV124.158.6.211
p1368
g2
(g3
g4
Ntp1369
Rp1370
(dp1371
g8
g1368
sg9
F0.0
sg10
V124.158.6.0
p1372
sg12
g13
sg14
g13
sg15
V38732
p1373
sg17
g13
sbsV104.31.215.229
p1374
g2
(g3
g4
Ntp1375
Rp1376
(dp1377
g8
g1374
sg9
F0.0
sg10
V104.31.215.0
p1378
sg12
g13
sg14
g13
sg15
V13335
p1379
sg17
g13
sbsV201.158.223.170
p1380
g2
(g3
g4
Ntp1381
Rp1382
(dp1383
g8
g1380
sg9
F0.0
sg10
V201.158.223.0
p1384
sg12
g13
sg14
g13
sg15
V6503
p1385
sg17
g13
sbsV88.198.22.184
p1386
g2
(g3
g4
Ntp1387
Rp1388
(dp1389
g8
g1386
sg9
F0.0
sg10
V88.198.22.0
p1390
sg12
g13
sg14
g13
sg15
V24940
p1391
sg17
g13
sbsV219.145.109.30
p1392
g2
(g3
g4
Ntp1393
Rp1394
(dp1395
g8
g1392
sg9
F0.0
sg10
V219.145.109.0
p1396
sg12
g13
sg14
g13
sg15
V4134
p1397
sg17
g13
sbsV187.34.126.60
p1398
g2
(g3
g4
Ntp1399
Rp1400
(dp1401
g8
g1398
sg9
F0.0
sg10
V187.34.126.0
p1402
sg12
g13
sg14
g13
sg15
V27699
p1403
sg17
g13
sbsV70.38.55.2
p1404
g2
(g3
g4
Ntp1405
Rp1406
(dp1407
g8
g1404
sg9
F0.0
sg10
V70.38.55.0
p1408
sg12
g13
sg14
g13
sg15
V32613
p1409
sg17
g13
sbsV52.11.207.17
p1410
g2
(g3
g4
Ntp1411
Rp1412
(dp1413
g8
g1410
sg9
F0.0
sg10
V52.11.207.0
p1414
sg12
g13
sg14
g13
sg15
V16509
p1415
sg17
g13
sbsV220.246.76.78
p1416
g2
(g3
g4
Ntp1417
Rp1418
(dp1419
g8
g1416
sg9
F0.0
sg10
V220.246.76.0
p1420
sg12
g13
sg14
g13
sg15
V4760
p1421
sg17
g13
sbsV186.208.65.76
p1422
g2
(g3
g4
Ntp1423
Rp1424
(dp1425
g8
g1422
sg9
F0.0
sg10
V186.208.65.0
p1426
sg12
g13
sg14
g13
sg15
V262740
p1427
sg17
g13
sbsV168.187.98.175
p1428
g2
(g3
g4
Ntp1429
Rp1430
(dp1431
g8
g1428
sg9
F0.0
sg10
V168.187.98.0
p1432
sg12
g13
sg14
g13
sg15
V6412
p1433
sg17
g13
sbsV104.24.211.182
p1434
g2
(g3
g4
Ntp1435
Rp1436
(dp1437
g8
g1434
sg9
F0.0
sg10
V104.24.211.0
p1438
sg12
g13
sg14
g13
sg15
V13335
p1439
sg17
g13
sbsV70.38.55.3
p1440
g2
(g3
g4
Ntp1441
Rp1442
(dp1443
g8
g1440
sg9
F0.0
sg10
V70.38.55.0
p1444
sg12
g13
sg14
g13
sg15
V32613
p1445
sg17
g13
sbsV92.234.245.120
p1446
g2
(g3
g4
Ntp1447
Rp1448
(dp1449
g8
g1446
sg9
F0.0
sg10
V92.234.245.0
p1450
sg12
g13
sg14
g13
sg15
V5089
p1451
sg17
g13
sbsV74.63.50.186
p1452
g2
(g3
g4
Ntp1453
Rp1454
(dp1455
g8
g1452
sg9
F0.0
sg10
V74.63.50.0
p1456
sg12
g13
sg14
g13
sg15
V29791
p1457
sg17
g13
sbsV201.175.12.107
p1458
g2
(g3
g4
Ntp1459
Rp1460
(dp1461
g8
g1458
sg9
F0.0
sg10
V201.175.12.0
p1462
sg12
g13
sg14
g13
sg15
V22908
p1463
sg17
g13
sbsV185.26.171.186
p1464
g2
(g3
g4
Ntp1465
Rp1466
(dp1467
g8
g1464
sg9
F0.0
sg10
V185.26.171.0
p1468
sg12
g13
sg14
g13
sg15
V60738
p1469
sg17
g13
sbsV79.118.135.27
p1470
g2
(g3
g4
Ntp1471
Rp1472
(dp1473
g8
g1470
sg9
F0.0
sg10
V79.118.135.0
p1474
sg12
g13
sg14
g13
sg15
V8708
p1475
sg17
g13
sbsV89.212.244.39
p1476
g2
(g3
g4
Ntp1477
Rp1478
(dp1479
g8
g1476
sg9
F0.0
sg10
V89.212.244.0
p1480
sg12
g13
sg14
g13
sg15
V34779
p1481
sg17
g13
sbsV35.185.52.254
p1482
g2
(g3
g4
Ntp1483
Rp1484
(dp1485
g8
g1482
sg9
F0.0
sg10
V35.185.52.0
p1486
sg12
g13
sg14
g13
sg15
V15169
p1487
sg17
g13
sbsV83.254.134.36
p1488
g2
(g3
g4
Ntp1489
Rp1490
(dp1491
g8
g1488
sg9
F0.0
sg10
V83.254.134.0
p1492
sg12
g13
sg14
g13
sg15
V39651
p1493
sg17
g13
sbsV88.212.11.111
p1494
g2
(g3
g4
Ntp1495
Rp1496
(dp1497
g8
g1494
sg9
F0.0
sg10
V88.212.11.0
p1498
sg12
g13
sg14
g13
sg15
V42841
p1499
sg17
g13
sbsV45.117.239.197
p1500
g2
(g3
g4
Ntp1501
Rp1502
(dp1503
g8
g1500
sg9
F0.0
sg10
V45.117.239.0
p1504
sg12
g13
sg14
g13
sg15
V133421
p1505
sg17
g13
sbsV89.216.122.97
p1506
g2
(g3
g4
Ntp1507
Rp1508
(dp1509
g8
g1506
sg9
F0.0
sg10
V89.216.122.0
p1510
sg12
g13
sg14
g13
sg15
V31042
p1511
sg17
g13
sbsV62.28.225.59
p1512
g2
(g3
g4
Ntp1513
Rp1514
(dp1515
g8
g1512
sg9
F0.0
sg10
V62.28.225.0
p1516
sg12
g13
sg14
g13
sg15
V15525
p1517
sg17
g13
sbsV194.141.4.18
p1518
g2
(g3
g4
Ntp1519
Rp1520
(dp1521
g8
g1518
sg9
F0.0
sg10
V194.141.4.0
p1522
sg12
g13
sg14
g13
sg15
V6802
p1523
sg17
g13
sbsV112.120.100.155
p1524
g2
(g3
g4
Ntp1525
Rp1526
(dp1527
g8
g1524
sg9
F0.0
sg10
V112.120.100.0
p1528
sg12
g13
sg14
g13
sg15
V4760
p1529
sg17
g13
sbsV200.157.14.99
p1530
g2
(g3
g4
Ntp1531
Rp1532
(dp1533
g8
g1530
sg9
F0.0
sg10
V200.157.14.0
p1534
sg12
g13
sg14
g13
sg15
V17379
p1535
sg17
g13
sbsV217.8.62.237
p1536
g2
(g3
g4
Ntp1537
Rp1538
(dp1539
g8
g1536
sg9
F0.0
sg10
V217.8.62.0
p1540
sg12
g13
sg14
g13
sg15
V29562
p1541
sg17
g13
sbsV201.55.140.36
p1542
g2
(g3
g4
Ntp1543
Rp1544
(dp1545
g8
g1542
sg9
F0.0
sg10
V201.55.140.0
p1546
sg12
g13
sg14
g13
sg15
V28620
p1547
sg17
g13
sbsV50.155.205.197
p1548
g2
(g3
g4
Ntp1549
Rp1550
(dp1551
g8
g1548
sg9
F0.0
sg10
V50.155.205.0
p1552
sg12
g13
sg14
g13
sg15
V7922
p1553
sg17
g13
sbsV50.242.57.197
p1554
g2
(g3
g4
Ntp1555
Rp1556
(dp1557
g8
g1554
sg9
F0.0
sg10
V50.242.57.0
p1558
sg12
g13
sg14
g13
sg15
V7922
p1559
sg17
g13
sbsV85.214.150.176
p1560
g2
(g3
g4
Ntp1561
Rp1562
(dp1563
g8
g1560
sg9
F0.0
sg10
V85.214.150.0
p1564
sg12
g13
sg14
g13
sg15
V6724
p1565
sg17
g13
sbsV212.175.88.238
p1566
g2
(g3
g4
Ntp1567
Rp1568
(dp1569
g8
g1566
sg9
F0.0
sg10
V212.175.88.0
p1570
sg12
g13
sg14
g13
sg15
V9121
p1571
sg17
g13
sbsV112.120.91.78
p1572
g2
(g3
g4
Ntp1573
Rp1574
(dp1575
g8
g1572
sg9
F0.0
sg10
V112.120.91.0
p1576
sg12
g13
sg14
g13
sg15
V4760
p1577
sg17
g13
sbsV45.55.75.125
p1578
g2
(g3
g4
Ntp1579
Rp1580
(dp1581
g8
g1578
sg9
F0.0
sg10
V45.55.75.0
p1582
sg12
g13
sg14
g13
sg15
V393406
p1583
sg17
g13
sbsV122.227.225.76
p1584
g2
(g3
g4
Ntp1585
Rp1586
(dp1587
g8
g1584
sg9
F0.0
sg10
V122.227.225.0
p1588
sg12
g13
sg14
g13
sg15
V4134
p1589
sg17
g13
sbsV181.209.239.156
p1590
g2
(g3
g4
Ntp1591
Rp1592
(dp1593
g8
g1590
sg9
F0.0
sg10
V181.209.239.0
p1594
sg12
g13
sg14
g13
sg15
V14754
p1595
sg17
g13
sbsV88.26.252.210
p1596
g2
(g3
g4
Ntp1597
Rp1598
(dp1599
g8
g1596
sg9
F0.0
sg10
V88.26.252.0
p1600
sg12
g13
sg14
g13
sg15
V3352
p1601
sg17
g13
sbsV177.134.41.154
p1602
g2
(g3
g4
Ntp1603
Rp1604
(dp1605
g8
g1602
sg9
F0.0
sg10
V177.134.41.0
p1606
sg12
g13
sg14
g13
sg15
V18881
p1607
sg17
g13
sbsV91.121.223.89
p1608
g2
(g3
g4
Ntp1609
Rp1610
(dp1611
g8
g1608
sg9
F0.0
sg10
V91.121.223.0
p1612
sg12
g13
sg14
g13
sg15
V16276
p1613
sg17
g13
sbsV210.187.31.221
p1614
g2
(g3
g4
Ntp1615
Rp1616
(dp1617
g8
g1614
sg9
F0.0
sg10
V210.187.31.0
p1618
sg12
g13
sg14
g13
sg15
V4788
p1619
sg17
g13
sbsV86.43.98.147
p1620
g2
(g3
g4
Ntp1621
Rp1622
(dp1623
g8
g1620
sg9
F0.0
sg10
V86.43.98.0
p1624
sg12
g13
sg14
g13
sg15
V5466
p1625
sg17
g13
sbsV83.111.38.136
p1626
g2
(g3
g4
Ntp1627
Rp1628
(dp1629
g8
g1626
sg9
F0.0
sg10
V83.111.38.0
p1630
sg12
g13
sg14
g13
sg15
V5384
p1631
sg17
g13
sbsV83.111.38.135
p1632
g2
(g3
g4
Ntp1633
Rp1634
(dp1635
g8
g1632
sg9
F0.0
sg10
V83.111.38.0
p1636
sg12
g13
sg14
g13
sg15
V5384
p1637
sg17
g13
sbsV5.9.240.86
p1638
g2
(g3
g4
Ntp1639
Rp1640
(dp1641
g8
g1638
sg9
F0.0
sg10
V5.9.240.0
p1642
sg12
g13
sg14
g13
sg15
V24940
p1643
sg17
g13
sbsV200.142.111.154
p1644
g2
(g3
g4
Ntp1645
Rp1646
(dp1647
g8
g1644
sg9
F0.0
sg10
V200.142.111.0
p1648
sg12
g13
sg14
g13
sg15
V17222
p1649
sg17
g13
sbsV223.197.202.224
p1650
g2
(g3
g4
Ntp1651
Rp1652
(dp1653
g8
g1650
sg9
F0.0
sg10
V223.197.202.0
p1654
sg12
g13
sg14
g13
sg15
V4760
p1655
sg17
g13
sbsV123.56.157.215
p1656
g2
(g3
g4
Ntp1657
Rp1658
(dp1659
g8
g1656
sg9
F0.0
sg10
V123.56.157.0
p1660
sg12
g13
sg14
g13
sg15
V37963
p1661
sg17
g13
sbsV77.238.99.52
p1662
g2
(g3
g4
Ntp1663
Rp1664
(dp1665
g8
g1662
sg9
F0.0
sg10
V77.238.99.0
p1666
sg12
g13
sg14
g13
sg15
V199599
p1667
sg17
g13
sbsV187.60.50.64
p1668
g2
(g3
g4
Ntp1669
Rp1670
(dp1671
g8
g1668
sg9
F0.0
sg10
V187.60.50.0
p1672
sg12
g13
sg14
g13
sg15
V28151
p1673
sg17
g13
sbsV38.124.174.112
p1674
g2
(g3
g4
Ntp1675
Rp1676
(dp1677
g8
g1674
sg9
F0.0
sg10
V38.124.174.0
p1678
sg12
g13
sg14
g13
sg15
V174
p1679
sg17
g13
sbsV223.197.180.232
p1680
g2
(g3
g4
Ntp1681
Rp1682
(dp1683
g8
g1680
sg9
F0.0
sg10
V223.197.180.0
p1684
sg12
g13
sg14
g13
sg15
V4760
p1685
sg17
g13
sbsV200.21.193.181
p1686
g2
(g3
g4
Ntp1687
Rp1688
(dp1689
g8
g1686
sg9
F0.0
sg10
V200.21.193.0
p1690
sg12
g13
sg14
g13
sg15
V3816
p1691
sg17
g13
sbsV5.135.195.225
p1692
g2
(g3
g4
Ntp1693
Rp1694
(dp1695
g8
g1692
sg9
F0.0
sg10
V5.135.195.0
p1696
sg12
g13
sg14
g13
sg15
V16276
p1697
sg17
g13
sbsV187.60.50.63
p1698
g2
(g3
g4
Ntp1699
Rp1700
(dp1701
g8
g1698
sg9
F0.0
sg10
V187.60.50.0
p1702
sg12
g13
sg14
g13
sg15
V28151
p1703
sg17
g13
sbsV84.200.85.44
p1704
g2
(g3
g4
Ntp1705
Rp1706
(dp1707
g8
g1704
sg9
F0.0
sg10
V84.200.85.0
p1708
sg12
g13
sg14
g13
sg15
V31400
p1709
sg17
g13
sbsV186.42.186.170
p1710
g2
(g3
g4
Ntp1711
Rp1712
(dp1713
g8
g1710
sg9
F0.0
sg10
V186.42.186.0
p1714
sg12
g13
sg14
g13
sg15
V14420
p1715
sg17
g13
sbsV85.126.85.98
p1716
g2
(g3
g4
Ntp1717
Rp1718
(dp1719
g8
g1716
sg9
F0.0
sg10
V85.126.85.0
p1720
sg12
g13
sg14
g13
sg15
V6830
p1721
sg17
g13
sbsV183.62.220.180
p1722
g2
(g3
g4
Ntp1723
Rp1724
(dp1725
g8
g1722
sg9
F0.0
sg10
V183.62.220.0
p1726
sg12
g13
sg14
g13
sg15
V4134
p1727
sg17
g13
sbsV210.187.19.28
p1728
g2
(g3
g4
Ntp1729
Rp1730
(dp1731
g8
g1728
sg9
F0.0
sg10
V210.187.19.0
p1732
sg12
g13
sg14
g13
sg15
V4788
p1733
sg17
g13
sbsV187.141.145.3
p1734
g2
(g3
g4
Ntp1735
Rp1736
(dp1737
g8
g1734
sg9
F0.0
sg10
V187.141.145.0
p1738
sg12
g13
sg14
g13
sg15
V8151
p1739
sg17
g13
sbsV112.120.66.132
p1740
g2
(g3
g4
Ntp1741
Rp1742
(dp1743
g8
g1740
sg9
F0.0
sg10
V112.120.66.0
p1744
sg12
g13
sg14
g13
sg15
V4760
p1745
sg17
g13
sbsV187.16.4.41
p1746
g2
(g3
g4
Ntp1747
Rp1748
(dp1749
g8
g1746
sg9
F0.0
sg10
V187.16.4.0
p1750
sg12
g13
sg14
g13
sg15
V263162
p1751
sg17
g13
sbsV217.160.110.108
p1752
g2
(g3
g4
Ntp1753
Rp1754
(dp1755
g8
g1752
sg9
F0.0
sg10
V217.160.110.0
p1756
sg12
g13
sg14
g13
sg15
V8560
p1757
sg17
g13
sbsV151.80.135.206
p1758
g2
(g3
g4
Ntp1759
Rp1760
(dp1761
g8
g1758
sg9
F0.0
sg10
V151.80.135.0
p1762
sg12
g13
sg14
g13
sg15
V16276
p1763
sg17
g13
sbsV203.86.153.103
p1764
g2
(g3
g4
Ntp1765
Rp1766
(dp1767
g8
g1764
sg9
F0.0
sg10
V203.86.153.0
p1768
sg12
g13
sg14
g13
sg15
V4515
p1769
sg17
g13
sbsV85.99.108.2
p1770
g2
(g3
g4
Ntp1771
Rp1772
(dp1773
g8
g1770
sg9
F0.0
sg10
V85.99.108.0
p1774
sg12
g13
sg14
g13
sg15
V9121
p1775
sg17
g13
sbsV173.180.44.190
p1776
g2
(g3
g4
Ntp1777
Rp1778
(dp1779
g8
g1776
sg9
F0.0
sg10
V173.180.44.0
p1780
sg12
g13
sg14
g13
sg15
V852
p1781
sg17
g13
sbsV197.253.22.245
p1782
g2
(g3
g4
Ntp1783
Rp1784
(dp1785
g8
g1782
sg9
F0.0
sg10
V197.253.22.0
p1786
sg12
g13
sg14
g13
sg15
V37282
p1787
sg17
g13
sbsV200.80.201.217
p1788
g2
(g3
g4
Ntp1789
Rp1790
(dp1791
g8
g1788
sg9
F0.0
sg10
V200.80.201.0
p1792
sg12
g13
sg14
g13
sg15
V11664
p1793
sg17
g13
sbsV201.120.73.231
p1794
g2
(g3
g4
Ntp1795
Rp1796
(dp1797
g8
g1794
sg9
F0.0
sg10
V201.120.73.0
p1798
sg12
g13
sg14
g13
sg15
V8151
p1799
sg17
g13
sbsV52.38.210.15
p1800
g2
(g3
g4
Ntp1801
Rp1802
(dp1803
g8
g1800
sg9
F0.0
sg10
V52.38.210.0
p1804
sg12
g13
sg14
g13
sg15
V16509
p1805
sg17
g13
sbsV186.46.6.178
p1806
g2
(g3
g4
Ntp1807
Rp1808
(dp1809
g8
g1806
sg9
F0.0
sg10
V186.46.6.0
p1810
sg12
g13
sg14
g13
sg15
V14420
p1811
sg17
g13
sbsV64.13.205.190
p1812
g2
(g3
g4
Ntp1813
Rp1814
(dp1815
g8
g1812
sg9
F0.0
sg10
V64.13.205.0
p1816
sg12
g13
sg14
g13
sg15
V31815
p1817
sg17
g13
sbsV140.114.38.250
p1818
g2
(g3
g4
Ntp1819
Rp1820
(dp1821
g8
g1818
sg9
F0.0
sg10
V140.114.38.0
p1822
sg12
g13
sg14
g13
sg15
V18047
p1823
sg17
g13
sbsV58.152.41.153
p1824
g2
(g3
g4
Ntp1825
Rp1826
(dp1827
g8
g1824
sg9
F0.0
sg10
V58.152.41.0
p1828
sg12
g13
sg14
g13
sg15
V4760
p1829
sg17
g13
sbsV190.19.31.185
p1830
g2
(g3
g4
Ntp1831
Rp1832
(dp1833
g8
g1830
sg9
F0.0
sg10
V190.19.31.0
p1834
sg12
g13
sg14
g13
sg15
V10481
p1835
sg17
g13
sbsV203.190.173.81
p1836
g2
(g3
g4
Ntp1837
Rp1838
(dp1839
g8
g1836
sg9
F0.0
sg10
V203.190.173.0
p1840
sg12
g13
sg14
g13
sg15
V7552
p1841
sg17
g13
sbsV192.99.220.97
p1842
g2
(g3
g4
Ntp1843
Rp1844
(dp1845
g8
g1842
sg9
F0.0
sg10
V192.99.220.0
p1846
sg12
g13
sg14
g13
sg15
V16276
p1847
sg17
g13
sbsV218.103.32.123
p1848
g2
(g3
g4
Ntp1849
Rp1850
(dp1851
g8
g1848
sg9
F0.0
sg10
V218.103.32.0
p1852
sg12
g13
sg14
g13
sg15
V4760
p1853
sg17
g13
sbsV114.143.192.179
p1854
g2
(g3
g4
Ntp1855
Rp1856
(dp1857
g8
g1854
sg9
F0.0
sg10
V114.143.192.0
p1858
sg12
g13
sg14
g13
sg15
V17762
p1859
sg17
g13
sbsV67.231.251.21
p1860
g2
(g3
g4
Ntp1861
Rp1862
(dp1863
g8
g1860
sg9
F0.0
sg10
V67.231.251.0
p1864
sg12
g13
sg14
g13
sg15
V40244
p1865
sg17
g13
sbsV103.15.60.95
p1866
g2
(g3
g4
Ntp1867
Rp1868
(dp1869
g8
g1866
sg9
F0.0
sg10
V103.15.60.0
p1870
sg12
g13
sg14
g13
sg15
V59164
p1871
sg17
g13
sbsV209.87.234.94
p1872
g2
(g3
g4
Ntp1873
Rp1874
(dp1875
g8
g1872
sg9
F0.0
sg10
V209.87.234.0
p1876
sg12
g13
sg14
g13
sg15
V13319
p1877
sg17
g13
sbsV186.95.39.83
p1878
g2
(g3
g4
Ntp1879
Rp1880
(dp1881
g8
g1878
sg9
F0.0
sg10
V186.95.39.0
p1882
sg12
g13
sg14
g13
sg15
V8048
p1883
sg17
g13
sbsV79.172.201.107
p1884
g2
(g3
g4
Ntp1885
Rp1886
(dp1887
g8
g1884
sg9
F0.0
sg10
V79.172.201.0
p1888
sg12
g13
sg14
g13
sg15
V62292
p1889
sg17
g13
sbsV75.99.179.38
p1890
g2
(g3
g4
Ntp1891
Rp1892
(dp1893
g8
g1890
sg9
F0.0
sg10
V75.99.179.0
p1894
sg12
g13
sg14
g13
sg15
V6128
p1895
sg17
g13
sbsV74.93.155.13
p1896
g2
(g3
g4
Ntp1897
Rp1898
(dp1899
g8
g1896
sg9
F0.0
sg10
V74.93.155.0
p1900
sg12
g13
sg14
g13
sg15
V7922
p1901
sg17
g13
sbsV68.37.66.18
p1902
g2
(g3
g4
Ntp1903
Rp1904
(dp1905
g8
g1902
sg9
F0.0
sg10
V68.37.66.0
p1906
sg12
g13
sg14
g13
sg15
V7922
p1907
sg17
g13
sbsV41.204.84.211
p1908
g2
(g3
g4
Ntp1909
Rp1910
(dp1911
g8
g1908
sg9
F0.0
sg10
V41.204.84.0
p1912
sg12
g13
sg14
g13
sg15
V15964
p1913
sg17
g13
sbsV36.225.32.6
p1914
g2
(g3
g4
Ntp1915
Rp1916
(dp1917
g8
g1914
sg9
F0.0
sg10
V36.225.32.0
p1918
sg12
g13
sg14
g13
sg15
V3462
p1919
sg17
g13
sbsV182.48.119.151
p1920
g2
(g3
g4
Ntp1921
Rp1922
(dp1923
g8
g1920
sg9
F0.0
sg10
V182.48.119.0
p1924
sg12
g13
sg14
g13
sg15
V4808
p1925
sg17
g13
sbsV212.45.30.220
p1926
g2
(g3
g4
Ntp1927
Rp1928
(dp1929
g8
g1926
sg9
F0.0
sg10
V212.45.30.0
p1930
sg12
g13
sg14
g13
sg15
V8732
p1931
sg17
g13
sbsV118.101.11.84
p1932
g2
(g3
g4
Ntp1933
Rp1934
(dp1935
g8
g1932
sg9
F0.0
sg10
V118.101.11.0
p1936
sg12
g13
sg14
g13
sg15
V4788
p1937
sg17
g13
sbsV182.239.169.101
p1938
g2
(g3
g4
Ntp1939
Rp1940
(dp1941
g8
g1938
sg9
F0.0
sg10
V182.239.169.0
p1942
sg12
g13
sg14
g13
sg15
V4739
p1943
sg17
g13
sbsV65.87.215.19
p1944
g2
(g3
g4
Ntp1945
Rp1946
(dp1947
g8
g1944
sg9
F0.0
sg10
V65.87.215.0
p1948
sg12
g13
sg14
g13
sg15
V20472
p1949
sg17
g13
sbsV220.167.118.181
p1950
g2
(g3
g4
Ntp1951
Rp1952
(dp1953
g8
g1950
sg9
F0.0
sg10
V220.167.118.0
p1954
sg12
g13
sg14
g13
sg15
V4134
p1955
sg17
g13
sbsV62.160.48.103
p1956
g2
(g3
g4
Ntp1957
Rp1958
(dp1959
g8
g1956
sg9
F0.0
sg10
V62.160.48.0
p1960
sg12
g13
sg14
g13
sg15
V3215
p1961
sg17
g13
sbsV178.33.116.51
p1962
g2
(g3
g4
Ntp1963
Rp1964
(dp1965
g8
g1962
sg9
F0.0
sg10
V178.33.116.0
p1966
sg12
g13
sg14
g13
sg15
V16276
p1967
sg17
g13
sbsV188.247.61.90
p1968
g2
(g3
g4
Ntp1969
Rp1970
(dp1971
g8
g1968
sg9
F0.0
sg10
V188.247.61.0
p1972
sg12
g13
sg14
g13
sg15
V39442
p1973
sg17
g13
sbsV138.94.113.178
p1974
g2
(g3
g4
Ntp1975
Rp1976
(dp1977
g8
g1974
sg9
F0.0
sg10
V138.94.113.0
p1978
sg12
g13
sg14
g13
sg15
V52866
p1979
sg17
g13
sbsV79.220.139.192
p1980
g2
(g3
g4
Ntp1981
Rp1982
(dp1983
g8
g1980
sg9
F0.0
sg10
V79.220.139.0
p1984
sg12
g13
sg14
g13
sg15
V3320
p1985
sg17
g13
sbsV73.219.119.153
p1986
g2
(g3
g4
Ntp1987
Rp1988
(dp1989
g8
g1986
sg9
F0.0
sg10
V73.219.119.0
p1990
sg12
g13
sg14
g13
sg15
V7922
p1991
sg17
g13
sbsV85.105.39.251
p1992
g2
(g3
g4
Ntp1993
Rp1994
(dp1995
g8
g1992
sg9
F0.0
sg10
V85.105.39.0
p1996
sg12
g13
sg14
g13
sg15
V9121
p1997
sg17
g13
sbsV203.128.246.254
p1998
g2
(g3
g4
Ntp1999
Rp2000
(dp2001
g8
g1998
sg9
F0.0
sg10
V203.128.246.0
p2002
sg12
g13
sg14
g13
sg15
V24088
p2003
sg17
g13
sbsV223.197.163.170
p2004
g2
(g3
g4
Ntp2005
Rp2006
(dp2007
g8
g2004
sg9
F0.0
sg10
V223.197.163.0
p2008
sg12
g13
sg14
g13
sg15
V4760
p2009
sg17
g13
sbsV95.68.252.180
p2010
g2
(g3
g4
Ntp2011
Rp2012
(dp2013
g8
g2010
sg9
F0.0
sg10
V95.68.252.0
p2014
sg12
g13
sg14
g13
sg15
V12389
p2015
sg17
g13
sbsV186.209.163.95
p2016
g2
(g3
g4
Ntp2017
Rp2018
(dp2019
g8
g2016
sg9
F0.0
sg10
V186.209.163.0
p2020
sg12
g13
sg14
g13
sg15
V28625
p2021
sg17
g13
sbsV78.186.195.129
p2022
g2
(g3
g4
Ntp2023
Rp2024
(dp2025
g8
g2022
sg9
F0.0
sg10
V78.186.195.0
p2026
sg12
g13
sg14
g13
sg15
V9121
p2027
sg17
g13
sbsV158.106.204.226
p2028
g2
(g3
g4
Ntp2029
Rp2030
(dp2031
g8
g2028
sg9
F0.0
sg10
V158.106.204.0
p2032
sg12
g13
sg14
g13
sg15
V46450
p2033
sg17
g13
sbsV191.85.172.168
p2034
g2
(g3
g4
Ntp2035
Rp2036
(dp2037
g8
g2034
sg9
F0.0
sg10
V191.85.172.0
p2038
sg12
g13
sg14
g13
sg15
V22927
p2039
sg17
g13
sbsV91.183.201.229
p2040
g2
(g3
g4
Ntp2041
Rp2042
(dp2043
g8
g2040
sg9
F0.0
sg10
V91.183.201.0
p2044
sg12
g13
sg14
g13
sg15
V5432
p2045
sg17
g13
sbsV12.43.127.202
p2046
g2
(g3
g4
Ntp2047
Rp2048
(dp2049
g8
g2046
sg9
F0.0
sg10
V12.43.127.0
p2050
sg12
g13
sg14
g13
sg15
V7018
p2051
sg17
g13
sbsV42.200.250.178
p2052
g2
(g3
g4
Ntp2053
Rp2054
(dp2055
g8
g2052
sg9
F0.0
sg10
V42.200.250.0
p2056
sg12
g13
sg14
g13
sg15
V4760
p2057
sg17
g13
sbsV200.206.219.9
p2058
g2
(g3
g4
Ntp2059
Rp2060
(dp2061
g8
g2058
sg9
F0.0
sg10
V200.206.219.0
p2062
sg12
g13
sg14
g13
sg15
V27699
p2063
sg17
g13
sbsV64.237.211.20
p2064
g2
(g3
g4
Ntp2065
Rp2066
(dp2067
g8
g2064
sg9
F0.0
sg10
V64.237.211.0
p2068
sg12
g13
sg14
g13
sg15
V10396
p2069
sg17
g13
sbsV120.24.210.119
p2070
g2
(g3
g4
Ntp2071
Rp2072
(dp2073
g8
g2070
sg9
F0.0
sg10
V120.24.210.0
p2074
sg12
g13
sg14
g13
sg15
V37963
p2075
sg17
g13
sbsV190.188.100.156
p2076
g2
(g3
g4
Ntp2077
Rp2078
(dp2079
g8
g2076
sg9
F0.0
sg10
V190.188.100.0
p2080
sg12
g13
sg14
g13
sg15
V10481
p2081
sg17
g13
sbsV211.240.71.38
p2082
g2
(g3
g4
Ntp2083
Rp2084
(dp2085
g8
g2082
sg9
F0.0
sg10
V211.240.71.0
p2086
sg12
g13
sg14
g13
sg15
V4663
p2087
sg17
g13
sbsV58.152.39.63
p2088
g2
(g3
g4
Ntp2089
Rp2090
(dp2091
g8
g2088
sg9
F0.0
sg10
V58.152.39.0
p2092
sg12
g13
sg14
g13
sg15
V4760
p2093
sg17
g13
sbsV54.173.70.146
p2094
g2
(g3
g4
Ntp2095
Rp2096
(dp2097
g8
g2094
sg9
F0.0
sg10
V54.173.70.0
p2098
sg12
g13
sg14
g13
sg15
V14618
p2099
sg17
g13
sbsV52.76.102.231
p2100
g2
(g3
g4
Ntp2101
Rp2102
(dp2103
g8
g2100
sg9
F0.0
sg10
V52.76.102.0
p2104
sg12
g13
sg14
g13
sg15
V16509
p2105
sg17
g13
sbsV82.208.131.132
p2106
g2
(g3
g4
Ntp2107
Rp2108
(dp2109
g8
g2106
sg9
F0.0
sg10
V82.208.131.0
p2110
sg12
g13
sg14
g13
sg15
V6830
p2111
sg17
g13
sbsV213.97.227.152
p2112
g2
(g3
g4
Ntp2113
Rp2114
(dp2115
g8
g2112
sg9
F0.0
sg10
V213.97.227.0
p2116
sg12
g13
sg14
g13
sg15
V3352
p2117
sg17
g13
sbsV104.199.231.18
p2118
g2
(g3
g4
Ntp2119
Rp2120
(dp2121
g8
g2118
sg9
F0.0
sg10
V104.199.231.0
p2122
sg12
g13
sg14
g13
sg15
V15169
p2123
sg17
g13
sbsV178.248.39.150
p2124
g2
(g3
g4
Ntp2125
Rp2126
(dp2127
g8
g2124
sg9
F0.0
sg10
V178.248.39.0
p2128
sg12
g13
sg14
g13
sg15
V34555
p2129
sg17
g13
sbsV179.51.74.5
p2130
g2
(g3
g4
Ntp2131
Rp2132
(dp2133
g8
g2130
sg9
F0.0
sg10
V179.51.74.0
p2134
sg12
g13
sg14
g13
sg15
V52471
p2135
sg17
g13
sbsV213.77.26.86
p2136
g2
(g3
g4
Ntp2137
Rp2138
(dp2139
g8
g2136
sg9
F0.0
sg10
V213.77.26.0
p2140
sg12
g13
sg14
g13
sg15
V5617
p2141
sg17
g13
sbsV213.77.26.87
p2142
g2
(g3
g4
Ntp2143
Rp2144
(dp2145
g8
g2142
sg9
F0.0
sg10
V213.77.26.0
p2146
sg12
g13
sg14
g13
sg15
V5617
p2147
sg17
g13
sbsV223.197.184.174
p2148
g2
(g3
g4
Ntp2149
Rp2150
(dp2151
g8
g2148
sg9
F0.0
sg10
V223.197.184.0
p2152
sg12
g13
sg14
g13
sg15
V4760
p2153
sg17
g13
sbsV213.77.26.85
p2154
g2
(g3
g4
Ntp2155
Rp2156
(dp2157
g8
g2154
sg9
F0.0
sg10
V213.77.26.0
p2158
sg12
g13
sg14
g13
sg15
V5617
p2159
sg17
g13
sbsV108.61.221.125
p2160
g2
(g3
g4
Ntp2161
Rp2162
(dp2163
g8
g2160
sg9
F0.0
sg10
V108.61.221.0
p2164
sg12
g13
sg14
g13
sg15
V20473
p2165
sg17
g13
sbsV179.153.38.196
p2166
g2
(g3
g4
Ntp2167
Rp2168
(dp2169
g8
g2166
sg9
F0.0
sg10
V179.153.38.0
p2170
sg12
g13
sg14
g13
sg15
V28573
p2171
sg17
g13
sbsV213.77.26.81
p2172
g2
(g3
g4
Ntp2173
Rp2174
(dp2175
g8
g2172
sg9
F0.0
sg10
V213.77.26.0
p2176
sg12
g13
sg14
g13
sg15
V5617
p2177
sg17
g13
sbsV85.236.191.80
p2178
g2
(g3
g4
Ntp2179
Rp2180
(dp2181
g8
g2178
sg9
F0.0
sg10
V85.236.191.0
p2182
sg12
g13
sg14
g13
sg15
V35032
p2183
sg17
g13
sbsV202.75.100.210
p2184
g2
(g3
g4
Ntp2185
Rp2186
(dp2187
g8
g2184
sg9
F0.0
sg10
V202.75.100.0
p2188
sg12
g13
sg14
g13
sg15
V45710
p2189
sg17
g13
sbsV65.38.211.147
p2190
g2
(g3
g4
Ntp2191
Rp2192
(dp2193
g8
g2190
sg9
F0.0
sg10
V65.38.211.0
p2194
sg12
g13
sg14
g13
sg15
V11992
p2195
sg17
g13
sbsV175.138.66.100
p2196
g2
(g3
g4
Ntp2197
Rp2198
(dp2199
g8
g2196
sg9
F0.0
sg10
V175.138.66.0
p2200
sg12
g13
sg14
g13
sg15
V4788
p2201
sg17
g13
sbsV27.124.116.110
p2202
g2
(g3
g4
Ntp2203
Rp2204
(dp2205
g8
g2202
sg9
F0.0
sg10
V27.124.116.0
p2206
sg12
g13
sg14
g13
sg15
V38719
p2207
sg17
g13
sbsV12.71.140.107
p2208
g2
(g3
g4
Ntp2209
Rp2210
(dp2211
g8
g2208
sg9
F0.0
sg10
V12.71.140.0
p2212
sg12
g13
sg14
g13
sg15
V7018
p2213
sg17
g13
sbsV24.139.11.69
p2214
g2
(g3
g4
Ntp2215
Rp2216
(dp2217
g8
g2214
sg9
F0.0
sg10
V24.139.11.0
p2218
sg12
g13
sg14
g13
sg15
V23184
p2219
sg17
g13
sbsV69.55.137.214
p2220
g2
(g3
g4
Ntp2221
Rp2222
(dp2223
g8
g2220
sg9
F0.0
sg10
V69.55.137.0
p2224
sg12
g13
sg14
g13
sg15
V23127
p2225
sg17
g13
sbsV163.200.81.94
p2226
g2
(g3
g4
Ntp2227
Rp2228
(dp2229
g8
g2226
sg9
F0.0
sg10
V163.200.81.0
p2230
sg12
g13
sg14
g13
sg15
V2018
p2231
sg17
g13
sbsV219.76.187.218
p2232
g2
(g3
g4
Ntp2233
Rp2234
(dp2235
g8
g2232
sg9
F0.0
sg10
V219.76.187.0
p2236
sg12
g13
sg14
g13
sg15
V4760
p2237
sg17
g13
sbsV72.197.12.43
p2238
g2
(g3
g4
Ntp2239
Rp2240
(dp2241
g8
g2238
sg9
F0.0
sg10
V72.197.12.0
p2242
sg12
g13
sg14
g13
sg15
V22773
p2243
sg17
g13
sbsV23.30.73.254
p2244
g2
(g3
g4
Ntp2245
Rp2246
(dp2247
g8
g2244
sg9
F0.0
sg10
V23.30.73.0
p2248
sg12
g13
sg14
g13
sg15
V7922
p2249
sg17
g13
sbsV5.9.89.102
p2250
g2
(g3
g4
Ntp2251
Rp2252
(dp2253
g8
g2250
sg9
F0.0
sg10
V5.9.89.0
p2254
sg12
g13
sg14
g13
sg15
V24940
p2255
sg17
g13
sbsV203.183.93.139
p2256
g2
(g3
g4
Ntp2257
Rp2258
(dp2259
g8
g2256
sg9
F0.0
sg10
V203.183.93.0
p2260
sg12
g13
sg14
g13
sg15
V2554
p2261
sg17
g13
sbsV84.246.0.193
p2262
g2
(g3
g4
Ntp2263
Rp2264
(dp2265
g8
g2262
sg9
F0.0
sg10
V84.246.0.0
p2266
sg12
g13
sg14
g13
sg15
V28685
p2267
sg17
g13
sbsV112.120.74.77
p2268
g2
(g3
g4
Ntp2269
Rp2270
(dp2271
g8
g2268
sg9
F0.0
sg10
V112.120.74.0
p2272
sg12
g13
sg14
g13
sg15
V4760
p2273
sg17
g13
sbsV203.116.137.100
p2274
g2
(g3
g4
Ntp2275
Rp2276
(dp2277
g8
g2274
sg9
F0.0
sg10
V203.116.137.0
p2278
sg12
g13
sg14
g13
sg15
V4657
p2279
sg17
g13
sbsV223.197.234.72
p2280
g2
(g3
g4
Ntp2281
Rp2282
(dp2283
g8
g2280
sg9
F0.0
sg10
V223.197.234.0
p2284
sg12
g13
sg14
g13
sg15
V4760
p2285
sg17
g13
sbsV177.69.250.65
p2286
g2
(g3
g4
Ntp2287
Rp2288
(dp2289
g8
g2286
sg9
F0.0
sg10
V177.69.250.0
p2290
sg12
g13
sg14
g13
sg15
V16735
p2291
sg17
g13
sbsV190.248.136.53
p2292
g2
(g3
g4
Ntp2293
Rp2294
(dp2295
g8
g2292
sg9
F0.0
sg10
V190.248.136.0
p2296
sg12
g13
sg14
g13
sg15
V13489
p2297
sg17
g13
sbsV218.100.84.180
p2298
g2
(g3
g4
Ntp2299
Rp2300
(dp2301
g8
g2298
sg9
F0.0
sg10
V218.100.84.0
p2302
sg12
g13
sg14
g13
sg15
V56301
p2303
sg17
g13
sbsV185.110.20.170
p2304
g2
(g3
g4
Ntp2305
Rp2306
(dp2307
g8
g2304
sg9
F0.0
sg10
V185.110.20.0
p2308
sg12
g13
sg14
g13
sg15
V12874
p2309
sg17
g13
sbsV43.242.241.218
p2310
g2
(g3
g4
Ntp2311
Rp2312
(dp2313
g8
g2310
sg9
F0.0
sg10
V43.242.241.0
p2314
sg12
g13
sg14
g13
sg15
V17882
p2315
sg17
g13
sbsV46.101.238.243
p2316
g2
(g3
g4
Ntp2317
Rp2318
(dp2319
g8
g2316
sg9
F0.0
sg10
V46.101.238.0
p2320
sg12
g13
sg14
g13
sg15
V201229
p2321
sg17
g13
sbsV87.106.136.145
p2322
g2
(g3
g4
Ntp2323
Rp2324
(dp2325
g8
g2322
sg9
F0.0
sg10
V87.106.136.0
p2326
sg12
g13
sg14
g13
sg15
V8560
p2327
sg17
g13
sbsV80.152.253.191
p2328
g2
(g3
g4
Ntp2329
Rp2330
(dp2331
g8
g2328
sg9
F0.0
sg10
V80.152.253.0
p2332
sg12
g13
sg14
g13
sg15
V3320
p2333
sg17
g13
sbsV79.229.173.118
p2334
g2
(g3
g4
Ntp2335
Rp2336
(dp2337
g8
g2334
sg9
F0.0
sg10
V79.229.173.0
p2338
sg12
g13
sg14
g13
sg15
V3320
p2339
sg17
g13
sbsV188.85.159.185
p2340
g2
(g3
g4
Ntp2341
Rp2342
(dp2343
g8
g2340
sg9
F0.0
sg10
V188.85.159.0
p2344
sg12
g13
sg14
g13
sg15
V12430
p2345
sg17
g13
sbsV217.253.99.113
p2346
g2
(g3
g4
Ntp2347
Rp2348
(dp2349
g8
g2346
sg9
F0.0
sg10
V217.253.99.0
p2350
sg12
g13
sg14
g13
sg15
V3320
p2351
sg17
g13
sbsV194.250.50.137
p2352
g2
(g3
g4
Ntp2353
Rp2354
(dp2355
g8
g2352
sg9
F0.0
sg10
V194.250.50.0
p2356
sg12
g13
sg14
g13
sg15
V3215
p2357
sg17
g13
sbsV175.136.242.41
p2358
g2
(g3
g4
Ntp2359
Rp2360
(dp2361
g8
g2358
sg9
F0.0
sg10
V175.136.242.0
p2362
sg12
g13
sg14
g13
sg15
V4788
p2363
sg17
g13
sbsV46.101.199.59
p2364
g2
(g3
g4
Ntp2365
Rp2366
(dp2367
g8
g2364
sg9
F0.0
sg10
V46.101.199.0
p2368
sg12
g13
sg14
g13
sg15
V201229
p2369
sg17
g13
sbsV219.76.179.37
p2370
g2
(g3
g4
Ntp2371
Rp2372
(dp2373
g8
g2370
sg9
F0.0
sg10
V219.76.179.0
p2374
sg12
g13
sg14
g13
sg15
V4760
p2375
sg17
g13
sbsV182.19.4.220
p2376
g2
(g3
g4
Ntp2377
Rp2378
(dp2379
g8
g2376
sg9
F0.0
sg10
V182.19.4.0
p2380
sg12
g13
sg14
g13
sg15
V55410
p2381
sg17
g13
sbsV93.211.178.14
p2382
g2
(g3
g4
Ntp2383
Rp2384
(dp2385
g8
g2382
sg9
F0.0
sg10
V93.211.178.0
p2386
sg12
g13
sg14
g13
sg15
V3320
p2387
sg17
g13
sbsV200.88.48.173
p2388
g2
(g3
g4
Ntp2389
Rp2390
(dp2391
g8
g2388
sg9
F0.0
sg10
V200.88.48.0
p2392
sg12
g13
sg14
g13
sg15
V6400
p2393
sg17
g13
sbsV92.212.27.28
p2394
g2
(g3
g4
Ntp2395
Rp2396
(dp2397
g8
g2394
sg9
F0.0
sg10
V92.212.27.0
p2398
sg12
g13
sg14
g13
sg15
V3209
p2399
sg17
g13
sbsV93.207.56.18
p2400
g2
(g3
g4
Ntp2401
Rp2402
(dp2403
g8
g2400
sg9
F0.0
sg10
V93.207.56.0
p2404
sg12
g13
sg14
g13
sg15
V3320
p2405
sg17
g13
sbsV173.83.94.154
p2406
g2
(g3
g4
Ntp2407
Rp2408
(dp2409
g8
g2406
sg9
F0.0
sg10
V173.83.94.0
p2410
sg12
g13
sg14
g13
sg15
V32392
p2411
sg17
g13
sbsV81.218.41.96
p2412
g2
(g3
g4
Ntp2413
Rp2414
(dp2415
g8
g2412
sg9
F0.0
sg10
V81.218.41.0
p2416
sg12
g13
sg14
g13
sg15
V8551
p2417
sg17
g13
sbsV167.250.177.178
p2418
g2
(g3
g4
Ntp2419
Rp2420
(dp2421
g8
g2418
sg9
F0.0
sg10
V167.250.177.0
p2422
sg12
g13
sg14
g13
sg15
V265209
p2423
sg17
g13
sbsV49.231.149.16
p2424
g2
(g3
g4
Ntp2425
Rp2426
(dp2427
g8
g2424
sg9
F0.0
sg10
V49.231.149.0
p2428
sg12
g13
sg14
g13
sg15
V45458
p2429
sg17
g13
sbsV213.114.239.155
p2430
g2
(g3
g4
Ntp2431
Rp2432
(dp2433
g8
g2430
sg9
F0.0
sg10
V213.114.239.0
p2434
sg12
g13
sg14
g13
sg15
V2119
p2435
sg17
g13
sbsV80.18.171.82
p2436
g2
(g3
g4
Ntp2437
Rp2438
(dp2439
g8
g2436
sg9
F0.0
sg10
V80.18.171.0
p2440
sg12
g13
sg14
g13
sg15
V3269
p2441
sg17
g13
sbsV54.145.241.36
p2442
g2
(g3
g4
Ntp2443
Rp2444
(dp2445
g8
g2442
sg9
F0.0
sg10
V54.145.241.0
p2446
sg12
g13
sg14
g13
sg15
V14618
p2447
sg17
g13
sbsV80.69.162.115
p2448
g2
(g3
g4
Ntp2449
Rp2450
(dp2451
g8
g2448
sg9
F0.0
sg10
V80.69.162.0
p2452
sg12
g13
sg14
g13
sg15
V31211
p2453
sg17
g13
sbsV192.241.124.134
p2454
g2
(g3
g4
Ntp2455
Rp2456
(dp2457
g8
g2454
sg9
F0.0
sg10
V192.241.124.0
p2458
sg12
g13
sg14
g13
sg15
V55286
p2459
sg17
g13
sbsV177.220.165.2
p2460
g2
(g3
g4
Ntp2461
Rp2462
(dp2463
g8
g2460
sg9
F0.0
sg10
V177.220.165.0
p2464
sg12
g13
sg14
g13
sg15
V14868
p2465
sg17
g13
sbsV194.2.189.71
p2466
g2
(g3
g4
Ntp2467
Rp2468
(dp2469
g8
g2466
sg9
F0.0
sg10
V194.2.189.0
p2470
sg12
g13
sg14
g13
sg15
V3215
p2471
sg17
g13
sbsV186.155.192.149
p2472
g2
(g3
g4
Ntp2473
Rp2474
(dp2475
g8
g2472
sg9
F0.0
sg10
V186.155.192.0
p2476
sg12
g13
sg14
g13
sg15
V19429
p2477
sg17
g13
sbsV104.196.114.170
p2478
g2
(g3
g4
Ntp2479
Rp2480
(dp2481
g8
g2478
sg9
F0.0
sg10
V104.196.114.0
p2482
sg12
g13
sg14
g13
sg15
V15169
p2483
sg17
g13
sbsV200.145.241.88
p2484
g2
(g3
g4
Ntp2485
Rp2486
(dp2487
g8
g2484
sg9
F0.0
sg10
V200.145.241.0
p2488
sg12
g13
sg14
g13
sg15
V53166
p2489
sg17
g13
sbsV41.33.225.82
p2490
g2
(g3
g4
Ntp2491
Rp2492
(dp2493
g8
g2490
sg9
F0.0
sg10
V41.33.225.0
p2494
sg12
g13
sg14
g13
sg15
V8452
p2495
sg17
g13
sbsV78.46.44.206
p2496
g2
(g3
g4
Ntp2497
Rp2498
(dp2499
g8
g2496
sg9
F0.0
sg10
V78.46.44.0
p2500
sg12
g13
sg14
g13
sg15
V24940
p2501
sg17
g13
sbsV149.5.2.36
p2502
g2
(g3
g4
Ntp2503
Rp2504
(dp2505
g8
g2502
sg9
F0.0
sg10
V149.5.2.0
p2506
sg12
g13
sg14
g13
sg15
V174
p2507
sg17
g13
sbsV54.213.142.168
p2508
g2
(g3
g4
Ntp2509
Rp2510
(dp2511
g8
g2508
sg9
F0.0
sg10
V54.213.142.0
p2512
sg12
g13
sg14
g13
sg15
V16509
p2513
sg17
g13
sbsV37.205.121.39
p2514
g2
(g3
g4
Ntp2515
Rp2516
(dp2517
g8
g2514
sg9
F0.0
sg10
V37.205.121.0
p2518
sg12
g13
sg14
g13
sg15
V42525
p2519
sg17
g13
sbsV41.33.225.85
p2520
g2
(g3
g4
Ntp2521
Rp2522
(dp2523
g8
g2520
sg9
F0.0
sg10
V41.33.225.0
p2524
sg12
g13
sg14
g13
sg15
V8452
p2525
sg17
g13
sbsV200.33.31.116
p2526
g2
(g3
g4
Ntp2527
Rp2528
(dp2529
g8
g2526
sg9
F0.0
sg10
V200.33.31.0
p2530
sg12
g13
sg14
g13
sg15
V21692
p2531
sg17
g13
sbsV52.87.36.190
p2532
g2
(g3
g4
Ntp2533
Rp2534
(dp2535
g8
g2532
sg9
F0.0
sg10
V52.87.36.0
p2536
sg12
g13
sg14
g13
sg15
V14618
p2537
sg17
g13
sbsV208.180.143.219
p2538
g2
(g3
g4
Ntp2539
Rp2540
(dp2541
g8
g2538
sg9
F0.0
sg10
V208.180.143.0
p2542
sg12
g13
sg14
g13
sg15
V19108
p2543
sg17
g13
sbsV220.246.38.234
p2544
g2
(g3
g4
Ntp2545
Rp2546
(dp2547
g8
g2544
sg9
F0.0
sg10
V220.246.38.0
p2548
sg12
g13
sg14
g13
sg15
V4760
p2549
sg17
g13
sbsV139.162.191.146
p2550
g2
(g3
g4
Ntp2551
Rp2552
(dp2553
g8
g2550
sg9
F0.0
sg10
V139.162.191.0
p2554
sg12
g13
sg14
g13
sg15
V63949
p2555
sg17
g13
sbsV94.56.90.60
p2556
g2
(g3
g4
Ntp2557
Rp2558
(dp2559
g8
g2556
sg9
F0.0
sg10
V94.56.90.0
p2560
sg12
g13
sg14
g13
sg15
V5384
p2561
sg17
g13
sbsV38.65.136.143
p2562
g2
(g3
g4
Ntp2563
Rp2564
(dp2565
g8
g2562
sg9
F0.0
sg10
V38.65.136.0
p2566
sg12
g13
sg14
g13
sg15
V174
p2567
sg17
g13
sbsV95.168.206.93
p2568
g2
(g3
g4
Ntp2569
Rp2570
(dp2571
g8
g2568
sg9
F0.0
sg10
V95.168.206.0
p2572
sg12
g13
sg14
g13
sg15
V39392
p2573
sg17
g13
sbsV223.197.178.94
p2574
g2
(g3
g4
Ntp2575
Rp2576
(dp2577
g8
g2574
sg9
F0.0
sg10
V223.197.178.0
p2578
sg12
g13
sg14
g13
sg15
V4760
p2579
sg17
g13
sbsV69.195.74.242
p2580
g2
(g3
g4
Ntp2581
Rp2582
(dp2583
g8
g2580
sg9
F0.0
sg10
V69.195.74.0
p2584
sg12
g13
sg14
g13
sg15
V46606
p2585
sg17
g13
sbsV124.43.80.61
p2586
g2
(g3
g4
Ntp2587
Rp2588
(dp2589
g8
g2586
sg9
F0.0
sg10
V124.43.80.0
p2590
sg12
g13
sg14
g13
sg15
V9329
p2591
sg17
g13
sbsV41.33.225.83
p2592
g2
(g3
g4
Ntp2593
Rp2594
(dp2595
g8
g2592
sg9
F0.0
sg10
V41.33.225.0
p2596
sg12
g13
sg14
g13
sg15
V8452
p2597
sg17
g13
sbsV74.90.132.139
p2598
g2
(g3
g4
Ntp2599
Rp2600
(dp2601
g8
g2598
sg9
F0.0
sg10
V74.90.132.0
p2602
sg12
g13
sg14
g13
sg15
V6128
p2603
sg17
g13
sbsV107.180.6.94
p2604
g2
(g3
g4
Ntp2605
Rp2606
(dp2607
g8
g2604
sg9
F0.0
sg10
V107.180.6.0
p2608
sg12
g13
sg14
g13
sg15
V26496
p2609
sg17
g13
sbsV116.48.153.74
p2610
g2
(g3
g4
Ntp2611
Rp2612
(dp2613
g8
g2610
sg9
F0.0
sg10
V116.48.153.0
p2614
sg12
g13
sg14
g13
sg15
V4760
p2615
sg17
g13
sbsV46.13.165.206
p2616
g2
(g3
g4
Ntp2617
Rp2618
(dp2619
g8
g2616
sg9
F0.0
sg10
V46.13.165.0
p2620
sg12
g13
sg14
g13
sg15
V13036
p2621
sg17
g13
sbsV108.161.132.109
p2622
g2
(g3
g4
Ntp2623
Rp2624
(dp2625
g8
g2622
sg9
F0.0
sg10
V108.161.132.0
p2626
sg12
g13
sg14
g13
sg15
V55045
p2627
sg17
g13
sbsV119.36.145.35
p2628
g2
(g3
g4
Ntp2629
Rp2630
(dp2631
g8
g2628
sg9
F0.0
sg10
V119.36.145.0
p2632
sg12
g13
sg14
g13
sg15
V4837
p2633
sg17
g13
sbsV217.92.53.211
p2634
g2
(g3
g4
Ntp2635
Rp2636
(dp2637
g8
g2634
sg9
F0.0
sg10
V217.92.53.0
p2638
sg12
g13
sg14
g13
sg15
V3320
p2639
sg17
g13
sbsV176.222.88.218
p2640
g2
(g3
g4
Ntp2641
Rp2642
(dp2643
g8
g2640
sg9
F0.0
sg10
V176.222.88.0
p2644
sg12
g13
sg14
g13
sg15
V15704
p2645
sg17
g13
sbsV73.150.147.161
p2646
g2
(g3
g4
Ntp2647
Rp2648
(dp2649
g8
g2646
sg9
F0.0
sg10
V73.150.147.0
p2650
sg12
g13
sg14
g13
sg15
V7922
p2651
sg17
g13
sbsV217.130.245.41
p2652
g2
(g3
g4
Ntp2653
Rp2654
(dp2655
g8
g2652
sg9
F0.0
sg10
V217.130.245.0
p2656
sg12
g13
sg14
g13
sg15
V12430
p2657
sg17
g13
sbsV190.80.252.107
p2658
g2
(g3
g4
Ntp2659
Rp2660
(dp2661
g8
g2658
sg9
F0.0
sg10
V190.80.252.0
p2662
sg12
g13
sg14
g13
sg15
V6400
p2663
sg17
g13
sbsV124.49.112.185
p2664
g2
(g3
g4
Ntp2665
Rp2666
(dp2667
g8
g2664
sg9
F0.0
sg10
V124.49.112.0
p2668
sg12
g13
sg14
g13
sg15
V17858
p2669
sg17
g13
sbsV177.101.124.179
p2670
g2
(g3
g4
Ntp2671
Rp2672
(dp2673
g8
g2670
sg9
F0.0
sg10
V177.101.124.0
p2674
sg12
g13
sg14
g13
sg15
V28343
p2675
sg17
g13
sbsV219.76.190.200
p2676
g2
(g3
g4
Ntp2677
Rp2678
(dp2679
g8
g2676
sg9
F0.0
sg10
V219.76.190.0
p2680
sg12
g13
sg14
g13
sg15
V4760
p2681
sg17
g13
sbsV89.96.48.36
p2682
g2
(g3
g4
Ntp2683
Rp2684
(dp2685
g8
g2682
sg9
F0.0
sg10
V89.96.48.0
p2686
sg12
g13
sg14
g13
sg15
V12874
p2687
sg17
g13
sbsV104.36.17.83
p2688
g2
(g3
g4
Ntp2689
Rp2690
(dp2691
g8
g2688
sg9
F0.0
sg10
V104.36.17.0
p2692
sg12
g13
sg14
g13
sg15
V50837
p2693
sg17
g13
sbsV132.255.29.227
p2694
g2
(g3
g4
Ntp2695
Rp2696
(dp2697
g8
g2694
sg9
F0.0
sg10
V132.255.29.0
p2698
sg12
g13
sg14
g13
sg15
V264461
p2699
sg17
g13
sbsV223.197.146.79
p2700
g2
(g3
g4
Ntp2701
Rp2702
(dp2703
g8
g2700
sg9
F0.0
sg10
V223.197.146.0
p2704
sg12
g13
sg14
g13
sg15
V4760
p2705
sg17
g13
sbsV210.1.85.146
p2706
g2
(g3
g4
Ntp2707
Rp2708
(dp2709
g8
g2706
sg9
F0.0
sg10
V210.1.85.0
p2710
sg12
g13
sg14
g13
sg15
V9299
p2711
sg17
g13
sbsV52.3.47.23
p2712
g2
(g3
g4
Ntp2713
Rp2714
(dp2715
g8
g2712
sg9
F0.0
sg10
V52.3.47.0
p2716
sg12
g13
sg14
g13
sg15
V14618
p2717
sg17
g13
sbsV108.166.29.202
p2718
g2
(g3
g4
Ntp2719
Rp2720
(dp2721
g8
g2718
sg9
F0.0
sg10
V108.166.29.0
p2722
sg12
g13
sg14
g13
sg15
V19994
p2723
sg17
g13
sbsV177.220.165.5
p2724
g2
(g3
g4
Ntp2725
Rp2726
(dp2727
g8
g2724
sg9
F0.0
sg10
V177.220.165.0
p2728
sg12
g13
sg14
g13
sg15
V14868
p2729
sg17
g13
sbsV182.92.170.25
p2730
g2
(g3
g4
Ntp2731
Rp2732
(dp2733
g8
g2730
sg9
F0.0
sg10
V182.92.170.0
p2734
sg12
g13
sg14
g13
sg15
V37963
p2735
sg17
g13
sbsV52.77.158.187
p2736
g2
(g3
g4
Ntp2737
Rp2738
(dp2739
g8
g2736
sg9
F0.0
sg10
V52.77.158.0
p2740
sg12
g13
sg14
g13
sg15
V16509
p2741
sg17
g13
sbsV122.146.92.89
p2742
g2
(g3
g4
Ntp2743
Rp2744
(dp2745
g8
g2742
sg9
F0.0
sg10
V122.146.92.0
p2746
sg12
g13
sg14
g13
sg15
V9919
p2747
sg17
g13
sbsV200.79.225.84
p2748
g2
(g3
g4
Ntp2749
Rp2750
(dp2751
g8
g2748
sg9
F0.0
sg10
V200.79.225.0
p2752
sg12
g13
sg14
g13
sg15
V28512
p2753
sg17
g13
sbsV91.16.38.15
p2754
g2
(g3
g4
Ntp2755
Rp2756
(dp2757
g8
g2754
sg9
F0.0
sg10
V91.16.38.0
p2758
sg12
g13
sg14
g13
sg15
V3320
p2759
sg17
g13
sbsV200.42.164.155
p2760
g2
(g3
g4
Ntp2761
Rp2762
(dp2763
g8
g2760
sg9
F0.0
sg10
V200.42.164.0
p2764
sg12
g13
sg14
g13
sg15
V7418
p2765
sg17
g13
sbsV162.242.209.38
p2766
g2
(g3
g4
Ntp2767
Rp2768
(dp2769
g8
g2766
sg9
F0.0
sg10
V162.242.209.0
p2770
sg12
g13
sg14
g13
sg15
V27357
p2771
sg17
g13
sbsV201.238.248.159
p2772
g2
(g3
g4
Ntp2773
Rp2774
(dp2775
g8
g2772
sg9
F0.0
sg10
V201.238.248.0
p2776
sg12
g13
sg14
g13
sg15
V14259
p2777
sg17
g13
sbsV201.238.248.158
p2778
g2
(g3
g4
Ntp2779
Rp2780
(dp2781
g8
g2778
sg9
F0.0
sg10
V201.238.248.0
p2782
sg12
g13
sg14
g13
sg15
V14259
p2783
sg17
g13
sbsV190.121.226.108
p2784
g2
(g3
g4
Ntp2785
Rp2786
(dp2787
g8
g2784
sg9
F0.0
sg10
V190.121.226.0
p2788
sg12
g13
sg14
g13
sg15
V27717
p2789
sg17
g13
sbsV187.75.193.11
p2790
g2
(g3
g4
Ntp2791
Rp2792
(dp2793
g8
g2790
sg9
F0.0
sg10
V187.75.193.0
p2794
sg12
g13
sg14
g13
sg15
V27699
p2795
sg17
g13
sbsV42.3.238.185
p2796
g2
(g3
g4
Ntp2797
Rp2798
(dp2799
g8
g2796
sg9
F0.0
sg10
V42.3.238.0
p2800
sg12
g13
sg14
g13
sg15
V4760
p2801
sg17
g13
sbsV223.197.239.80
p2802
g2
(g3
g4
Ntp2803
Rp2804
(dp2805
g8
g2802
sg9
F0.0
sg10
V223.197.239.0
p2806
sg12
g13
sg14
g13
sg15
V4760
p2807
sg17
g13
sbsV62.67.57.158
p2808
g2
(g3
g4
Ntp2809
Rp2810
(dp2811
g8
g2808
sg9
F0.0
sg10
V62.67.57.0
p2812
sg12
g13
sg14
g13
sg15
V3356
p2813
sg17
g13
sbsV178.4.96.103
p2814
g2
(g3
g4
Ntp2815
Rp2816
(dp2817
g8
g2814
sg9
F0.0
sg10
V178.4.96.0
p2818
sg12
g13
sg14
g13
sg15
V3209
p2819
sg17
g13
sbsV42.200.202.234
p2820
g2
(g3
g4
Ntp2821
Rp2822
(dp2823
g8
g2820
sg9
F0.0
sg10
V42.200.202.0
p2824
sg12
g13
sg14
g13
sg15
V4760
p2825
sg17
g13
sbsV192.34.86.45
p2826
g2
(g3
g4
Ntp2827
Rp2828
(dp2829
g8
g2826
sg9
F0.0
sg10
V192.34.86.0
p2830
sg12
g13
sg14
g13
sg15
V33083
p2831
sg17
g13
sbsV201.222.53.242
p2832
g2
(g3
g4
Ntp2833
Rp2834
(dp2835
g8
g2832
sg9
F0.0
sg10
V201.222.53.0
p2836
sg12
g13
sg14
g13
sg15
V28103
p2837
sg17
g13
sbsV183.89.93.165
p2838
g2
(g3
g4
Ntp2839
Rp2840
(dp2841
g8
g2838
sg9
F0.0
sg10
V183.89.93.0
p2842
sg12
g13
sg14
g13
sg15
V45758
p2843
sg17
g13
sbsV84.175.202.238
p2844
g2
(g3
g4
Ntp2845
Rp2846
(dp2847
g8
g2844
sg9
F0.0
sg10
V84.175.202.0
p2848
sg12
g13
sg14
g13
sg15
V3320
p2849
sg17
g13
sbsV188.26.123.222
p2850
g2
(g3
g4
Ntp2851
Rp2852
(dp2853
g8
g2850
sg9
F0.0
sg10
V188.26.123.0
p2854
sg12
g13
sg14
g13
sg15
V8708
p2855
sg17
g13
sbsV80.82.150.134
p2856
g2
(g3
g4
Ntp2857
Rp2858
(dp2859
g8
g2856
sg9
F0.0
sg10
V80.82.150.0
p2860
sg12
g13
sg14
g13
sg15
V39906
p2861
sg17
g13
sbsV91.196.159.66
p2862
g2
(g3
g4
Ntp2863
Rp2864
(dp2865
g8
g2862
sg9
F0.0
sg10
V91.196.159.0
p2866
sg12
g13
sg14
g13
sg15
V43145
p2867
sg17
g13
sbsV66.198.252.6
p2868
g2
(g3
g4
Ntp2869
Rp2870
(dp2871
g8
g2868
sg9
F0.0
sg10
V66.198.252.0
p2872
sg12
g13
sg14
g13
sg15
V55293
p2873
sg17
g13
sbsV58.152.72.65
p2874
g2
(g3
g4
Ntp2875
Rp2876
(dp2877
g8
g2874
sg9
F0.0
sg10
V58.152.72.0
p2878
sg12
g13
sg14
g13
sg15
V4760
p2879
sg17
g13
sbsV116.228.168.118
p2880
g2
(g3
g4
Ntp2881
Rp2882
(dp2883
g8
g2880
sg9
F0.0
sg10
V116.228.168.0
p2884
sg12
g13
sg14
g13
sg15
V4812
p2885
sg17
g13
sbsV80.153.198.122
p2886
g2
(g3
g4
Ntp2887
Rp2888
(dp2889
g8
g2886
sg9
F0.0
sg10
V80.153.198.0
p2890
sg12
g13
sg14
g13
sg15
V3320
p2891
sg17
g13
sbsV116.48.140.240
p2892
g2
(g3
g4
Ntp2893
Rp2894
(dp2895
g8
g2892
sg9
F0.0
sg10
V116.48.140.0
p2896
sg12
g13
sg14
g13
sg15
V4760
p2897
sg17
g13
sbsV189.225.155.85
p2898
g2
(g3
g4
Ntp2899
Rp2900
(dp2901
g8
g2898
sg9
F0.0
sg10
V189.225.155.0
p2902
sg12
g13
sg14
g13
sg15
V8151
p2903
sg17
g13
sbsV86.47.50.200
p2904
g2
(g3
g4
Ntp2905
Rp2906
(dp2907
g8
g2904
sg9
F0.0
sg10
V86.47.50.0
p2908
sg12
g13
sg14
g13
sg15
V5466
p2909
sg17
g13
sbsV208.80.183.17
p2910
g2
(g3
g4
Ntp2911
Rp2912
(dp2913
g8
g2910
sg9
F0.0
sg10
V208.80.183.0
p2914
sg12
g13
sg14
g13
sg15
V11051
p2915
sg17
g13
sbsV85.255.15.115
p2916
g2
(g3
g4
Ntp2917
Rp2918
(dp2919
g8
g2916
sg9
F0.0
sg10
V85.255.15.0
p2920
sg12
g13
sg14
g13
sg15
V24806
p2921
sg17
g13
sbsV54.84.240.216
p2922
g2
(g3
g4
Ntp2923
Rp2924
(dp2925
g8
g2922
sg9
F0.0
sg10
V54.84.240.0
p2926
sg12
g13
sg14
g13
sg15
V14618
p2927
sg17
g13
sbsV115.29.76.85
p2928
g2
(g3
g4
Ntp2929
Rp2930
(dp2931
g8
g2928
sg9
F0.0
sg10
V115.29.76.0
p2932
sg12
g13
sg14
g13
sg15
V37963
p2933
sg17
g13
sbsV50.207.19.122
p2934
g2
(g3
g4
Ntp2935
Rp2936
(dp2937
g8
g2934
sg9
F0.0
sg10
V50.207.19.0
p2938
sg12
g13
sg14
g13
sg15
V7922
p2939
sg17
g13
sbsV87.237.15.216
p2940
g2
(g3
g4
Ntp2941
Rp2942
(dp2943
g8
g2940
sg9
F0.0
sg10
V87.237.15.0
p2944
sg12
g13
sg14
g13
sg15
V8368
p2945
sg17
g13
sbsV85.181.197.208
p2946
g2
(g3
g4
Ntp2947
Rp2948
(dp2949
g8
g2946
sg9
F0.0
sg10
V85.181.197.0
p2950
sg12
g13
sg14
g13
sg15
V6805
p2951
sg17
g13
sbsV59.42.53.243
p2952
g2
(g3
g4
Ntp2953
Rp2954
(dp2955
g8
g2952
sg9
F0.0
sg10
V59.42.53.0
p2956
sg12
g13
sg14
g13
sg15
V4134
p2957
sg17
g13
sbsV191.101.3.230
p2958
g2
(g3
g4
Ntp2959
Rp2960
(dp2961
g8
g2958
sg9
F0.0
sg10
V191.101.3.0
p2962
sg12
g13
sg14
g13
sg15
V61440
p2963
sg17
g13
sbsV211.218.145.222
p2964
g2
(g3
g4
Ntp2965
Rp2966
(dp2967
g8
g2964
sg9
F0.0
sg10
V211.218.145.0
p2968
sg12
g13
sg14
g13
sg15
V4766
p2969
sg17
g13
sbsV219.145.152.62
p2970
g2
(g3
g4
Ntp2971
Rp2972
(dp2973
g8
g2970
sg9
F0.0
sg10
V219.145.152.0
p2974
sg12
g13
sg14
g13
sg15
V4134
p2975
sg17
g13
sbsV84.134.128.98
p2976
g2
(g3
g4
Ntp2977
Rp2978
(dp2979
g8
g2976
sg9
F0.0
sg10
V84.134.128.0
p2980
sg12
g13
sg14
g13
sg15
V3320
p2981
sg17
g13
sbsV173.231.129.193
p2982
g2
(g3
g4
Ntp2983
Rp2984
(dp2985
g8
g2982
sg9
F0.0
sg10
V173.231.129.0
p2986
sg12
g13
sg14
g13
sg15
V29791
p2987
sg17
g13
sbsV219.79.172.86
p2988
g2
(g3
g4
Ntp2989
Rp2990
(dp2991
g8
g2988
sg9
F0.0
sg10
V219.79.172.0
p2992
sg12
g13
sg14
g13
sg15
V4760
p2993
sg17
g13
sbsV64.90.41.87
p2994
g2
(g3
g4
Ntp2995
Rp2996
(dp2997
g8
g2994
sg9
F0.0
sg10
V64.90.41.0
p2998
sg12
g13
sg14
g13
sg15
V26347
p2999
sg17
g13
sbsV23.25.129.196
p3000
g2
(g3
g4
Ntp3001
Rp3002
(dp3003
g8
g3000
sg9
F0.0
sg10
V23.25.129.0
p3004
sg12
g13
sg14
g13
sg15
V7922
p3005
sg17
g13
sbsV201.234.81.60
p3006
g2
(g3
g4
Ntp3007
Rp3008
(dp3009
g8
g3006
sg9
F0.0
sg10
V201.234.81.0
p3010
sg12
g13
sg14
g13
sg15
V3549
p3011
sg17
g13
sbsV113.52.45.106
p3012
g2
(g3
g4
Ntp3013
Rp3014
(dp3015
g8
g3012
sg9
F0.0
sg10
V113.52.45.0
p3016
sg12
g13
sg14
g13
sg15
V38735
p3017
sg17
g13
sbsV14.141.118.67
p3018
g2
(g3
g4
Ntp3019
Rp3020
(dp3021
g8
g3018
sg9
F0.0
sg10
V14.141.118.0
p3022
sg12
g13
sg14
g13
sg15
V4755
p3023
sg17
g13
sbsV133.242.16.26
p3024
g2
(g3
g4
Ntp3025
Rp3026
(dp3027
g8
g3024
sg9
F0.0
sg10
V133.242.16.0
p3028
sg12
g13
sg14
g13
sg15
V7684
p3029
sg17
g13
sbsV84.232.55.238
p3030
g2
(g3
g4
Ntp3031
Rp3032
(dp3033
g8
g3030
sg9
F0.0
sg10
V84.232.55.0
p3034
sg12
g13
sg14
g13
sg15
V48427
p3035
sg17
g13
sbsV82.127.101.116
p3036
g2
(g3
g4
Ntp3037
Rp3038
(dp3039
g8
g3036
sg9
F0.0
sg10
V82.127.101.0
p3040
sg12
g13
sg14
g13
sg15
V3215
p3041
sg17
g13
sbsV79.134.23.48
p3042
g2
(g3
g4
Ntp3043
Rp3044
(dp3045
g8
g3042
sg9
F0.0
sg10
V79.134.23.0
p3046
sg12
g13
sg14
g13
sg15
V8427
p3047
sg17
g13
sbsV104.29.69.84
p3048
g2
(g3
g4
Ntp3049
Rp3050
(dp3051
g8
g3048
sg9
F0.0
sg10
V104.29.69.0
p3052
sg12
g13
sg14
g13
sg15
V13335
p3053
sg17
g13
sbsV104.131.23.45
p3054
g2
(g3
g4
Ntp3055
Rp3056
(dp3057
g8
g3054
sg9
F0.0
sg10
V104.131.23.0
p3058
sg12
g13
sg14
g13
sg15
V393406
p3059
sg17
g13
sbsV85.71.99.45
p3060
g2
(g3
g4
Ntp3061
Rp3062
(dp3063
g8
g3060
sg9
F0.0
sg10
V85.71.99.0
p3064
sg12
g13
sg14
g13
sg15
V5610
p3065
sg17
g13
sbsV162.13.81.161
p3066
g2
(g3
g4
Ntp3067
Rp3068
(dp3069
g8
g3066
sg9
F0.0
sg10
V162.13.81.0
p3070
sg12
g13
sg14
g13
sg15
V15395
p3071
sg17
g13
sbsV80.76.166.62
p3072
g2
(g3
g4
Ntp3073
Rp3074
(dp3075
g8
g3072
sg9
F0.0
sg10
V80.76.166.0
p3076
sg12
g13
sg14
g13
sg15
V48728
p3077
sg17
g13
sbsV80.69.162.116
p3078
g2
(g3
g4
Ntp3079
Rp3080
(dp3081
g8
g3078
sg9
F0.0
sg10
V80.69.162.0
p3082
sg12
g13
sg14
g13
sg15
V31211
p3083
sg17
g13
sbsV138.197.48.193
p3084
g2
(g3
g4
Ntp3085
Rp3086
(dp3087
g8
g3084
sg9
F0.0
sg10
V138.197.48.0
p3088
sg12
g13
sg14
g13
sg15
V393406
p3089
sg17
g13
sbsV213.56.231.176
p3090
g2
(g3
g4
Ntp3091
Rp3092
(dp3093
g8
g3090
sg9
F0.0
sg10
V213.56.231.0
p3094
sg12
g13
sg14
g13
sg15
V3215
p3095
sg17
g13
sbsV122.112.217.110
p3096
g2
(g3
g4
Ntp3097
Rp3098
(dp3099
g8
g3096
sg9
F0.0
sg10
V122.112.217.0
p3100
sg12
g13
sg14
g13
sg15
V4812
p3101
sg17
g13
sbsV117.3.70.65
p3102
g2
(g3
g4
Ntp3103
Rp3104
(dp3105
g8
g3102
sg9
F0.0
sg10
V117.3.70.0
p3106
sg12
g13
sg14
g13
sg15
V7552
p3107
sg17
g13
sbsV178.79.158.244
p3108
g2
(g3
g4
Ntp3109
Rp3110
(dp3111
g8
g3108
sg9
F0.0
sg10
V178.79.158.0
p3112
sg12
g13
sg14
g13
sg15
V63949
p3113
sg17
g13
sbsV186.251.24.36
p3114
g2
(g3
g4
Ntp3115
Rp3116
(dp3117
g8
g3114
sg9
F0.0
sg10
V186.251.24.0
p3118
sg12
g13
sg14
g13
sg15
V262990
p3119
sg17
g13
sbsV52.31.178.92
p3120
g2
(g3
g4
Ntp3121
Rp3122
(dp3123
g8
g3120
sg9
F0.0
sg10
V52.31.178.0
p3124
sg12
g13
sg14
g13
sg15
V16509
p3125
sg17
g13
sbsV87.187.235.248
p3126
g2
(g3
g4
Ntp3127
Rp3128
(dp3129
g8
g3126
sg9
F0.0
sg10
V87.187.235.0
p3130
sg12
g13
sg14
g13
sg15
V3320
p3131
sg17
g13
sbsV83.223.122.236
p3132
g2
(g3
g4
Ntp3133
Rp3134
(dp3135
g8
g3132
sg9
F0.0
sg10
V83.223.122.0
p3136
sg12
g13
sg14
g13
sg15
V29017
p3137
sg17
g13
sbsV41.33.225.84
p3138
g2
(g3
g4
Ntp3139
Rp3140
(dp3141
g8
g3138
sg9
F0.0
sg10
V41.33.225.0
p3142
sg12
g13
sg14
g13
sg15
V8452
p3143
sg17
g13
sbsV190.194.46.52
p3144
g2
(g3
g4
Ntp3145
Rp3146
(dp3147
g8
g3144
sg9
F0.0
sg10
V190.194.46.0
p3148
sg12
g13
sg14
g13
sg15
V10481
p3149
sg17
g13
sbsV50.156.159.70
p3150
g2
(g3
g4
Ntp3151
Rp3152
(dp3153
g8
g3150
sg9
F0.0
sg10
V50.156.159.0
p3154
sg12
g13
sg14
g13
sg15
V7922
p3155
sg17
g13
sbsV170.185.232.22
p3156
g2
(g3
g4
Ntp3157
Rp3158
(dp3159
g8
g3156
sg9
F0.0
sg10
V170.185.232.0
p3160
sg12
g13
sg14
g13
sg15
V8030
p3161
sg17
g13
sbsV45.32.8.117
p3162
g2
(g3
g4
Ntp3163
Rp3164
(dp3165
g8
g3162
sg9
F0.0
sg10
V45.32.8.0
p3166
sg12
g13
sg14
g13
sg15
V20473
p3167
sg17
g13
sbsV199.47.100.230
p3168
g2
(g3
g4
Ntp3169
Rp3170
(dp3171
g8
g3168
sg9
F0.0
sg10
V199.47.100.0
p3172
sg12
g13
sg14
g13
sg15
V54876
p3173
sg17
g13
sbsV50.28.23.156
p3174
g2
(g3
g4
Ntp3175
Rp3176
(dp3177
g8
g3174
sg9
F0.0
sg10
V50.28.23.0
p3178
sg12
g13
sg14
g13
sg15
V32244
p3179
sg17
g13
sbsV125.35.14.11
p3180
g2
(g3
g4
Ntp3181
Rp3182
(dp3183
g8
g3180
sg9
F0.0
sg10
V125.35.14.0
p3184
sg12
g13
sg14
g13
sg15
V4808
p3185
sg17
g13
sbsV70.102.137.225
p3186
g2
(g3
g4
Ntp3187
Rp3188
(dp3189
g8
g3186
sg9
F0.0
sg10
V70.102.137.0
p3190
sg12
g13
sg14
g13
sg15
V7385
p3191
sg17
g13
sbsV115.95.226.206
p3192
g2
(g3
g4
Ntp3193
Rp3194
(dp3195
g8
g3192
sg9
F0.0
sg10
V115.95.226.0
p3196
sg12
g13
sg14
g13
sg15
V3786
p3197
sg17
g13
sbsV73.254.12.47
p3198
g2
(g3
g4
Ntp3199
Rp3200
(dp3201
g8
g3198
sg9
F0.0
sg10
V73.254.12.0
p3202
sg12
g13
sg14
g13
sg15
V7922
p3203
sg17
g13
sbsV180.211.97.35
p3204
g2
(g3
g4
Ntp3205
Rp3206
(dp3207
g8
g3204
sg9
F0.0
sg10
V180.211.97.0
p3208
sg12
g13
sg14
g13
sg15
V17625
p3209
sg17
g13
sbsV91.121.251.195
p3210
g2
(g3
g4
Ntp3211
Rp3212
(dp3213
g8
g3210
sg9
F0.0
sg10
V91.121.251.0
p3214
sg12
g13
sg14
g13
sg15
V16276
p3215
sg17
g13
sbsV116.48.128.61
p3216
g2
(g3
g4
Ntp3217
Rp3218
(dp3219
g8
g3216
sg9
F0.0
sg10
V116.48.128.0
p3220
sg12
g13
sg14
g13
sg15
V4760
p3221
sg17
g13
sbsV188.97.177.27
p3222
g2
(g3
g4
Ntp3223
Rp3224
(dp3225
g8
g3222
sg9
F0.0
sg10
V188.97.177.0
p3226
sg12
g13
sg14
g13
sg15
V3209
p3227
sg17
g13
sbsV193.227.5.221
p3228
g2
(g3
g4
Ntp3229
Rp3230
(dp3231
g8
g3228
sg9
F0.0
sg10
V193.227.5.0
p3232
sg12
g13
sg14
g13
sg15
V2561
p3233
sg17
g13
sbsV104.46.105.108
p3234
g2
(g3
g4
Ntp3235
Rp3236
(dp3237
g8
g3234
sg9
F0.0
sg10
V104.46.105.0
p3238
sg12
g13
sg14
g13
sg15
V8075
p3239
sg17
g13
sbsV91.191.151.104
p3240
g2
(g3
g4
Ntp3241
Rp3242
(dp3243
g8
g3240
sg9
F0.0
sg10
V91.191.151.0
p3244
sg12
g13
sg14
g13
sg15
V35393
p3245
sg17
g13
sbsV141.105.125.124
p3246
g2
(g3
g4
Ntp3247
Rp3248
(dp3249
g8
g3246
sg9
F0.0
sg10
V141.105.125.0
p3250
sg12
g13
sg14
g13
sg15
V198485
p3251
sg17
g13
sbsV194.78.164.114
p3252
g2
(g3
g4
Ntp3253
Rp3254
(dp3255
g8
g3252
sg9
F0.0
sg10
V194.78.164.0
p3256
sg12
g13
sg14
g13
sg15
V5432
p3257
sg17
g13
sbsV124.43.68.136
p3258
g2
(g3
g4
Ntp3259
Rp3260
(dp3261
g8
g3258
sg9
F0.0
sg10
V124.43.68.0
p3262
sg12
g13
sg14
g13
sg15
V9329
p3263
sg17
g13
sbsV190.104.179.98
p3264
g2
(g3
g4
Ntp3265
Rp3266
(dp3267
g8
g3264
sg9
F0.0
sg10
V190.104.179.0
p3268
sg12
g13
sg14
g13
sg15
V27895
p3269
sg17
g13
sbsV176.123.217.28
p3270
g2
(g3
g4
Ntp3271
Rp3272
(dp3273
g8
g3270
sg9
F0.0
sg10
V176.123.217.0
p3274
sg12
g13
sg14
g13
sg15
V59584
p3275
sg17
g13
sbsV223.197.202.162
p3276
g2
(g3
g4
Ntp3277
Rp3278
(dp3279
g8
g3276
sg9
F0.0
sg10
V223.197.202.0
p3280
sg12
g13
sg14
g13
sg15
V4760
p3281
sg17
g13
sbsV59.110.13.178
p3282
g2
(g3
g4
Ntp3283
Rp3284
(dp3285
g8
g3282
sg9
F0.0
sg10
V59.110.13.0
p3286
sg12
g13
sg14
g13
sg15
V37963
p3287
sg17
g13
sbsV178.248.39.104
p3288
g2
(g3
g4
Ntp3289
Rp3290
(dp3291
g8
g3288
sg9
F0.0
sg10
V178.248.39.0
p3292
sg12
g13
sg14
g13
sg15
V34555
p3293
sg17
g13
sbsV212.123.229.245
p3294
g2
(g3
g4
Ntp3295
Rp3296
(dp3297
g8
g3294
sg9
F0.0
sg10
V212.123.229.0
p3298
sg12
g13
sg14
g13
sg15
V8220
p3299
sg17
g13
sbsV213.42.88.54
p3300
g2
(g3
g4
Ntp3301
Rp3302
(dp3303
g8
g3300
sg9
F0.0
sg10
V213.42.88.0
p3304
sg12
g13
sg14
g13
sg15
V5384
p3305
sg17
g13
sbsV179.190.28.61
p3306
g2
(g3
g4
Ntp3307
Rp3308
(dp3309
g8
g3306
sg9
F0.0
sg10
V179.190.28.0
p3310
sg12
g13
sg14
g13
sg15
V52925
p3311
sg17
g13
sbsV68.4.250.175
p3312
g2
(g3
g4
Ntp3313
Rp3314
(dp3315
g8
g3312
sg9
F0.0
sg10
V68.4.250.0
p3316
sg12
g13
sg14
g13
sg15
V22773
p3317
sg17
g13
sbsV220.246.112.81
p3318
g2
(g3
g4
Ntp3319
Rp3320
(dp3321
g8
g3318
sg9
F0.0
sg10
V220.246.112.0
p3322
sg12
g13
sg14
g13
sg15
V4760
p3323
sg17
g13
sbsV223.197.220.103
p3324
g2
(g3
g4
Ntp3325
Rp3326
(dp3327
g8
g3324
sg9
F0.0
sg10
V223.197.220.0
p3328
sg12
g13
sg14
g13
sg15
V4760
p3329
sg17
g13
sbsV177.34.248.132
p3330
g2
(g3
g4
Ntp3331
Rp3332
(dp3333
g8
g3330
sg9
F0.0
sg10
V177.34.248.0
p3334
sg12
g13
sg14
g13
sg15
V28573
p3335
sg17
g13
sbsV182.139.132.196
p3336
g2
(g3
g4
Ntp3337
Rp3338
(dp3339
g8
g3336
sg9
F0.0
sg10
V182.139.132.0
p3340
sg12
g13
sg14
g13
sg15
V4134
p3341
sg17
g13
sbsV185.110.20.35
p3342
g2
(g3
g4
Ntp3343
Rp3344
(dp3345
g8
g3342
sg9
F0.0
sg10
V185.110.20.0
p3346
sg12
g13
sg14
g13
sg15
V12874
p3347
sg17
g13
sbsV82.70.38.142
p3348
g2
(g3
g4
Ntp3349
Rp3350
(dp3351
g8
g3348
sg9
F0.0
sg10
V82.70.38.0
p3352
sg12
g13
sg14
g13
sg15
V13037
p3353
sg17
g13
sbsV91.242.140.101
p3354
g2
(g3
g4
Ntp3355
Rp3356
(dp3357
g8
g3354
sg9
F0.0
sg10
V91.242.140.0
p3358
sg12
g13
sg14
g13
sg15
S'0'
p3359
sg17
g13
sbsV42.200.236.196
p3360
g2
(g3
g4
Ntp3361
Rp3362
(dp3363
g8
g3360
sg9
F0.0
sg10
V42.200.236.0
p3364
sg12
g13
sg14
g13
sg15
V4760
p3365
sg17
g13
sbsV201.131.12.60
p3366
g2
(g3
g4
Ntp3367
Rp3368
(dp3369
g8
g3366
sg9
F0.0
sg10
V201.131.12.0
p3370
sg12
g13
sg14
g13
sg15
V28478
p3371
sg17
g13
sbsV165.255.109.11
p3372
g2
(g3
g4
Ntp3373
Rp3374
(dp3375
g8
g3372
sg9
F0.0
sg10
V165.255.109.0
p3376
sg12
g13
sg14
g13
sg15
V37611
p3377
sg17
g13
sbsV218.103.121.103
p3378
g2
(g3
g4
Ntp3379
Rp3380
(dp3381
g8
g3378
sg9
F0.0
sg10
V218.103.121.0
p3382
sg12
g13
sg14
g13
sg15
V4760
p3383
sg17
g13
sbsV188.26.122.59
p3384
g2
(g3
g4
Ntp3385
Rp3386
(dp3387
g8
g3384
sg9
F0.0
sg10
V188.26.122.0
p3388
sg12
g13
sg14
g13
sg15
V8708
p3389
sg17
g13
sbsV116.48.157.117
p3390
g2
(g3
g4
Ntp3391
Rp3392
(dp3393
g8
g3390
sg9
F0.0
sg10
V116.48.157.0
p3394
sg12
g13
sg14
g13
sg15
V4760
p3395
sg17
g13
sbsV208.70.196.25
p3396
g2
(g3
g4
Ntp3397
Rp3398
(dp3399
g8
g3396
sg9
F0.0
sg10
V208.70.196.0
p3400
sg12
g13
sg14
g13
sg15
V18597
p3401
sg17
g13
sbsV112.120.72.219
p3402
g2
(g3
g4
Ntp3403
Rp3404
(dp3405
g8
g3402
sg9
F0.0
sg10
V112.120.72.0
p3406
sg12
g13
sg14
g13
sg15
V4760
p3407
sg17
g13
sbsV108.80.69.65
p3408
g2
(g3
g4
Ntp3409
Rp3410
(dp3411
g8
g3408
sg9
F0.0
sg10
V108.80.69.0
p3412
sg12
g13
sg14
g13
sg15
V7018
p3413
sg17
g13
sbsV217.82.59.175
p3414
g2
(g3
g4
Ntp3415
Rp3416
(dp3417
g8
g3414
sg9
F0.0
sg10
V217.82.59.0
p3418
sg12
g13
sg14
g13
sg15
V3320
p3419
sg17
g13
sbsV223.197.242.240
p3420
g2
(g3
g4
Ntp3421
Rp3422
(dp3423
g8
g3420
sg9
F0.0
sg10
V223.197.242.0
p3424
sg12
g13
sg14
g13
sg15
V4760
p3425
sg17
g13
sbsV209.197.117.170
p3426
g2
(g3
g4
Ntp3427
Rp3428
(dp3429
g8
g3426
sg9
F0.0
sg10
V209.197.117.0
p3430
sg12
g13
sg14
g13
sg15
V7859
p3431
sg17
g13
sbsV223.197.148.76
p3432
g2
(g3
g4
Ntp3433
Rp3434
(dp3435
g8
g3432
sg9
F0.0
sg10
V223.197.148.0
p3436
sg12
g13
sg14
g13
sg15
V4760
p3437
sg17
g13
sbsV42.200.164.21
p3438
g2
(g3
g4
Ntp3439
Rp3440
(dp3441
g8
g3438
sg9
F0.0
sg10
V42.200.164.0
p3442
sg12
g13
sg14
g13
sg15
V4760
p3443
sg17
g13
sbsV192.185.128.244
p3444
g2
(g3
g4
Ntp3445
Rp3446
(dp3447
g8
g3444
sg9
F0.0
sg10
V192.185.128.0
p3448
sg12
g13
sg14
g13
sg15
V20013
p3449
sg17
g13
sbsV86.51.187.102
p3450
g2
(g3
g4
Ntp3451
Rp3452
(dp3453
g8
g3450
sg9
F0.0
sg10
V86.51.187.0
p3454
sg12
g13
sg14
g13
sg15
V35819
p3455
sg17
g13
sbsV201.33.200.18
p3456
g2
(g3
g4
Ntp3457
Rp3458
(dp3459
g8
g3456
sg9
F0.0
sg10
V201.33.200.0
p3460
sg12
g13
sg14
g13
sg15
V28284
p3461
sg17
g13
sbsV104.236.218.193
p3462
g2
(g3
g4
Ntp3463
Rp3464
(dp3465
g8
g3462
sg9
F0.0
sg10
V104.236.218.0
p3466
sg12
g13
sg14
g13
sg15
V393406
p3467
sg17
g13
sbsV104.209.137.118
p3468
g2
(g3
g4
Ntp3469
Rp3470
(dp3471
g8
g3468
sg9
F0.0
sg10
V104.209.137.0
p3472
sg12
g13
sg14
g13
sg15
V8075
p3473
sg17
g13
sbsV80.11.224.25
p3474
g2
(g3
g4
Ntp3475
Rp3476
(dp3477
g8
g3474
sg9
F0.0
sg10
V80.11.224.0
p3478
sg12
g13
sg14
g13
sg15
V3215
p3479
sg17
g13
sbsV206.16.57.61
p3480
g2
(g3
g4
Ntp3481
Rp3482
(dp3483
g8
g3480
sg9
F0.0
sg10
V206.16.57.0
p3484
sg12
g13
sg14
g13
sg15
V17227
p3485
sg17
g13
sbsV200.89.183.250
p3486
g2
(g3
g4
Ntp3487
Rp3488
(dp3489
g8
g3486
sg9
F0.0
sg10
V200.89.183.0
p3490
sg12
g13
sg14
g13
sg15
V10481
p3491
sg17
g13
sbsV140.113.235.180
p3492
g2
(g3
g4
Ntp3493
Rp3494
(dp3495
g8
g3492
sg9
F0.0
sg10
V140.113.235.0
p3496
sg12
g13
sg14
g13
sg15
V9916
p3497
sg17
g13
sbsV89.205.89.29
p3498
g2
(g3
g4
Ntp3499
Rp3500
(dp3501
g8
g3498
sg9
F0.0
sg10
V89.205.89.0
p3502
sg12
g13
sg14
g13
sg15
V41557
p3503
sg17
g13
sbsV197.156.116.53
p3504
g2
(g3
g4
Ntp3505
Rp3506
(dp3507
g8
g3504
sg9
F0.0
sg10
V197.156.116.0
p3508
sg12
g13
sg14
g13
sg15
V24757
p3509
sg17
g13
sbsV85.196.184.40
p3510
g2
(g3
g4
Ntp3511
Rp3512
(dp3513
g8
g3510
sg9
F0.0
sg10
V85.196.184.0
p3514
sg12
g13
sg14
g13
sg15
V29580
p3515
sg17
g13
sbsV112.120.77.223
p3516
g2
(g3
g4
Ntp3517
Rp3518
(dp3519
g8
g3516
sg9
F0.0
sg10
V112.120.77.0
p3520
sg12
g13
sg14
g13
sg15
V4760
p3521
sg17
g13
sbsV62.161.100.216
p3522
g2
(g3
g4
Ntp3523
Rp3524
(dp3525
g8
g3522
sg9
F0.0
sg10
V62.161.100.0
p3526
sg12
g13
sg14
g13
sg15
V3215
p3527
sg17
g13
sbsV223.197.239.231
p3528
g2
(g3
g4
Ntp3529
Rp3530
(dp3531
g8
g3528
sg9
F0.0
sg10
V223.197.239.0
p3532
sg12
g13
sg14
g13
sg15
V4760
p3533
sg17
g13
sbsV173.231.129.222
p3534
g2
(g3
g4
Ntp3535
Rp3536
(dp3537
g8
g3534
sg9
F0.0
sg10
V173.231.129.0
p3538
sg12
g13
sg14
g13
sg15
V29791
p3539
sg17
g13
sbsV49.156.42.246
p3540
g2
(g3
g4
Ntp3541
Rp3542
(dp3543
g8
g3540
sg9
F0.0
sg10
V49.156.42.0
p3544
sg12
g13
sg14
g13
sg15
V24492
p3545
sg17
g13
sbsV173.231.129.220
p3546
g2
(g3
g4
Ntp3547
Rp3548
(dp3549
g8
g3546
sg9
F0.0
sg10
V173.231.129.0
p3550
sg12
g13
sg14
g13
sg15
V29791
p3551
sg17
g13
sbsV96.38.32.130
p3552
g2
(g3
g4
Ntp3553
Rp3554
(dp3555
g8
g3552
sg9
F0.0
sg10
V96.38.32.0
p3556
sg12
g13
sg14
g13
sg15
V20115
p3557
sg17
g13
sbsV74.63.50.191
p3558
g2
(g3
g4
Ntp3559
Rp3560
(dp3561
g8
g3558
sg9
F0.0
sg10
V74.63.50.0
p3562
sg12
g13
sg14
g13
sg15
V29791
p3563
sg17
g13
sbsV74.63.50.190
p3564
g2
(g3
g4
Ntp3565
Rp3566
(dp3567
g8
g3564
sg9
F0.0
sg10
V74.63.50.0
p3568
sg12
g13
sg14
g13
sg15
V29791
p3569
sg17
g13
sbsV200.24.214.86
p3570
g2
(g3
g4
Ntp3571
Rp3572
(dp3573
g8
g3570
sg9
F0.0
sg10
V200.24.214.0
p3574
sg12
g13
sg14
g13
sg15
V19114
p3575
sg17
g13
sbsV186.249.1.136
p3576
g2
(g3
g4
Ntp3577
Rp3578
(dp3579
g8
g3576
sg9
F0.0
sg10
V186.249.1.0
p3580
sg12
g13
sg14
g13
sg15
V28250
p3581
sg17
g13
sbsV85.13.240.94
p3582
g2
(g3
g4
Ntp3583
Rp3584
(dp3585
g8
g3582
sg9
F0.0
sg10
V85.13.240.0
p3586
sg12
g13
sg14
g13
sg15
V31708
p3587
sg17
g13
sbsV213.158.103.105
p3588
g2
(g3
g4
Ntp3589
Rp3590
(dp3591
g8
g3588
sg9
F0.0
sg10
V213.158.103.0
p3592
sg12
g13
sg14
g13
sg15
V13101
p3593
sg17
g13
sbsV93.239.29.201
p3594
g2
(g3
g4
Ntp3595
Rp3596
(dp3597
g8
g3594
sg9
F0.0
sg10
V93.239.29.0
p3598
sg12
g13
sg14
g13
sg15
V3320
p3599
sg17
g13
sbsV79.210.84.152
p3600
g2
(g3
g4
Ntp3601
Rp3602
(dp3603
g8
g3600
sg9
F0.0
sg10
V79.210.84.0
p3604
sg12
g13
sg14
g13
sg15
V3320
p3605
sg17
g13
sbsV64.150.177.14
p3606
g2
(g3
g4
Ntp3607
Rp3608
(dp3609
g8
g3606
sg9
F0.0
sg10
V64.150.177.0
p3610
sg12
g13
sg14
g13
sg15
V10316
p3611
sg17
g13
sbsV92.60.108.156
p3612
g2
(g3
g4
Ntp3613
Rp3614
(dp3615
g8
g3612
sg9
F0.0
sg10
V92.60.108.0
p3616
sg12
g13
sg14
g13
sg15
V45014
p3617
sg17
g13
sbsV182.53.242.137
p3618
g2
(g3
g4
Ntp3619
Rp3620
(dp3621
g8
g3618
sg9
F0.0
sg10
V182.53.242.0
p3622
sg12
g13
sg14
g13
sg15
V23969
p3623
sg17
g13
sbsV203.113.115.116
p3624
g2
(g3
g4
Ntp3625
Rp3626
(dp3627
g8
g3624
sg9
F0.0
sg10
V203.113.115.0
p3628
sg12
g13
sg14
g13
sg15
V131293
p3629
sg17
g13
sbsV41.139.245.156
p3630
g2
(g3
g4
Ntp3631
Rp3632
(dp3633
g8
g3630
sg9
F0.0
sg10
V41.139.245.0
p3634
sg12
g13
sg14
g13
sg15
V37061
p3635
sg17
g13
sbsV79.235.165.125
p3636
g2
(g3
g4
Ntp3637
Rp3638
(dp3639
g8
g3636
sg9
F0.0
sg10
V79.235.165.0
p3640
sg12
g13
sg14
g13
sg15
V3320
p3641
sg17
g13
sbsV118.166.254.189
p3642
g2
(g3
g4
Ntp3643
Rp3644
(dp3645
g8
g3642
sg9
F0.0
sg10
V118.166.254.0
p3646
sg12
g13
sg14
g13
sg15
V3462
p3647
sg17
g13
sbsV68.179.69.49
p3648
g2
(g3
g4
Ntp3649
Rp3650
(dp3651
g8
g3648
sg9
F0.0
sg10
V68.179.69.0
p3652
sg12
g13
sg14
g13
sg15
V20161
p3653
sg17
g13
sbsV2.229.6.6
p3654
g2
(g3
g4
Ntp3655
Rp3656
(dp3657
g8
g3654
sg9
F0.0
sg10
V2.229.6.0
p3658
sg12
g13
sg14
g13
sg15
V12874
p3659
sg17
g13
sbsV178.208.141.183
p3660
g2
(g3
g4
Ntp3661
Rp3662
(dp3663
g8
g3660
sg9
F0.0
sg10
V178.208.141.0
p3664
sg12
g13
sg14
g13
sg15
V8732
p3665
sg17
g13
sbsV178.208.141.180
p3666
g2
(g3
g4
Ntp3667
Rp3668
(dp3669
g8
g3666
sg9
F0.0
sg10
V178.208.141.0
p3670
sg12
g13
sg14
g13
sg15
V8732
p3671
sg17
g13
sbsV202.175.98.138
p3672
g2
(g3
g4
Ntp3673
Rp3674
(dp3675
g8
g3672
sg9
F0.0
sg10
V202.175.98.0
p3676
sg12
g13
sg14
g13
sg15
V4609
p3677
sg17
g13
sbsV71.92.53.230
p3678
g2
(g3
g4
Ntp3679
Rp3680
(dp3681
g8
g3678
sg9
F0.0
sg10
V71.92.53.0
p3682
sg12
g13
sg14
g13
sg15
V20115
p3683
sg17
g13
sbsV5.135.195.226
p3684
g2
(g3
g4
Ntp3685
Rp3686
(dp3687
g8
g3684
sg9
F0.0
sg10
V5.135.195.0
p3688
sg12
g13
sg14
g13
sg15
V16276
p3689
sg17
g13
sbsV36.229.128.86
p3690
g2
(g3
g4
Ntp3691
Rp3692
(dp3693
g8
g3690
sg9
F0.0
sg10
V36.229.128.0
p3694
sg12
g13
sg14
g13
sg15
V3462
p3695
sg17
g13
sbsV112.120.110.75
p3696
g2
(g3
g4
Ntp3697
Rp3698
(dp3699
g8
g3696
sg9
F0.0
sg10
V112.120.110.0
p3700
sg12
g13
sg14
g13
sg15
V4760
p3701
sg17
g13
sbsV50.200.149.53
p3702
g2
(g3
g4
Ntp3703
Rp3704
(dp3705
g8
g3702
sg9
F0.0
sg10
V50.200.149.0
p3706
sg12
g13
sg14
g13
sg15
V7922
p3707
sg17
g13
sbsV82.68.126.227
p3708
g2
(g3
g4
Ntp3709
Rp3710
(dp3711
g8
g3708
sg9
F0.0
sg10
V82.68.126.0
p3712
sg12
g13
sg14
g13
sg15
V13037
p3713
sg17
g13
sbsV162.243.1.130
p3714
g2
(g3
g4
Ntp3715
Rp3716
(dp3717
g8
g3714
sg9
F0.0
sg10
V162.243.1.0
p3718
sg12
g13
sg14
g13
sg15
V62567
p3719
sg17
g13
sbsV189.241.178.107
p3720
g2
(g3
g4
Ntp3721
Rp3722
(dp3723
g8
g3720
sg9
F0.0
sg10
V189.241.178.0
p3724
sg12
g13
sg14
g13
sg15
V8151
p3725
sg17
g13
sbsV77.89.79.88
p3726
g2
(g3
g4
Ntp3727
Rp3728
(dp3729
g8
g3726
sg9
F0.0
sg10
V77.89.79.0
p3730
sg12
g13
sg14
g13
sg15
V31423
p3731
sg17
g13
sbsV201.83.22.108
p3732
g2
(g3
g4
Ntp3733
Rp3734
(dp3735
g8
g3732
sg9
F0.0
sg10
V201.83.22.0
p3736
sg12
g13
sg14
g13
sg15
V28573
p3737
sg17
g13
sbsV175.139.195.133
p3738
g2
(g3
g4
Ntp3739
Rp3740
(dp3741
g8
g3738
sg9
F0.0
sg10
V175.139.195.0
p3742
sg12
g13
sg14
g13
sg15
V4788
p3743
sg17
g13
sbsV162.254.167.244
p3744
g2
(g3
g4
Ntp3745
Rp3746
(dp3747
g8
g3744
sg9
F0.0
sg10
V162.254.167.0
p3748
sg12
g13
sg14
g13
sg15
V20013
p3749
sg17
g13
sbsV91.43.59.153
p3750
g2
(g3
g4
Ntp3751
Rp3752
(dp3753
g8
g3750
sg9
F0.0
sg10
V91.43.59.0
p3754
sg12
g13
sg14
g13
sg15
V3320
p3755
sg17
g13
sbsV195.154.134.16
p3756
g2
(g3
g4
Ntp3757
Rp3758
(dp3759
g8
g3756
sg9
F0.0
sg10
V195.154.134.0
p3760
sg12
g13
sg14
g13
sg15
V12876
p3761
sg17
g13
sbsV14.141.33.202
p3762
g2
(g3
g4
Ntp3763
Rp3764
(dp3765
g8
g3762
sg9
F0.0
sg10
V14.141.33.0
p3766
sg12
g13
sg14
g13
sg15
V4755
p3767
sg17
g13
sbsV203.117.49.102
p3768
g2
(g3
g4
Ntp3769
Rp3770
(dp3771
g8
g3768
sg9
F0.0
sg10
V203.117.49.0
p3772
sg12
g13
sg14
g13
sg15
V4657
p3773
sg17
g13
sbsV206.16.57.17
p3774
g2
(g3
g4
Ntp3775
Rp3776
(dp3777
g8
g3774
sg9
F0.0
sg10
V206.16.57.0
p3778
sg12
g13
sg14
g13
sg15
V17227
p3779
sg17
g13
sbsV5.2.156.103
p3780
g2
(g3
g4
Ntp3781
Rp3782
(dp3783
g8
g3780
sg9
F0.0
sg10
V5.2.156.0
p3784
sg12
g13
sg14
g13
sg15
V8708
p3785
sg17
g13
sbsV93.239.245.156
p3786
g2
(g3
g4
Ntp3787
Rp3788
(dp3789
g8
g3786
sg9
F0.0
sg10
V93.239.245.0
p3790
sg12
g13
sg14
g13
sg15
V3320
p3791
sg17
g13
sbsV223.165.66.54
p3792
g2
(g3
g4
Ntp3793
Rp3794
(dp3795
g8
g3792
sg9
F0.0
sg10
V223.165.66.0
p3796
sg12
g13
sg14
g13
sg15
V45179
p3797
sg17
g13
sbsV193.238.149.214
p3798
g2
(g3
g4
Ntp3799
Rp3800
(dp3801
g8
g3798
sg9
F0.0
sg10
V193.238.149.0
p3802
sg12
g13
sg14
g13
sg15
V35012
p3803
sg17
g13
sbsV87.139.139.212
p3804
g2
(g3
g4
Ntp3805
Rp3806
(dp3807
g8
g3804
sg9
F0.0
sg10
V87.139.139.0
p3808
sg12
g13
sg14
g13
sg15
V3320
p3809
sg17
g13
sbsV50.196.8.193
p3810
g2
(g3
g4
Ntp3811
Rp3812
(dp3813
g8
g3810
sg9
F0.0
sg10
V50.196.8.0
p3814
sg12
g13
sg14
g13
sg15
V7922
p3815
sg17
g13
sbsV202.170.126.181
p3816
g2
(g3
g4
Ntp3817
Rp3818
(dp3819
g8
g3816
sg9
F0.0
sg10
V202.170.126.0
p3820
sg12
g13
sg14
g13
sg15
V23884
p3821
sg17
g13
sbsV187.60.214.90
p3822
g2
(g3
g4
Ntp3823
Rp3824
(dp3825
g8
g3822
sg9
F0.0
sg10
V187.60.214.0
p3826
sg12
g13
sg14
g13
sg15
V28158
p3827
sg17
g13
sbsV67.43.1.242
p3828
g2
(g3
g4
Ntp3829
Rp3830
(dp3831
g8
g3828
sg9
F0.0
sg10
V67.43.1.0
p3832
sg12
g13
sg14
g13
sg15
V32244
p3833
sg17
g13
sbsV193.238.149.218
p3834
g2
(g3
g4
Ntp3835
Rp3836
(dp3837
g8
g3834
sg9
F0.0
sg10
V193.238.149.0
p3838
sg12
g13
sg14
g13
sg15
V35012
p3839
sg17
g13
sbsV52.88.246.5
p3840
g2
(g3
g4
Ntp3841
Rp3842
(dp3843
g8
g3840
sg9
F0.0
sg10
V52.88.246.0
p3844
sg12
g13
sg14
g13
sg15
V16509
p3845
sg17
g13
sbsV23.21.162.66
p3846
g2
(g3
g4
Ntp3847
Rp3848
(dp3849
g8
g3846
sg9
F0.0
sg10
V23.21.162.0
p3850
sg12
g13
sg14
g13
sg15
V14618
p3851
sg17
g13
sbsV90.190.254.222
p3852
g2
(g3
g4
Ntp3853
Rp3854
(dp3855
g8
g3852
sg9
F0.0
sg10
V90.190.254.0
p3856
sg12
g13
sg14
g13
sg15
V3249
p3857
sg17
g13
sbsV116.228.167.147
p3858
g2
(g3
g4
Ntp3859
Rp3860
(dp3861
g8
g3858
sg9
F0.0
sg10
V116.228.167.0
p3862
sg12
g13
sg14
g13
sg15
V4812
p3863
sg17
g13
sbsV89.135.52.5
p3864
g2
(g3
g4
Ntp3865
Rp3866
(dp3867
g8
g3864
sg9
F0.0
sg10
V89.135.52.0
p3868
sg12
g13
sg14
g13
sg15
V6830
p3869
sg17
g13
sbsV187.33.208.138
p3870
g2
(g3
g4
Ntp3871
Rp3872
(dp3873
g8
g3870
sg9
F0.0
sg10
V187.33.208.0
p3874
sg12
g13
sg14
g13
sg15
V53088
p3875
sg17
g13
sbsV184.168.147.170
p3876
g2
(g3
g4
Ntp3877
Rp3878
(dp3879
g8
g3876
sg9
F0.0
sg10
V184.168.147.0
p3880
sg12
g13
sg14
g13
sg15
V26496
p3881
sg17
g13
sbsV112.120.90.29
p3882
g2
(g3
g4
Ntp3883
Rp3884
(dp3885
g8
g3882
sg9
F0.0
sg10
V112.120.90.0
p3886
sg12
g13
sg14
g13
sg15
V4760
p3887
sg17
g13
sbsV217.92.197.98
p3888
g2
(g3
g4
Ntp3889
Rp3890
(dp3891
g8
g3888
sg9
F0.0
sg10
V217.92.197.0
p3892
sg12
g13
sg14
g13
sg15
V3320
p3893
sg17
g13
sbsV144.76.109.77
p3894
g2
(g3
g4
Ntp3895
Rp3896
(dp3897
g8
g3894
sg9
F0.0
sg10
V144.76.109.0
p3898
sg12
g13
sg14
g13
sg15
V24940
p3899
sg17
g13
sbsV220.246.64.122
p3900
g2
(g3
g4
Ntp3901
Rp3902
(dp3903
g8
g3900
sg9
F0.0
sg10
V220.246.64.0
p3904
sg12
g13
sg14
g13
sg15
V4760
p3905
sg17
g13
sbsV54.153.54.246
p3906
g2
(g3
g4
Ntp3907
Rp3908
(dp3909
g8
g3906
sg9
F0.0
sg10
V54.153.54.0
p3910
sg12
g13
sg14
g13
sg15
V16509
p3911
sg17
g13
sbsV191.252.64.75
p3912
g2
(g3
g4
Ntp3913
Rp3914
(dp3915
g8
g3912
sg9
F0.0
sg10
V191.252.64.0
p3916
sg12
g13
sg14
g13
sg15
V27715
p3917
sg17
g13
sbsV62.89.32.251
p3918
g2
(g3
g4
Ntp3919
Rp3920
(dp3921
g8
g3918
sg9
F0.0
sg10
V62.89.32.0
p3922
sg12
g13
sg14
g13
sg15
V60717
p3923
sg17
g13
sbsV60.250.240.117
p3924
g2
(g3
g4
Ntp3925
Rp3926
(dp3927
g8
g3924
sg9
F0.0
sg10
V60.250.240.0
p3928
sg12
g13
sg14
g13
sg15
V3462
p3929
sg17
g13
sbsV187.217.87.235
p3930
g2
(g3
g4
Ntp3931
Rp3932
(dp3933
g8
g3930
sg9
F0.0
sg10
V187.217.87.0
p3934
sg12
g13
sg14
g13
sg15
V8151
p3935
sg17
g13
sbsV196.203.248.178
p3936
g2
(g3
g4
Ntp3937
Rp3938
(dp3939
g8
g3936
sg9
F0.0
sg10
V196.203.248.0
p3940
sg12
g13
sg14
g13
sg15
V2609
p3941
sg17
g13
sbsV190.128.16.59
p3942
g2
(g3
g4
Ntp3943
Rp3944
(dp3945
g8
g3942
sg9
F0.0
sg10
V190.128.16.0
p3946
sg12
g13
sg14
g13
sg15
V13489
p3947
sg17
g13
sbsV221.4.38.51
p3948
g2
(g3
g4
Ntp3949
Rp3950
(dp3951
g8
g3948
sg9
F0.0
sg10
V221.4.38.0
p3952
sg12
g13
sg14
g13
sg15
V17622
p3953
sg17
g13
sbsV123.56.129.117
p3954
g2
(g3
g4
Ntp3955
Rp3956
(dp3957
g8
g3954
sg9
F0.0
sg10
V123.56.129.0
p3958
sg12
g13
sg14
g13
sg15
V37963
p3959
sg17
g13
sbsV2.234.230.253
p3960
g2
(g3
g4
Ntp3961
Rp3962
(dp3963
g8
g3960
sg9
F0.0
sg10
V2.234.230.0
p3964
sg12
g13
sg14
g13
sg15
V12874
p3965
sg17
g13
sbsV213.123.192.115
p3966
g2
(g3
g4
Ntp3967
Rp3968
(dp3969
g8
g3966
sg9
F0.0
sg10
V213.123.192.0
p3970
sg12
g13
sg14
g13
sg15
V2856
p3971
sg17
g13
sbsV166.142.24.231
p3972
g2
(g3
g4
Ntp3973
Rp3974
(dp3975
g8
g3972
sg9
F0.0
sg10
V166.142.24.0
p3976
sg12
g13
sg14
g13
sg15
V22394
p3977
sg17
g13
sbsV82.77.200.80
p3978
g2
(g3
g4
Ntp3979
Rp3980
(dp3981
g8
g3978
sg9
F0.0
sg10
V82.77.200.0
p3982
sg12
g13
sg14
g13
sg15
V8708
p3983
sg17
g13
sbsV104.29.7.30
p3984
g2
(g3
g4
Ntp3985
Rp3986
(dp3987
g8
g3984
sg9
F0.0
sg10
V104.29.7.0
p3988
sg12
g13
sg14
g13
sg15
V13335
p3989
sg17
g13
sbsV75.145.166.5
p3990
g2
(g3
g4
Ntp3991
Rp3992
(dp3993
g8
g3990
sg9
F0.0
sg10
V75.145.166.0
p3994
sg12
g13
sg14
g13
sg15
V7922
p3995
sg17
g13
sbsV75.145.166.4
p3996
g2
(g3
g4
Ntp3997
Rp3998
(dp3999
g8
g3996
sg9
F0.0
sg10
V75.145.166.0
p4000
sg12
g13
sg14
g13
sg15
V7922
p4001
sg17
g13
sbsV220.246.79.174
p4002
g2
(g3
g4
Ntp4003
Rp4004
(dp4005
g8
g4002
sg9
F0.0
sg10
V220.246.79.0
p4006
sg12
g13
sg14
g13
sg15
V4760
p4007
sg17
g13
sbsV181.166.87.250
p4008
g2
(g3
g4
Ntp4009
Rp4010
(dp4011
g8
g4008
sg9
F0.0
sg10
V181.166.87.0
p4012
sg12
g13
sg14
g13
sg15
V10318
p4013
sg17
g13
sbsV120.76.154.191
p4014
g2
(g3
g4
Ntp4015
Rp4016
(dp4017
g8
g4014
sg9
F0.0
sg10
V120.76.154.0
p4018
sg12
g13
sg14
g13
sg15
V37963
p4019
sg17
g13
sbsV182.92.212.186
p4020
g2
(g3
g4
Ntp4021
Rp4022
(dp4023
g8
g4020
sg9
F0.0
sg10
V182.92.212.0
p4024
sg12
g13
sg14
g13
sg15
V37963
p4025
sg17
g13
sbsV200.165.106.254
p4026
g2
(g3
g4
Ntp4027
Rp4028
(dp4029
g8
g4026
sg9
F0.0
sg10
V200.165.106.0
p4030
sg12
g13
sg14
g13
sg15
V7738
p4031
sg17
g13
sbsV80.147.214.14
p4032
g2
(g3
g4
Ntp4033
Rp4034
(dp4035
g8
g4032
sg9
F0.0
sg10
V80.147.214.0
p4036
sg12
g13
sg14
g13
sg15
V3320
p4037
sg17
g13
sbsV193.169.5.14
p4038
g2
(g3
g4
Ntp4039
Rp4040
(dp4041
g8
g4038
sg9
F0.0
sg10
V193.169.5.0
p4042
sg12
g13
sg14
g13
sg15
V49261
p4043
sg17
g13
sbsV124.43.85.47
p4044
g2
(g3
g4
Ntp4045
Rp4046
(dp4047
g8
g4044
sg9
F0.0
sg10
V124.43.85.0
p4048
sg12
g13
sg14
g13
sg15
V9329
p4049
sg17
g13
sbsV134.213.219.94
p4050
g2
(g3
g4
Ntp4051
Rp4052
(dp4053
g8
g4050
sg9
F0.0
sg10
V134.213.219.0
p4054
sg12
g13
sg14
g13
sg15
V15395
p4055
sg17
g13
sbsV87.58.249.138
p4056
g2
(g3
g4
Ntp4057
Rp4058
(dp4059
g8
g4056
sg9
F0.0
sg10
V87.58.249.0
p4060
sg12
g13
sg14
g13
sg15
V3292
p4061
sg17
g13
sbsV195.37.211.34
p4062
g2
(g3
g4
Ntp4063
Rp4064
(dp4065
g8
g4062
sg9
F0.0
sg10
V195.37.211.0
p4066
sg12
g13
sg14
g13
sg15
V680
p4067
sg17
g13
sbsV181.120.253.174
p4068
g2
(g3
g4
Ntp4069
Rp4070
(dp4071
g8
g4068
sg9
F0.0
sg10
V181.120.253.0
p4072
sg12
g13
sg14
g13
sg15
V23201
p4073
sg17
g13
sbsV218.103.121.61
p4074
g2
(g3
g4
Ntp4075
Rp4076
(dp4077
g8
g4074
sg9
F0.0
sg10
V218.103.121.0
p4078
sg12
g13
sg14
g13
sg15
V4760
p4079
sg17
g13
sbsV138.219.94.78
p4080
g2
(g3
g4
Ntp4081
Rp4082
(dp4083
g8
g4080
sg9
F0.0
sg10
V138.219.94.0
p4084
sg12
g13
sg14
g13
sg15
V263942
p4085
sg17
g13
sbsV202.43.74.149
p4086
g2
(g3
g4
Ntp4087
Rp4088
(dp4089
g8
g4086
sg9
F0.0
sg10
V202.43.74.0
p4090
sg12
g13
sg14
g13
sg15
V45298
p4091
sg17
g13
sbsV93.62.73.141
p4092
g2
(g3
g4
Ntp4093
Rp4094
(dp4095
g8
g4092
sg9
F0.0
sg10
V93.62.73.0
p4096
sg12
g13
sg14
g13
sg15
V12874
p4097
sg17
g13
sbsV52.91.36.185
p4098
g2
(g3
g4
Ntp4099
Rp4100
(dp4101
g8
g4098
sg9
F0.0
sg10
V52.91.36.0
p4102
sg12
g13
sg14
g13
sg15
V14618
p4103
sg17
g13
sbsV104.196.211.133
p4104
g2
(g3
g4
Ntp4105
Rp4106
(dp4107
g8
g4104
sg9
F0.0
sg10
V104.196.211.0
p4108
sg12
g13
sg14
g13
sg15
V15169
p4109
sg17
g13
sbsV58.137.154.119
p4110
g2
(g3
g4
Ntp4111
Rp4112
(dp4113
g8
g4110
sg9
F0.0
sg10
V58.137.154.0
p4114
sg12
g13
sg14
g13
sg15
V4750
p4115
sg17
g13
sbsV220.246.44.27
p4116
g2
(g3
g4
Ntp4117
Rp4118
(dp4119
g8
g4116
sg9
F0.0
sg10
V220.246.44.0
p4120
sg12
g13
sg14
g13
sg15
V4760
p4121
sg17
g13
sbsV92.74.122.209
p4122
g2
(g3
g4
Ntp4123
Rp4124
(dp4125
g8
g4122
sg9
F0.0
sg10
V92.74.122.0
p4126
sg12
g13
sg14
g13
sg15
V3209
p4127
sg17
g13
sbsV5.179.74.44
p4128
g2
(g3
g4
Ntp4129
Rp4130
(dp4131
g8
g4128
sg9
F0.0
sg10
V5.179.74.0
p4132
sg12
g13
sg14
g13
sg15
V59597
p4133
sg17
g13
sbsV52.73.117.168
p4134
g2
(g3
g4
Ntp4135
Rp4136
(dp4137
g8
g4134
sg9
F0.0
sg10
V52.73.117.0
p4138
sg12
g13
sg14
g13
sg15
V14618
p4139
sg17
g13
sbsV190.80.165.72
p4140
g2
(g3
g4
Ntp4141
Rp4142
(dp4143
g8
g4140
sg9
F0.0
sg10
V190.80.165.0
p4144
sg12
g13
sg14
g13
sg15
V6400
p4145
sg17
g13
sbsV71.174.92.130
p4146
g2
(g3
g4
Ntp4147
Rp4148
(dp4149
g8
g4146
sg9
F0.0
sg10
V71.174.92.0
p4150
sg12
g13
sg14
g13
sg15
V701
p4151
sg17
g13
sbsV88.132.200.124
p4152
g2
(g3
g4
Ntp4153
Rp4154
(dp4155
g8
g4152
sg9
F0.0
sg10
V88.132.200.0
p4156
sg12
g13
sg14
g13
sg15
V35311
p4157
sg17
g13
sbsV54.193.112.30
p4158
g2
(g3
g4
Ntp4159
Rp4160
(dp4161
g8
g4158
sg9
F0.0
sg10
V54.193.112.0
p4162
sg12
g13
sg14
g13
sg15
V16509
p4163
sg17
g13
sbsV119.81.118.39
p4164
g2
(g3
g4
Ntp4165
Rp4166
(dp4167
g8
g4164
sg9
F0.0
sg10
V119.81.118.0
p4168
sg12
g13
sg14
g13
sg15
V36351
p4169
sg17
g13
sbsV62.138.247.226
p4170
g2
(g3
g4
Ntp4171
Rp4172
(dp4173
g8
g4170
sg9
F0.0
sg10
V62.138.247.0
p4174
sg12
g13
sg14
g13
sg15
V20773
p4175
sg17
g13
sbsV203.198.151.228
p4176
g2
(g3
g4
Ntp4177
Rp4178
(dp4179
g8
g4176
sg9
F0.0
sg10
V203.198.151.0
p4180
sg12
g13
sg14
g13
sg15
V4760
p4181
sg17
g13
sbsV61.185.48.182
p4182
g2
(g3
g4
Ntp4183
Rp4184
(dp4185
g8
g4182
sg9
F0.0
sg10
V61.185.48.0
p4186
sg12
g13
sg14
g13
sg15
V4134
p4187
sg17
g13
sbsV45.56.90.209
p4188
g2
(g3
g4
Ntp4189
Rp4190
(dp4191
g8
g4188
sg9
F0.0
sg10
V45.56.90.0
p4192
sg12
g13
sg14
g13
sg15
V63949
p4193
sg17
g13
sbsV103.228.254.142
p4194
g2
(g3
g4
Ntp4195
Rp4196
(dp4197
g8
g4194
sg9
F0.0
sg10
V103.228.254.0
p4198
sg12
g13
sg14
g13
sg15
V24337
p4199
sg17
g13
sbsV187.62.208.110
p4200
g2
(g3
g4
Ntp4201
Rp4202
(dp4203
g8
g4200
sg9
F0.0
sg10
V187.62.208.0
p4204
sg12
g13
sg14
g13
sg15
V28165
p4205
sg17
g13
sbsV219.76.188.165
p4206
g2
(g3
g4
Ntp4207
Rp4208
(dp4209
g8
g4206
sg9
F0.0
sg10
V219.76.188.0
p4210
sg12
g13
sg14
g13
sg15
V4760
p4211
sg17
g13
sbsV54.186.214.117
p4212
g2
(g3
g4
Ntp4213
Rp4214
(dp4215
g8
g4212
sg9
F0.0
sg10
V54.186.214.0
p4216
sg12
g13
sg14
g13
sg15
V16509
p4217
sg17
g13
sbsV203.198.151.223
p4218
g2
(g3
g4
Ntp4219
Rp4220
(dp4221
g8
g4218
sg9
F0.0
sg10
V203.198.151.0
p4222
sg12
g13
sg14
g13
sg15
V4760
p4223
sg17
g13
sbsV69.64.49.142
p4224
g2
(g3
g4
Ntp4225
Rp4226
(dp4227
g8
g4224
sg9
F0.0
sg10
V69.64.49.0
p4228
sg12
g13
sg14
g13
sg15
V30083
p4229
sg17
g13
sbsV58.152.12.46
p4230
g2
(g3
g4
Ntp4231
Rp4232
(dp4233
g8
g4230
sg9
F0.0
sg10
V58.152.12.0
p4234
sg12
g13
sg14
g13
sg15
V4760
p4235
sg17
g13
sbsV89.251.44.143
p4236
g2
(g3
g4
Ntp4237
Rp4238
(dp4239
g8
g4236
sg9
F0.0
sg10
V89.251.44.0
p4240
sg12
g13
sg14
g13
sg15
V41627
p4241
sg17
g13
sbsV97.79.199.22
p4242
g2
(g3
g4
Ntp4243
Rp4244
(dp4245
g8
g4242
sg9
F0.0
sg10
V97.79.199.0
p4246
sg12
g13
sg14
g13
sg15
V11427
p4247
sg17
g13
sbsV52.173.188.201
p4248
g2
(g3
g4
Ntp4249
Rp4250
(dp4251
g8
g4248
sg9
F0.0
sg10
V52.173.188.0
p4252
sg12
g13
sg14
g13
sg15
V8075
p4253
sg17
g13
sbsV223.197.242.204
p4254
g2
(g3
g4
Ntp4255
Rp4256
(dp4257
g8
g4254
sg9
F0.0
sg10
V223.197.242.0
p4258
sg12
g13
sg14
g13
sg15
V4760
p4259
sg17
g13
sbsV176.115.95.77
p4260
g2
(g3
g4
Ntp4261
Rp4262
(dp4263
g8
g4260
sg9
F0.0
sg10
V176.115.95.0
p4264
sg12
g13
sg14
g13
sg15
V196797
p4265
sg17
g13
sbsV89.213.18.121
p4266
g2
(g3
g4
Ntp4267
Rp4268
(dp4269
g8
g4266
sg9
F0.0
sg10
V89.213.18.0
p4270
sg12
g13
sg14
g13
sg15
V31655
p4271
sg17
g13
sbsV79.193.249.22
p4272
g2
(g3
g4
Ntp4273
Rp4274
(dp4275
g8
g4272
sg9
F0.0
sg10
V79.193.249.0
p4276
sg12
g13
sg14
g13
sg15
V3320
p4277
sg17
g13
sbsV212.59.244.251
p4278
g2
(g3
g4
Ntp4279
Rp4280
(dp4281
g8
g4278
sg9
F0.0
sg10
V212.59.244.0
p4282
sg12
g13
sg14
g13
sg15
V39869
p4283
sg17
g13
sbsV54.233.142.202
p4284
g2
(g3
g4
Ntp4285
Rp4286
(dp4287
g8
g4284
sg9
F0.0
sg10
V54.233.142.0
p4288
sg12
g13
sg14
g13
sg15
V16509
p4289
sg17
g13
sbsV196.15.208.199
p4290
g2
(g3
g4
Ntp4291
Rp4292
(dp4293
g8
g4290
sg9
F0.0
sg10
V196.15.208.0
p4294
sg12
g13
sg14
g13
sg15
V5713
p4295
sg17
g13
sbsV50.204.130.205
p4296
g2
(g3
g4
Ntp4297
Rp4298
(dp4299
g8
g4296
sg9
F0.0
sg10
V50.204.130.0
p4300
sg12
g13
sg14
g13
sg15
V7922
p4301
sg17
g13
sbsV84.244.91.3
p4302
g2
(g3
g4
Ntp4303
Rp4304
(dp4305
g8
g4302
sg9
F0.0
sg10
V84.244.91.0
p4306
sg12
g13
sg14
g13
sg15
V25248
p4307
sg17
g13
sbsV116.50.244.10
p4308
g2
(g3
g4
Ntp4309
Rp4310
(dp4311
g8
g4308
sg9
F0.0
sg10
V116.50.244.0
p4312
sg12
g13
sg14
g13
sg15
V9658
p4313
sg17
g13
sbsV91.59.90.88
p4314
g2
(g3
g4
Ntp4315
Rp4316
(dp4317
g8
g4314
sg9
F0.0
sg10
V91.59.90.0
p4318
sg12
g13
sg14
g13
sg15
V3320
p4319
sg17
g13
sbsV213.211.47.138
p4320
g2
(g3
g4
Ntp4321
Rp4322
(dp4323
g8
g4320
sg9
F0.0
sg10
V213.211.47.0
p4324
sg12
g13
sg14
g13
sg15
V12570
p4325
sg17
g13
sbsV202.77.50.130
p4326
g2
(g3
g4
Ntp4327
Rp4328
(dp4329
g8
g4326
sg9
F0.0
sg10
V202.77.50.0
p4330
sg12
g13
sg14
g13
sg15
V10103
p4331
sg17
g13
sbsV84.140.115.55
p4332
g2
(g3
g4
Ntp4333
Rp4334
(dp4335
g8
g4332
sg9
F0.0
sg10
V84.140.115.0
p4336
sg12
g13
sg14
g13
sg15
V3320
p4337
sg17
g13
sbsV84.238.5.42
p4338
g2
(g3
g4
Ntp4339
Rp4340
(dp4341
g8
g4338
sg9
F0.0
sg10
V84.238.5.0
p4342
sg12
g13
sg14
g13
sg15
V33796
p4343
sg17
g13
sbsV187.75.163.32
p4344
g2
(g3
g4
Ntp4345
Rp4346
(dp4347
g8
g4344
sg9
F0.0
sg10
V187.75.163.0
p4348
sg12
g13
sg14
g13
sg15
V27699
p4349
sg17
g13
sbsV85.25.119.138
p4350
g2
(g3
g4
Ntp4351
Rp4352
(dp4353
g8
g4350
sg9
F0.0
sg10
V85.25.119.0
p4354
sg12
g13
sg14
g13
sg15
V8972
p4355
sg17
g13
sbsV212.154.154.214
p4356
g2
(g3
g4
Ntp4357
Rp4358
(dp4359
g8
g4356
sg9
F0.0
sg10
V212.154.154.0
p4360
sg12
g13
sg14
g13
sg15
V9198
p4361
sg17
g13
sbsV54.93.39.203
p4362
g2
(g3
g4
Ntp4363
Rp4364
(dp4365
g8
g4362
sg9
F0.0
sg10
V54.93.39.0
p4366
sg12
g13
sg14
g13
sg15
V16509
p4367
sg17
g13
sbsV121.123.150.51
p4368
g2
(g3
g4
Ntp4369
Rp4370
(dp4371
g8
g4368
sg9
F0.0
sg10
V121.123.150.0
p4372
sg12
g13
sg14
g13
sg15
V9534
p4373
sg17
g13
sbsV201.9.12.14
p4374
g2
(g3
g4
Ntp4375
Rp4376
(dp4377
g8
g4374
sg9
F0.0
sg10
V201.9.12.0
p4378
sg12
g13
sg14
g13
sg15
V7738
p4379
sg17
g13
sbsV74.124.164.92
p4380
g2
(g3
g4
Ntp4381
Rp4382
(dp4383
g8
g4380
sg9
F0.0
sg10
V74.124.164.0
p4384
sg12
g13
sg14
g13
sg15
V22709
p4385
sg17
g13
sbsV124.82.216.154
p4386
g2
(g3
g4
Ntp4387
Rp4388
(dp4389
g8
g4386
sg9
F0.0
sg10
V124.82.216.0
p4390
sg12
g13
sg14
g13
sg15
V4788
p4391
sg17
g13
sbsV221.186.135.77
p4392
g2
(g3
g4
Ntp4393
Rp4394
(dp4395
g8
g4392
sg9
F0.0
sg10
V221.186.135.0
p4396
sg12
g13
sg14
g13
sg15
V4713
p4397
sg17
g13
sbsV210.61.49.241
p4398
g2
(g3
g4
Ntp4399
Rp4400
(dp4401
g8
g4398
sg9
F0.0
sg10
V210.61.49.0
p4402
sg12
g13
sg14
g13
sg15
V3462
p4403
sg17
g13
sbsV74.124.164.95
p4404
g2
(g3
g4
Ntp4405
Rp4406
(dp4407
g8
g4404
sg9
F0.0
sg10
V74.124.164.0
p4408
sg12
g13
sg14
g13
sg15
V22709
p4409
sg17
g13
sbsV213.32.14.57
p4410
g2
(g3
g4
Ntp4411
Rp4412
(dp4413
g8
g4410
sg9
F0.0
sg10
V213.32.14.0
p4414
sg12
g13
sg14
g13
sg15
V16276
p4415
sg17
g13
sbsV69.164.192.31
p4416
g2
(g3
g4
Ntp4417
Rp4418
(dp4419
g8
g4416
sg9
F0.0
sg10
V69.164.192.0
p4420
sg12
g13
sg14
g13
sg15
V63949
p4421
sg17
g13
sbsV177.250.29.71
p4422
g2
(g3
g4
Ntp4423
Rp4424
(dp4425
g8
g4422
sg9
F0.0
sg10
V177.250.29.0
p4426
sg12
g13
sg14
g13
sg15
V27866
p4427
sg17
g13
sbsV82.114.69.218
p4428
g2
(g3
g4
Ntp4429
Rp4430
(dp4431
g8
g4428
sg9
F0.0
sg10
V82.114.69.0
p4432
sg12
g13
sg14
g13
sg15
V29170
p4433
sg17
g13
sbsV5.154.56.189
p4434
g2
(g3
g4
Ntp4435
Rp4436
(dp4437
g8
g4434
sg9
F0.0
sg10
V5.154.56.0
p4438
sg12
g13
sg14
g13
sg15
V48427
p4439
sg17
g13
sbsV50.28.48.92
p4440
g2
(g3
g4
Ntp4441
Rp4442
(dp4443
g8
g4440
sg9
F0.0
sg10
V50.28.48.0
p4444
sg12
g13
sg14
g13
sg15
V32244
p4445
sg17
g13
sbsV83.110.13.135
p4446
g2
(g3
g4
Ntp4447
Rp4448
(dp4449
g8
g4446
sg9
F0.0
sg10
V83.110.13.0
p4450
sg12
g13
sg14
g13
sg15
V5384
p4451
sg17
g13
sbsV82.69.8.177
p4452
g2
(g3
g4
Ntp4453
Rp4454
(dp4455
g8
g4452
sg9
F0.0
sg10
V82.69.8.0
p4456
sg12
g13
sg14
g13
sg15
V13037
p4457
sg17
g13
sbsV41.33.16.59
p4458
g2
(g3
g4
Ntp4459
Rp4460
(dp4461
g8
g4458
sg9
F0.0
sg10
V41.33.16.0
p4462
sg12
g13
sg14
g13
sg15
V8452
p4463
sg17
g13
sbsV220.246.112.59
p4464
g2
(g3
g4
Ntp4465
Rp4466
(dp4467
g8
g4464
sg9
F0.0
sg10
V220.246.112.0
p4468
sg12
g13
sg14
g13
sg15
V4760
p4469
sg17
g13
sbsV212.175.88.247
p4470
g2
(g3
g4
Ntp4471
Rp4472
(dp4473
g8
g4470
sg9
F0.0
sg10
V212.175.88.0
p4474
sg12
g13
sg14
g13
sg15
V9121
p4475
sg17
g13
sbsV206.190.205.26
p4476
g2
(g3
g4
Ntp4477
Rp4478
(dp4479
g8
g4476
sg9
F0.0
sg10
V206.190.205.0
p4480
sg12
g13
sg14
g13
sg15
V395129
p4481
sg17
g13
sbsV42.200.227.61
p4482
g2
(g3
g4
Ntp4483
Rp4484
(dp4485
g8
g4482
sg9
F0.0
sg10
V42.200.227.0
p4486
sg12
g13
sg14
g13
sg15
V4760
p4487
sg17
g13
sbsV212.175.88.242
p4488
g2
(g3
g4
Ntp4489
Rp4490
(dp4491
g8
g4488
sg9
F0.0
sg10
V212.175.88.0
p4492
sg12
g13
sg14
g13
sg15
V9121
p4493
sg17
g13
sbsV62.28.33.122
p4494
g2
(g3
g4
Ntp4495
Rp4496
(dp4497
g8
g4494
sg9
F0.0
sg10
V62.28.33.0
p4498
sg12
g13
sg14
g13
sg15
V15525
p4499
sg17
g13
sbsV103.6.205.164
p4500
g2
(g3
g4
Ntp4501
Rp4502
(dp4503
g8
g4500
sg9
F0.0
sg10
V103.6.205.0
p4504
sg12
g13
sg14
g13
sg15
V58503
p4505
sg17
g13
sbsV220.246.46.64
p4506
g2
(g3
g4
Ntp4507
Rp4508
(dp4509
g8
g4506
sg9
F0.0
sg10
V220.246.46.0
p4510
sg12
g13
sg14
g13
sg15
V4760
p4511
sg17
g13
sbsV42.200.204.1
p4512
g2
(g3
g4
Ntp4513
Rp4514
(dp4515
g8
g4512
sg9
F0.0
sg10
V42.200.204.0
p4516
sg12
g13
sg14
g13
sg15
V4760
p4517
sg17
g13
sbsV69.127.113.50
p4518
g2
(g3
g4
Ntp4519
Rp4520
(dp4521
g8
g4518
sg9
F0.0
sg10
V69.127.113.0
p4522
sg12
g13
sg14
g13
sg15
V6128
p4523
sg17
g13
sbsV88.198.219.19
p4524
g2
(g3
g4
Ntp4525
Rp4526
(dp4527
g8
g4524
sg9
F0.0
sg10
V88.198.219.0
p4528
sg12
g13
sg14
g13
sg15
V24940
p4529
sg17
g13
sbsV98.23.186.163
p4530
g2
(g3
g4
Ntp4531
Rp4532
(dp4533
g8
g4530
sg9
F0.0
sg10
V98.23.186.0
p4534
sg12
g13
sg14
g13
sg15
V7029
p4535
sg17
g13
sbsV98.23.186.162
p4536
g2
(g3
g4
Ntp4537
Rp4538
(dp4539
g8
g4536
sg9
F0.0
sg10
V98.23.186.0
p4540
sg12
g13
sg14
g13
sg15
V7029
p4541
sg17
g13
sbsV65.38.211.146
p4542
g2
(g3
g4
Ntp4543
Rp4544
(dp4545
g8
g4542
sg9
F0.0
sg10
V65.38.211.0
p4546
sg12
g13
sg14
g13
sg15
V11992
p4547
sg17
g13
sbsV91.191.151.99
p4548
g2
(g3
g4
Ntp4549
Rp4550
(dp4551
g8
g4548
sg9
F0.0
sg10
V91.191.151.0
p4552
sg12
g13
sg14
g13
sg15
V35393
p4553
sg17
g13
sbsV98.23.186.167
p4554
g2
(g3
g4
Ntp4555
Rp4556
(dp4557
g8
g4554
sg9
F0.0
sg10
V98.23.186.0
p4558
sg12
g13
sg14
g13
sg15
V7029
p4559
sg17
g13
sbsV165.255.184.141
p4560
g2
(g3
g4
Ntp4561
Rp4562
(dp4563
g8
g4560
sg9
F0.0
sg10
V165.255.184.0
p4564
sg12
g13
sg14
g13
sg15
V37611
p4565
sg17
g13
sbsV98.23.186.165
p4566
g2
(g3
g4
Ntp4567
Rp4568
(dp4569
g8
g4566
sg9
F0.0
sg10
V98.23.186.0
p4570
sg12
g13
sg14
g13
sg15
V7029
p4571
sg17
g13
sbsV98.23.186.164
p4572
g2
(g3
g4
Ntp4573
Rp4574
(dp4575
g8
g4572
sg9
F0.0
sg10
V98.23.186.0
p4576
sg12
g13
sg14
g13
sg15
V7029
p4577
sg17
g13
sbsV87.138.112.113
p4578
g2
(g3
g4
Ntp4579
Rp4580
(dp4581
g8
g4578
sg9
F0.0
sg10
V87.138.112.0
p4582
sg12
g13
sg14
g13
sg15
V3320
p4583
sg17
g13
sbsV98.23.186.168
p4584
g2
(g3
g4
Ntp4585
Rp4586
(dp4587
g8
g4584
sg9
F0.0
sg10
V98.23.186.0
p4588
sg12
g13
sg14
g13
sg15
V7029
p4589
sg17
g13
sbsV138.201.254.160
p4590
g2
(g3
g4
Ntp4591
Rp4592
(dp4593
g8
g4590
sg9
F0.0
sg10
V138.201.254.0
p4594
sg12
g13
sg14
g13
sg15
V24940
p4595
sg17
g13
sbsV116.48.155.164
p4596
g2
(g3
g4
Ntp4597
Rp4598
(dp4599
g8
g4596
sg9
F0.0
sg10
V116.48.155.0
p4600
sg12
g13
sg14
g13
sg15
V4760
p4601
sg17
g13
sbsV67.205.112.138
p4602
g2
(g3
g4
Ntp4603
Rp4604
(dp4605
g8
g4602
sg9
F0.0
sg10
V67.205.112.0
p4606
sg12
g13
sg14
g13
sg15
V32613
p4607
sg17
g13
sbsV210.66.142.117
p4608
g2
(g3
g4
Ntp4609
Rp4610
(dp4611
g8
g4608
sg9
F0.0
sg10
V210.66.142.0
p4612
sg12
g13
sg14
g13
sg15
V4780
p4613
sg17
g13
sbsV96.235.22.43
p4614
g2
(g3
g4
Ntp4615
Rp4616
(dp4617
g8
g4614
sg9
F0.0
sg10
V96.235.22.0
p4618
sg12
g13
sg14
g13
sg15
V701
p4619
sg17
g13
sbsV177.43.57.60
p4620
g2
(g3
g4
Ntp4621
Rp4622
(dp4623
g8
g4620
sg9
F0.0
sg10
V177.43.57.0
p4624
sg12
g13
sg14
g13
sg15
V18881
p4625
sg17
g13
sbsV92.66.6.126
p4626
g2
(g3
g4
Ntp4627
Rp4628
(dp4629
g8
g4626
sg9
F0.0
sg10
V92.66.6.0
p4630
sg12
g13
sg14
g13
sg15
V1136
p4631
sg17
g13
sbsV88.248.192.152
p4632
g2
(g3
g4
Ntp4633
Rp4634
(dp4635
g8
g4632
sg9
F0.0
sg10
V88.248.192.0
p4636
sg12
g13
sg14
g13
sg15
V9121
p4637
sg17
g13
sbsV98.174.175.34
p4638
g2
(g3
g4
Ntp4639
Rp4640
(dp4641
g8
g4638
sg9
F0.0
sg10
V98.174.175.0
p4642
sg12
g13
sg14
g13
sg15
V22773
p4643
sg17
g13
sbsV82.165.46.37
p4644
g2
(g3
g4
Ntp4645
Rp4646
(dp4647
g8
g4644
sg9
F0.0
sg10
V82.165.46.0
p4648
sg12
g13
sg14
g13
sg15
V8560
p4649
sg17
g13
sbsV179.111.213.6
p4650
g2
(g3
g4
Ntp4651
Rp4652
(dp4653
g8
g4650
sg9
F0.0
sg10
V179.111.213.0
p4654
sg12
g13
sg14
g13
sg15
V27699
p4655
sg17
g13
sbsV50.202.91.36
p4656
g2
(g3
g4
Ntp4657
Rp4658
(dp4659
g8
g4656
sg9
F0.0
sg10
V50.202.91.0
p4660
sg12
g13
sg14
g13
sg15
V7922
p4661
sg17
g13
sbsV121.41.41.45
p4662
g2
(g3
g4
Ntp4663
Rp4664
(dp4665
g8
g4662
sg9
F0.0
sg10
V121.41.41.0
p4666
sg12
g13
sg14
g13
sg15
V37963
p4667
sg17
g13
sbsV67.14.253.154
p4668
g2
(g3
g4
Ntp4669
Rp4670
(dp4671
g8
g4668
sg9
F0.0
sg10
V67.14.253.0
p4672
sg12
g13
sg14
g13
sg15
V23089
p4673
sg17
g13
sbsV206.16.57.55
p4674
g2
(g3
g4
Ntp4675
Rp4676
(dp4677
g8
g4674
sg9
F0.0
sg10
V206.16.57.0
p4678
sg12
g13
sg14
g13
sg15
V17227
p4679
sg17
g13
sbsV217.125.83.35
p4680
g2
(g3
g4
Ntp4681
Rp4682
(dp4683
g8
g4680
sg9
F0.0
sg10
V217.125.83.0
p4684
sg12
g13
sg14
g13
sg15
V3352
p4685
sg17
g13
sbsV192.5.186.52
p4686
g2
(g3
g4
Ntp4687
Rp4688
(dp4689
g8
g4686
sg9
F0.0
sg10
V192.5.186.0
p4690
sg12
g13
sg14
g13
sg15
V683
p4691
sg17
g13
sbsV173.231.129.216
p4692
g2
(g3
g4
Ntp4693
Rp4694
(dp4695
g8
g4692
sg9
F0.0
sg10
V173.231.129.0
p4696
sg12
g13
sg14
g13
sg15
V29791
p4697
sg17
g13
sbsV173.231.129.215
p4698
g2
(g3
g4
Ntp4699
Rp4700
(dp4701
g8
g4698
sg9
F0.0
sg10
V173.231.129.0
p4702
sg12
g13
sg14
g13
sg15
V29791
p4703
sg17
g13
sbsV188.231.1.180
p4704
g2
(g3
g4
Ntp4705
Rp4706
(dp4707
g8
g4704
sg9
F0.0
sg10
V188.231.1.0
p4708
sg12
g13
sg14
g13
sg15
V24627
p4709
sg17
g13
sbsV173.231.129.212
p4710
g2
(g3
g4
Ntp4711
Rp4712
(dp4713
g8
g4710
sg9
F0.0
sg10
V173.231.129.0
p4714
sg12
g13
sg14
g13
sg15
V29791
p4715
sg17
g13
sbsV173.231.129.210
p4716
g2
(g3
g4
Ntp4717
Rp4718
(dp4719
g8
g4716
sg9
F0.0
sg10
V173.231.129.0
p4720
sg12
g13
sg14
g13
sg15
V29791
p4721
sg17
g13
sbsV95.168.200.217
p4722
g2
(g3
g4
Ntp4723
Rp4724
(dp4725
g8
g4722
sg9
F0.0
sg10
V95.168.200.0
p4726
sg12
g13
sg14
g13
sg15
V39392
p4727
sg17
g13
sbsV213.3.17.36
p4728
g2
(g3
g4
Ntp4729
Rp4730
(dp4731
g8
g4728
sg9
F0.0
sg10
V213.3.17.0
p4732
sg12
g13
sg14
g13
sg15
V3303
p4733
sg17
g13
sbsV108.160.32.15
p4734
g2
(g3
g4
Ntp4735
Rp4736
(dp4737
g8
g4734
sg9
F0.0
sg10
V108.160.32.0
p4738
sg12
g13
sg14
g13
sg15
V209
p4739
sg17
g13
sbsV128.199.173.151
p4740
g2
(g3
g4
Ntp4741
Rp4742
(dp4743
g8
g4740
sg9
F0.0
sg10
V128.199.173.0
p4744
sg12
g13
sg14
g13
sg15
V133165
p4745
sg17
g13
sbsV27.251.120.242
p4746
g2
(g3
g4
Ntp4747
Rp4748
(dp4749
g8
g4746
sg9
F0.0
sg10
V27.251.120.0
p4750
sg12
g13
sg14
g13
sg15
V10201
p4751
sg17
g13
sbsV78.188.217.137
p4752
g2
(g3
g4
Ntp4753
Rp4754
(dp4755
g8
g4752
sg9
F0.0
sg10
V78.188.217.0
p4756
sg12
g13
sg14
g13
sg15
V9121
p4757
sg17
g13
sbsV54.200.46.253
p4758
g2
(g3
g4
Ntp4759
Rp4760
(dp4761
g8
g4758
sg9
F0.0
sg10
V54.200.46.0
p4762
sg12
g13
sg14
g13
sg15
V16509
p4763
sg17
g13
sbsV66.228.115.98
p4764
g2
(g3
g4
Ntp4765
Rp4766
(dp4767
g8
g4764
sg9
F0.0
sg10
V66.228.115.0
p4768
sg12
g13
sg14
g13
sg15
V36351
p4769
sg17
g13
sbsV106.248.227.163
p4770
g2
(g3
g4
Ntp4771
Rp4772
(dp4773
g8
g4770
sg9
F0.0
sg10
V106.248.227.0
p4774
sg12
g13
sg14
g13
sg15
V3786
p4775
sg17
g13
sbsV46.92.61.6
p4776
g2
(g3
g4
Ntp4777
Rp4778
(dp4779
g8
g4776
sg9
F0.0
sg10
V46.92.61.0
p4780
sg12
g13
sg14
g13
sg15
V3320
p4781
sg17
g13
sbsV152.173.149.153
p4782
g2
(g3
g4
Ntp4783
Rp4784
(dp4785
g8
g4782
sg9
F0.0
sg10
V152.173.149.0
p4786
sg12
g13
sg14
g13
sg15
V7418
p4787
sg17
g13
sbsV212.175.88.248
p4788
g2
(g3
g4
Ntp4789
Rp4790
(dp4791
g8
g4788
sg9
F0.0
sg10
V212.175.88.0
p4792
sg12
g13
sg14
g13
sg15
V9121
p4793
sg17
g13
sbsV218.103.121.20
p4794
g2
(g3
g4
Ntp4795
Rp4796
(dp4797
g8
g4794
sg9
F0.0
sg10
V218.103.121.0
p4798
sg12
g13
sg14
g13
sg15
V4760
p4799
sg17
g13
sbsV220.130.12.233
p4800
g2
(g3
g4
Ntp4801
Rp4802
(dp4803
g8
g4800
sg9
F0.0
sg10
V220.130.12.0
p4804
sg12
g13
sg14
g13
sg15
V3462
p4805
sg17
g13
sbsV218.161.88.91
p4806
g2
(g3
g4
Ntp4807
Rp4808
(dp4809
g8
g4806
sg9
F0.0
sg10
V218.161.88.0
p4810
sg12
g13
sg14
g13
sg15
V3462
p4811
sg17
g13
sbsV52.203.41.221
p4812
g2
(g3
g4
Ntp4813
Rp4814
(dp4815
g8
g4812
sg9
F0.0
sg10
V52.203.41.0
p4816
sg12
g13
sg14
g13
sg15
V14618
p4817
sg17
g13
sbsV79.252.223.146
p4818
g2
(g3
g4
Ntp4819
Rp4820
(dp4821
g8
g4818
sg9
F0.0
sg10
V79.252.223.0
p4822
sg12
g13
sg14
g13
sg15
V3320
p4823
sg17
g13
sbsV177.135.122.20
p4824
g2
(g3
g4
Ntp4825
Rp4826
(dp4827
g8
g4824
sg9
F0.0
sg10
V177.135.122.0
p4828
sg12
g13
sg14
g13
sg15
V18881
p4829
sg17
g13
sbsV62.161.120.7
p4830
g2
(g3
g4
Ntp4831
Rp4832
(dp4833
g8
g4830
sg9
F0.0
sg10
V62.161.120.0
p4834
sg12
g13
sg14
g13
sg15
V3215
p4835
sg17
g13
sbsV217.155.34.166
p4836
g2
(g3
g4
Ntp4837
Rp4838
(dp4839
g8
g4836
sg9
F0.0
sg10
V217.155.34.0
p4840
sg12
g13
sg14
g13
sg15
V13037
p4841
sg17
g13
sbsV78.245.88.194
p4842
g2
(g3
g4
Ntp4843
Rp4844
(dp4845
g8
g4842
sg9
F0.0
sg10
V78.245.88.0
p4846
sg12
g13
sg14
g13
sg15
V12322
p4847
sg17
g13
sbsV216.1.187.167
p4848
g2
(g3
g4
Ntp4849
Rp4850
(dp4851
g8
g4848
sg9
F0.0
sg10
V216.1.187.0
p4852
sg12
g13
sg14
g13
sg15
V2828
p4853
sg17
g13
sbsV218.103.120.242
p4854
g2
(g3
g4
Ntp4855
Rp4856
(dp4857
g8
g4854
sg9
F0.0
sg10
V218.103.120.0
p4858
sg12
g13
sg14
g13
sg15
V4760
p4859
sg17
g13
sbsV203.127.71.88
p4860
g2
(g3
g4
Ntp4861
Rp4862
(dp4863
g8
g4860
sg9
F0.0
sg10
V203.127.71.0
p4864
sg12
g13
sg14
g13
sg15
V3758
p4865
sg17
g13
sbsV190.242.37.84
p4866
g2
(g3
g4
Ntp4867
Rp4868
(dp4869
g8
g4866
sg9
F0.0
sg10
V190.242.37.0
p4870
sg12
g13
sg14
g13
sg15
V23520
p4871
sg17
g13
sbsV177.72.147.215
p4872
g2
(g3
g4
Ntp4873
Rp4874
(dp4875
g8
g4872
sg9
F0.0
sg10
V177.72.147.0
p4876
sg12
g13
sg14
g13
sg15
V262414
p4877
sg17
g13
sbsV220.246.77.191
p4878
g2
(g3
g4
Ntp4879
Rp4880
(dp4881
g8
g4878
sg9
F0.0
sg10
V220.246.77.0
p4882
sg12
g13
sg14
g13
sg15
V4760
p4883
sg17
g13
sbsV81.133.46.148
p4884
g2
(g3
g4
Ntp4885
Rp4886
(dp4887
g8
g4884
sg9
F0.0
sg10
V81.133.46.0
p4888
sg12
g13
sg14
g13
sg15
V2856
p4889
sg17
g13
sbsV81.133.46.149
p4890
g2
(g3
g4
Ntp4891
Rp4892
(dp4893
g8
g4890
sg9
F0.0
sg10
V81.133.46.0
p4894
sg12
g13
sg14
g13
sg15
V2856
p4895
sg17
g13
sbsV81.133.46.146
p4896
g2
(g3
g4
Ntp4897
Rp4898
(dp4899
g8
g4896
sg9
F0.0
sg10
V81.133.46.0
p4900
sg12
g13
sg14
g13
sg15
V2856
p4901
sg17
g13
sbsV189.14.87.138
p4902
g2
(g3
g4
Ntp4903
Rp4904
(dp4905
g8
g4902
sg9
F0.0
sg10
V189.14.87.0
p4906
sg12
g13
sg14
g13
sg15
V28277
p4907
sg17
g13
sbsV46.86.15.45
p4908
g2
(g3
g4
Ntp4909
Rp4910
(dp4911
g8
g4908
sg9
F0.0
sg10
V46.86.15.0
p4912
sg12
g13
sg14
g13
sg15
V3320
p4913
sg17
g13
sbsV58.7.218.70
p4914
g2
(g3
g4
Ntp4915
Rp4916
(dp4917
g8
g4914
sg9
F0.0
sg10
V58.7.218.0
p4918
sg12
g13
sg14
g13
sg15
V4739
p4919
sg17
g13
sbsV112.121.130.254
p4920
g2
(g3
g4
Ntp4921
Rp4922
(dp4923
g8
g4920
sg9
F0.0
sg10
V112.121.130.0
p4924
sg12
g13
sg14
g13
sg15
V23884
p4925
sg17
g13
sbsV195.43.83.58
p4926
g2
(g3
g4
Ntp4927
Rp4928
(dp4929
g8
g4926
sg9
F0.0
sg10
V195.43.83.0
p4930
sg12
g13
sg14
g13
sg15
V51109
p4931
sg17
g13
sbsV178.63.17.205
p4932
g2
(g3
g4
Ntp4933
Rp4934
(dp4935
g8
g4932
sg9
F0.0
sg10
V178.63.17.0
p4936
sg12
g13
sg14
g13
sg15
V24940
p4937
sg17
g13
sbsV91.221.177.59
p4938
g2
(g3
g4
Ntp4939
Rp4940
(dp4941
g8
g4938
sg9
F0.0
sg10
V91.221.177.0
p4942
sg12
g13
sg14
g13
sg15
V52008
p4943
sg17
g13
sbsV139.224.224.191
p4944
g2
(g3
g4
Ntp4945
Rp4946
(dp4947
g8
g4944
sg9
F0.0
sg10
V139.224.224.0
p4948
sg12
g13
sg14
g13
sg15
V37963
p4949
sg17
g13
sbsV190.2.72.97
p4950
g2
(g3
g4
Ntp4951
Rp4952
(dp4953
g8
g4950
sg9
F0.0
sg10
V190.2.72.0
p4954
sg12
g13
sg14
g13
sg15
V61920
p4955
sg17
g13
sbsV88.198.33.201
p4956
g2
(g3
g4
Ntp4957
Rp4958
(dp4959
g8
g4956
sg9
F0.0
sg10
V88.198.33.0
p4960
sg12
g13
sg14
g13
sg15
V24940
p4961
sg17
g13
sbsV119.81.101.253
p4962
g2
(g3
g4
Ntp4963
Rp4964
(dp4965
g8
g4962
sg9
F0.0
sg10
V119.81.101.0
p4966
sg12
g13
sg14
g13
sg15
V36351
p4967
sg17
g13
sbsV119.81.101.252
p4968
g2
(g3
g4
Ntp4969
Rp4970
(dp4971
g8
g4968
sg9
F0.0
sg10
V119.81.101.0
p4972
sg12
g13
sg14
g13
sg15
V36351
p4973
sg17
g13
sbsV223.197.253.180
p4974
g2
(g3
g4
Ntp4975
Rp4976
(dp4977
g8
g4974
sg9
F0.0
sg10
V223.197.253.0
p4978
sg12
g13
sg14
g13
sg15
V4760
p4979
sg17
g13
sbsV123.56.177.106
p4980
g2
(g3
g4
Ntp4981
Rp4982
(dp4983
g8
g4980
sg9
F0.0
sg10
V123.56.177.0
p4984
sg12
g13
sg14
g13
sg15
V37963
p4985
sg17
g13
sbsV94.97.125.121
p4986
g2
(g3
g4
Ntp4987
Rp4988
(dp4989
g8
g4986
sg9
F0.0
sg10
V94.97.125.0
p4990
sg12
g13
sg14
g13
sg15
V25019
p4991
sg17
g13
sbsV78.46.114.62
p4992
g2
(g3
g4
Ntp4993
Rp4994
(dp4995
g8
g4992
sg9
F0.0
sg10
V78.46.114.0
p4996
sg12
g13
sg14
g13
sg15
V24940
p4997
sg17
g13
sbsV121.242.77.202
p4998
g2
(g3
g4
Ntp4999
Rp5000
(dp5001
g8
g4998
sg9
F0.0
sg10
V121.242.77.0
p5002
sg12
g13
sg14
g13
sg15
V4755
p5003
sg17
g13
sbsV128.97.39.180
p5004
g2
(g3
g4
Ntp5005
Rp5006
(dp5007
g8
g5004
sg9
F0.0
sg10
V128.97.39.0
p5008
sg12
g13
sg14
g13
sg15
V52
p5009
sg17
g13
sbsV86.20.238.156
p5010
g2
(g3
g4
Ntp5011
Rp5012
(dp5013
g8
g5010
sg9
F0.0
sg10
V86.20.238.0
p5014
sg12
g13
sg14
g13
sg15
V5089
p5015
sg17
g13
sbsV59.120.185.135
p5016
g2
(g3
g4
Ntp5017
Rp5018
(dp5019
g8
g5016
sg9
F0.0
sg10
V59.120.185.0
p5020
sg12
g13
sg14
g13
sg15
V3462
p5021
sg17
g13
sbsV81.184.4.81
p5022
g2
(g3
g4
Ntp5023
Rp5024
(dp5025
g8
g5022
sg9
F0.0
sg10
V81.184.4.0
p5026
sg12
g13
sg14
g13
sg15
V6739
p5027
sg17
g13
sbsV124.193.132.20
p5028
g2
(g3
g4
Ntp5029
Rp5030
(dp5031
g8
g5028
sg9
F0.0
sg10
V124.193.132.0
p5032
sg12
g13
sg14
g13
sg15
V17964
p5033
sg17
g13
sbsV52.64.105.255
p5034
g2
(g3
g4
Ntp5035
Rp5036
(dp5037
g8
g5034
sg9
F0.0
sg10
V52.64.105.0
p5038
sg12
g13
sg14
g13
sg15
V16509
p5039
sg17
g13
sbsV103.9.103.97
p5040
g2
(g3
g4
Ntp5041
Rp5042
(dp5043
g8
g5040
sg9
F0.0
sg10
V103.9.103.0
p5044
sg12
g13
sg14
g13
sg15
V58621
p5045
sg17
g13
sbsV220.246.75.34
p5046
g2
(g3
g4
Ntp5047
Rp5048
(dp5049
g8
g5046
sg9
F0.0
sg10
V220.246.75.0
p5050
sg12
g13
sg14
g13
sg15
V4760
p5051
sg17
g13
sbsV92.249.74.160
p5052
g2
(g3
g4
Ntp5053
Rp5054
(dp5055
g8
g5052
sg9
F0.0
sg10
V92.249.74.0
p5056
sg12
g13
sg14
g13
sg15
V29107
p5057
sg17
g13
sbsV87.191.154.92
p5058
g2
(g3
g4
Ntp5059
Rp5060
(dp5061
g8
g5058
sg9
F0.0
sg10
V87.191.154.0
p5062
sg12
g13
sg14
g13
sg15
V3320
p5063
sg17
g13
sbsV41.33.203.20
p5064
g2
(g3
g4
Ntp5065
Rp5066
(dp5067
g8
g5064
sg9
F0.0
sg10
V41.33.203.0
p5068
sg12
g13
sg14
g13
sg15
V8452
p5069
sg17
g13
sbsV109.106.53.8
p5070
g2
(g3
g4
Ntp5071
Rp5072
(dp5073
g8
g5070
sg9
F0.0
sg10
V109.106.53.0
p5074
sg12
g13
sg14
g13
sg15
V15600
p5075
sg17
g13
sbsV144.160.16.98
p5076
g2
(g3
g4
Ntp5077
Rp5078
(dp5079
g8
g5076
sg9
F0.0
sg10
V144.160.16.0
p5080
sg12
g13
sg14
g13
sg15
V797
p5081
sg17
g13
sbsV12.50.47.202
p5082
g2
(g3
g4
Ntp5083
Rp5084
(dp5085
g8
g5082
sg9
F0.0
sg10
V12.50.47.0
p5086
sg12
g13
sg14
g13
sg15
V7018
p5087
sg17
g13
sbsV178.254.34.169
p5088
g2
(g3
g4
Ntp5089
Rp5090
(dp5091
g8
g5088
sg9
F0.0
sg10
V178.254.34.0
p5092
sg12
g13
sg14
g13
sg15
V42730
p5093
sg17
g13
sbsV36.226.43.202
p5094
g2
(g3
g4
Ntp5095
Rp5096
(dp5097
g8
g5094
sg9
F0.0
sg10
V36.226.43.0
p5098
sg12
g13
sg14
g13
sg15
V3462
p5099
sg17
g13
sbsV189.50.2.162
p5100
g2
(g3
g4
Ntp5101
Rp5102
(dp5103
g8
g5100
sg9
F0.0
sg10
V189.50.2.0
p5104
sg12
g13
sg14
g13
sg15
V28323
p5105
sg17
g13
sbsV201.39.164.106
p5106
g2
(g3
g4
Ntp5107
Rp5108
(dp5109
g8
g5106
sg9
F0.0
sg10
V201.39.164.0
p5110
sg12
g13
sg14
g13
sg15
V4230
p5111
sg17
g13
sbsV210.195.119.171
p5112
g2
(g3
g4
Ntp5113
Rp5114
(dp5115
g8
g5112
sg9
F0.0
sg10
V210.195.119.0
p5116
sg12
g13
sg14
g13
sg15
V4788
p5117
sg17
g13
sbsV164.132.141.199
p5118
g2
(g3
g4
Ntp5119
Rp5120
(dp5121
g8
g5118
sg9
F0.0
sg10
V164.132.141.0
p5122
sg12
g13
sg14
g13
sg15
V16276
p5123
sg17
g13
sbsV217.112.193.220
p5124
g2
(g3
g4
Ntp5125
Rp5126
(dp5127
g8
g5124
sg9
F0.0
sg10
V217.112.193.0
p5128
sg12
g13
sg14
g13
sg15
V34541
p5129
sg17
g13
sbsV109.167.58.67
p5130
g2
(g3
g4
Ntp5131
Rp5132
(dp5133
g8
g5130
sg9
F0.0
sg10
V109.167.58.0
p5134
sg12
g13
sg14
g13
sg15
V48427
p5135
sg17
g13
sbsV179.111.220.199
p5136
g2
(g3
g4
Ntp5137
Rp5138
(dp5139
g8
g5136
sg9
F0.0
sg10
V179.111.220.0
p5140
sg12
g13
sg14
g13
sg15
V27699
p5141
sg17
g13
sbsV109.109.138.171
p5142
g2
(g3
g4
Ntp5143
Rp5144
(dp5145
g8
g5142
sg9
F0.0
sg10
V109.109.138.0
p5146
sg12
g13
sg14
g13
sg15
V8553
p5147
sg17
g13
sbsV65.50.255.18
p5148
g2
(g3
g4
Ntp5149
Rp5150
(dp5151
g8
g5148
sg9
F0.0
sg10
V65.50.255.0
p5152
sg12
g13
sg14
g13
sg15
V21623
p5153
sg17
g13
sbsV133.18.96.58
p5154
g2
(g3
g4
Ntp5155
Rp5156
(dp5157
g8
g5154
sg9
F0.0
sg10
V133.18.96.0
p5158
sg12
g13
sg14
g13
sg15
V24282
p5159
sg17
g13
sbsV91.250.82.245
p5160
g2
(g3
g4
Ntp5161
Rp5162
(dp5163
g8
g5160
sg9
F0.0
sg10
V91.250.82.0
p5164
sg12
g13
sg14
g13
sg15
V20773
p5165
sg17
g13
sbsV24.249.193.235
p5166
g2
(g3
g4
Ntp5167
Rp5168
(dp5169
g8
g5166
sg9
F0.0
sg10
V24.249.193.0
p5170
sg12
g13
sg14
g13
sg15
V22773
p5171
sg17
g13
sbsV159.203.113.117
p5172
g2
(g3
g4
Ntp5173
Rp5174
(dp5175
g8
g5172
sg9
F0.0
sg10
V159.203.113.0
p5176
sg12
g13
sg14
g13
sg15
V393406
p5177
sg17
g13
sbsV66.228.115.99
p5178
g2
(g3
g4
Ntp5179
Rp5180
(dp5181
g8
g5178
sg9
F0.0
sg10
V66.228.115.0
p5182
sg12
g13
sg14
g13
sg15
V36351
p5183
sg17
g13
sbsV68.11.223.20
p5184
g2
(g3
g4
Ntp5185
Rp5186
(dp5187
g8
g5184
sg9
F0.0
sg10
V68.11.223.0
p5188
sg12
g13
sg14
g13
sg15
V22773
p5189
sg17
g13
sbsV82.208.53.115
p5190
g2
(g3
g4
Ntp5191
Rp5192
(dp5193
g8
g5190
sg9
F0.0
sg10
V82.208.53.0
p5194
sg12
g13
sg14
g13
sg15
V15685
p5195
sg17
g13
sbsV202.133.126.77
p5196
g2
(g3
g4
Ntp5197
Rp5198
(dp5199
g8
g5196
sg9
F0.0
sg10
V202.133.126.0
p5200
sg12
g13
sg14
g13
sg15
V9597
p5201
sg17
g13
sbsV66.146.122.158
p5202
g2
(g3
g4
Ntp5203
Rp5204
(dp5205
g8
g5202
sg9
F0.0
sg10
V66.146.122.0
p5206
sg12
g13
sg14
g13
sg15
V11123
p5207
sg17
g13
sbsV74.121.190.251
p5208
g2
(g3
g4
Ntp5209
Rp5210
(dp5211
g8
g5208
sg9
F0.0
sg10
V74.121.190.0
p5212
sg12
g13
sg14
g13
sg15
V23033
p5213
sg17
g13
sbsV74.121.190.252
p5214
g2
(g3
g4
Ntp5215
Rp5216
(dp5217
g8
g5214
sg9
F0.0
sg10
V74.121.190.0
p5218
sg12
g13
sg14
g13
sg15
V23033
p5219
sg17
g13
sbsV167.21.98.11
p5220
g2
(g3
g4
Ntp5221
Rp5222
(dp5223
g8
g5220
sg9
F0.0
sg10
V167.21.98.0
p5224
sg12
g13
sg14
g13
sg15
V30641
p5225
sg17
g13
sbsV138.31.88.168
p5226
g2
(g3
g4
Ntp5227
Rp5228
(dp5229
g8
g5226
sg9
F0.0
sg10
V138.31.88.0
p5230
sg12
g13
sg14
g13
sg15
g3359
sg17
g13
sbsV78.187.238.29
p5231
g2
(g3
g4
Ntp5232
Rp5233
(dp5234
g8
g5231
sg9
F0.0
sg10
V78.187.238.0
p5235
sg12
g13
sg14
g13
sg15
V9121
p5236
sg17
g13
sbsV202.143.225.32
p5237
g2
(g3
g4
Ntp5238
Rp5239
(dp5240
g8
g5237
sg9
F0.0
sg10
V202.143.225.0
p5241
sg12
g13
sg14
g13
sg15
V24336
p5242
sg17
g13
sbsV189.115.46.164
p5243
g2
(g3
g4
Ntp5244
Rp5245
(dp5246
g8
g5243
sg9
F0.0
sg10
V189.115.46.0
p5247
sg12
g13
sg14
g13
sg15
V18881
p5248
sg17
g13
sbsV72.14.187.103
p5249
g2
(g3
g4
Ntp5250
Rp5251
(dp5252
g8
g5249
sg9
F0.0
sg10
V72.14.187.0
p5253
sg12
g13
sg14
g13
sg15
V63949
p5254
sg17
g13
sbsV41.224.13.106
p5255
g2
(g3
g4
Ntp5256
Rp5257
(dp5258
g8
g5255
sg9
F0.0
sg10
V41.224.13.0
p5259
sg12
g13
sg14
g13
sg15
V37492
p5260
sg17
g13
sbsV68.157.192.10
p5261
g2
(g3
g4
Ntp5262
Rp5263
(dp5264
g8
g5261
sg9
F0.0
sg10
V68.157.192.0
p5265
sg12
g13
sg14
g13
sg15
V7018
p5266
sg17
g13
sbsV90.75.216.146
p5267
g2
(g3
g4
Ntp5268
Rp5269
(dp5270
g8
g5267
sg9
F0.0
sg10
V90.75.216.0
p5271
sg12
g13
sg14
g13
sg15
V12479
p5272
sg17
g13
sbsV50.164.91.183
p5273
g2
(g3
g4
Ntp5274
Rp5275
(dp5276
g8
g5273
sg9
F0.0
sg10
V50.164.91.0
p5277
sg12
g13
sg14
g13
sg15
V7922
p5278
sg17
g13
sbsV223.197.177.79
p5279
g2
(g3
g4
Ntp5280
Rp5281
(dp5282
g8
g5279
sg9
F0.0
sg10
V223.197.177.0
p5283
sg12
g13
sg14
g13
sg15
V4760
p5284
sg17
g13
sbsV131.100.143.237
p5285
g2
(g3
g4
Ntp5286
Rp5287
(dp5288
g8
g5285
sg9
F0.0
sg10
V131.100.143.0
p5289
sg12
g13
sg14
g13
sg15
V26617
p5290
sg17
g13
sbsV82.77.201.239
p5291
g2
(g3
g4
Ntp5292
Rp5293
(dp5294
g8
g5291
sg9
F0.0
sg10
V82.77.201.0
p5295
sg12
g13
sg14
g13
sg15
V8708
p5296
sg17
g13
sbsV177.9.216.250
p5297
g2
(g3
g4
Ntp5298
Rp5299
(dp5300
g8
g5297
sg9
F0.0
sg10
V177.9.216.0
p5301
sg12
g13
sg14
g13
sg15
V27699
p5302
sg17
g13
sbsV200.204.160.17
p5303
g2
(g3
g4
Ntp5304
Rp5305
(dp5306
g8
g5303
sg9
F0.0
sg10
V200.204.160.0
p5307
sg12
g13
sg14
g13
sg15
V27699
p5308
sg17
g13
sbsV194.2.32.24
p5309
g2
(g3
g4
Ntp5310
Rp5311
(dp5312
g8
g5309
sg9
F0.0
sg10
V194.2.32.0
p5313
sg12
g13
sg14
g13
sg15
V3215
p5314
sg17
g13
sbsV40.87.66.201
p5315
g2
(g3
g4
Ntp5316
Rp5317
(dp5318
g8
g5315
sg9
F0.0
sg10
V40.87.66.0
p5319
sg12
g13
sg14
g13
sg15
V8075
p5320
sg17
g13
sbsV123.30.110.185
p5321
g2
(g3
g4
Ntp5322
Rp5323
(dp5324
g8
g5321
sg9
F0.0
sg10
V123.30.110.0
p5325
sg12
g13
sg14
g13
sg15
V45899
p5326
sg17
g13
sbsV201.49.29.18
p5327
g2
(g3
g4
Ntp5328
Rp5329
(dp5330
g8
g5327
sg9
F0.0
sg10
V201.49.29.0
p5331
sg12
g13
sg14
g13
sg15
V11921
p5332
sg17
g13
sbsV206.193.219.150
p5333
g2
(g3
g4
Ntp5334
Rp5335
(dp5336
g8
g5333
sg9
F0.0
sg10
V206.193.219.0
p5337
sg12
g13
sg14
g13
sg15
V11915
p5338
sg17
g13
sbsV85.152.4.140
p5339
g2
(g3
g4
Ntp5340
Rp5341
(dp5342
g8
g5339
sg9
F0.0
sg10
V85.152.4.0
p5343
sg12
g13
sg14
g13
sg15
V12946
p5344
sg17
g13
sbsV186.194.224.105
p5345
g2
(g3
g4
Ntp5346
Rp5347
(dp5348
g8
g5345
sg9
F0.0
sg10
V186.194.224.0
p5349
sg12
g13
sg14
g13
sg15
V53143
p5350
sg17
g13
sbsV186.195.80.77
p5351
g2
(g3
g4
Ntp5352
Rp5353
(dp5354
g8
g5351
sg9
F0.0
sg10
V186.195.80.0
p5355
sg12
g13
sg14
g13
sg15
V263072
p5356
sg17
g13
sbsV212.20.68.52
p5357
g2
(g3
g4
Ntp5358
Rp5359
(dp5360
g8
g5357
sg9
F0.0
sg10
V212.20.68.0
p5361
sg12
g13
sg14
g13
sg15
V8913
p5362
sg17
g13
sbsV84.192.114.213
p5363
g2
(g3
g4
Ntp5364
Rp5365
(dp5366
g8
g5363
sg9
F0.0
sg10
V84.192.114.0
p5367
sg12
g13
sg14
g13
sg15
V6848
p5368
sg17
g13
sbsV223.197.230.192
p5369
g2
(g3
g4
Ntp5370
Rp5371
(dp5372
g8
g5369
sg9
F0.0
sg10
V223.197.230.0
p5373
sg12
g13
sg14
g13
sg15
V4760
p5374
sg17
g13
sbsV112.120.72.171
p5375
g2
(g3
g4
Ntp5376
Rp5377
(dp5378
g8
g5375
sg9
F0.0
sg10
V112.120.72.0
p5379
sg12
g13
sg14
g13
sg15
V4760
p5380
sg17
g13
sbsV58.152.110.97
p5381
g2
(g3
g4
Ntp5382
Rp5383
(dp5384
g8
g5381
sg9
F0.0
sg10
V58.152.110.0
p5385
sg12
g13
sg14
g13
sg15
V4760
p5386
sg17
g13
sbsV216.161.180.151
p5387
g2
(g3
g4
Ntp5388
Rp5389
(dp5390
g8
g5387
sg9
F0.0
sg10
V216.161.180.0
p5391
sg12
g13
sg14
g13
sg15
V209
p5392
sg17
g13
sbsV187.5.208.155
p5393
g2
(g3
g4
Ntp5394
Rp5395
(dp5396
g8
g5393
sg9
F0.0
sg10
V187.5.208.0
p5397
sg12
g13
sg14
g13
sg15
V8167
p5398
sg17
g13
sbsV88.141.144.193
p5399
g2
(g3
g4
Ntp5400
Rp5401
(dp5402
g8
g5399
sg9
F0.0
sg10
V88.141.144.0
p5403
sg12
g13
sg14
g13
sg15
V8228
p5404
sg17
g13
sbsV88.248.105.6
p5405
g2
(g3
g4
Ntp5406
Rp5407
(dp5408
g8
g5405
sg9
F0.0
sg10
V88.248.105.0
p5409
sg12
g13
sg14
g13
sg15
V9121
p5410
sg17
g13
sbsV79.248.176.155
p5411
g2
(g3
g4
Ntp5412
Rp5413
(dp5414
g8
g5411
sg9
F0.0
sg10
V79.248.176.0
p5415
sg12
g13
sg14
g13
sg15
V3320
p5416
sg17
g13
sbsV188.231.1.236
p5417
g2
(g3
g4
Ntp5418
Rp5419
(dp5420
g8
g5417
sg9
F0.0
sg10
V188.231.1.0
p5421
sg12
g13
sg14
g13
sg15
V24627
p5422
sg17
g13
sbsV217.12.181.173
p5423
g2
(g3
g4
Ntp5424
Rp5425
(dp5426
g8
g5423
sg9
F0.0
sg10
V217.12.181.0
p5427
sg12
g13
sg14
g13
sg15
V3302
p5428
sg17
g13
sbsV177.39.55.164
p5429
g2
(g3
g4
Ntp5430
Rp5431
(dp5432
g8
g5429
sg9
F0.0
sg10
V177.39.55.0
p5433
sg12
g13
sg14
g13
sg15
V52976
p5434
sg17
g13
sbsV91.58.122.182
p5435
g2
(g3
g4
Ntp5436
Rp5437
(dp5438
g8
g5435
sg9
F0.0
sg10
V91.58.122.0
p5439
sg12
g13
sg14
g13
sg15
V3320
p5440
sg17
g13
sbsV223.197.160.87
p5441
g2
(g3
g4
Ntp5442
Rp5443
(dp5444
g8
g5441
sg9
F0.0
sg10
V223.197.160.0
p5445
sg12
g13
sg14
g13
sg15
V4760
p5446
sg17
g13
sbsV210.86.138.4
p5447
g2
(g3
g4
Ntp5448
Rp5449
(dp5450
g8
g5447
sg9
F0.0
sg10
V210.86.138.0
p5451
sg12
g13
sg14
g13
sg15
V7470
p5452
sg17
g13
sbsV219.76.132.93
p5453
g2
(g3
g4
Ntp5454
Rp5455
(dp5456
g8
g5453
sg9
F0.0
sg10
V219.76.132.0
p5457
sg12
g13
sg14
g13
sg15
V4760
p5458
sg17
g13
sbsV107.1.121.114
p5459
g2
(g3
g4
Ntp5460
Rp5461
(dp5462
g8
g5459
sg9
F0.0
sg10
V107.1.121.0
p5463
sg12
g13
sg14
g13
sg15
V7922
p5464
sg17
g13
sbsV188.27.232.39
p5465
g2
(g3
g4
Ntp5466
Rp5467
(dp5468
g8
g5465
sg9
F0.0
sg10
V188.27.232.0
p5469
sg12
g13
sg14
g13
sg15
V8708
p5470
sg17
g13
sbsV78.188.171.101
p5471
g2
(g3
g4
Ntp5472
Rp5473
(dp5474
g8
g5471
sg9
F0.0
sg10
V78.188.171.0
p5475
sg12
g13
sg14
g13
sg15
V9121
p5476
sg17
g13
sbsV119.11.243.94
p5477
g2
(g3
g4
Ntp5478
Rp5479
(dp5480
g8
g5477
sg9
F0.0
sg10
V119.11.243.0
p5481
sg12
g13
sg14
g13
sg15
V10217
p5482
sg17
g13
sbsV45.79.149.59
p5483
g2
(g3
g4
Ntp5484
Rp5485
(dp5486
g8
g5483
sg9
F0.0
sg10
V45.79.149.0
p5487
sg12
g13
sg14
g13
sg15
V63949
p5488
sg17
g13
sbsV201.86.187.31
p5489
g2
(g3
g4
Ntp5490
Rp5491
(dp5492
g8
g5489
sg9
F0.0
sg10
V201.86.187.0
p5493
sg12
g13
sg14
g13
sg15
V18881
p5494
sg17
g13
sbsV184.61.25.97
p5495
g2
(g3
g4
Ntp5496
Rp5497
(dp5498
g8
g5495
sg9
F0.0
sg10
V184.61.25.0
p5499
sg12
g13
sg14
g13
sg15
V4181
p5500
sg17
g13
sbsV85.13.240.85
p5501
g2
(g3
g4
Ntp5502
Rp5503
(dp5504
g8
g5501
sg9
F0.0
sg10
V85.13.240.0
p5505
sg12
g13
sg14
g13
sg15
V31708
p5506
sg17
g13
sbsV79.226.115.105
p5507
g2
(g3
g4
Ntp5508
Rp5509
(dp5510
g8
g5507
sg9
F0.0
sg10
V79.226.115.0
p5511
sg12
g13
sg14
g13
sg15
V3320
p5512
sg17
g13
sbsV85.13.240.86
p5513
g2
(g3
g4
Ntp5514
Rp5515
(dp5516
g8
g5513
sg9
F0.0
sg10
V85.13.240.0
p5517
sg12
g13
sg14
g13
sg15
V31708
p5518
sg17
g13
sbsV54.70.1.113
p5519
g2
(g3
g4
Ntp5520
Rp5521
(dp5522
g8
g5519
sg9
F0.0
sg10
V54.70.1.0
p5523
sg12
g13
sg14
g13
sg15
V16509
p5524
sg17
g13
sbsV185.7.254.33
p5525
g2
(g3
g4
Ntp5526
Rp5527
(dp5528
g8
g5525
sg9
F0.0
sg10
V185.7.254.0
p5529
sg12
g13
sg14
g13
sg15
V61189
p5530
sg17
g13
sbsV95.183.198.131
p5531
g2
(g3
g4
Ntp5532
Rp5533
(dp5534
g8
g5531
sg9
F0.0
sg10
V95.183.198.0
p5535
sg12
g13
sg14
g13
sg15
V8517
p5536
sg17
g13
sbsV171.34.78.113
p5537
g2
(g3
g4
Ntp5538
Rp5539
(dp5540
g8
g5537
sg9
F0.0
sg10
V171.34.78.0
p5541
sg12
g13
sg14
g13
sg15
V4837
p5542
sg17
g13
sbsV88.96.62.137
p5543
g2
(g3
g4
Ntp5544
Rp5545
(dp5546
g8
g5543
sg9
F0.0
sg10
V88.96.62.0
p5547
sg12
g13
sg14
g13
sg15
V13037
p5548
sg17
g13
sbsV179.61.83.79
p5549
g2
(g3
g4
Ntp5550
Rp5551
(dp5552
g8
g5549
sg9
F0.0
sg10
V179.61.83.0
p5553
sg12
g13
sg14
g13
sg15
V264656
p5554
sg17
g13
sbsV200.217.24.30
p5555
g2
(g3
g4
Ntp5556
Rp5557
(dp5558
g8
g5555
sg9
F0.0
sg10
V200.217.24.0
p5559
sg12
g13
sg14
g13
sg15
V7738
p5560
sg17
g13
sbsV80.28.115.195
p5561
g2
(g3
g4
Ntp5562
Rp5563
(dp5564
g8
g5561
sg9
F0.0
sg10
V80.28.115.0
p5565
sg12
g13
sg14
g13
sg15
V3352
p5566
sg17
g13
sbsV84.160.124.49
p5567
g2
(g3
g4
Ntp5568
Rp5569
(dp5570
g8
g5567
sg9
F0.0
sg10
V84.160.124.0
p5571
sg12
g13
sg14
g13
sg15
V3320
p5572
sg17
g13
sbsV106.247.130.30
p5573
g2
(g3
g4
Ntp5574
Rp5575
(dp5576
g8
g5573
sg9
F0.0
sg10
V106.247.130.0
p5577
sg12
g13
sg14
g13
sg15
V3786
p5578
sg17
g13
sbsV188.165.233.145
p5579
g2
(g3
g4
Ntp5580
Rp5581
(dp5582
g8
g5579
sg9
F0.0
sg10
V188.165.233.0
p5583
sg12
g13
sg14
g13
sg15
V16276
p5584
sg17
g13
sbsV118.200.151.157
p5585
g2
(g3
g4
Ntp5586
Rp5587
(dp5588
g8
g5585
sg9
F0.0
sg10
V118.200.151.0
p5589
sg12
g13
sg14
g13
sg15
V9506
p5590
sg17
g13
sbsV51.254.135.114
p5591
g2
(g3
g4
Ntp5592
Rp5593
(dp5594
g8
g5591
sg9
F0.0
sg10
V51.254.135.0
p5595
sg12
g13
sg14
g13
sg15
V16276
p5596
sg17
g13
sbsV216.53.206.228
p5597
g2
(g3
g4
Ntp5598
Rp5599
(dp5600
g8
g5597
sg9
F0.0
sg10
V216.53.206.0
p5601
sg12
g13
sg14
g13
sg15
V14288
p5602
sg17
g13
sbsV212.18.43.107
p5603
g2
(g3
g4
Ntp5604
Rp5605
(dp5606
g8
g5603
sg9
F0.0
sg10
V212.18.43.0
p5607
sg12
g13
sg14
g13
sg15
V8591
p5608
sg17
g13
sbsV212.175.88.249
p5609
g2
(g3
g4
Ntp5610
Rp5611
(dp5612
g8
g5609
sg9
F0.0
sg10
V212.175.88.0
p5613
sg12
g13
sg14
g13
sg15
V9121
p5614
sg17
g13
sbsV104.169.27.130
p5615
g2
(g3
g4
Ntp5616
Rp5617
(dp5618
g8
g5615
sg9
F0.0
sg10
V104.169.27.0
p5619
sg12
g13
sg14
g13
sg15
V5650
p5620
sg17
g13
sbsV198.20.116.236
p5621
g2
(g3
g4
Ntp5622
Rp5623
(dp5624
g8
g5621
sg9
F0.0
sg10
V198.20.116.0
p5625
sg12
g13
sg14
g13
sg15
V32475
p5626
sg17
g13
sbsV77.93.128.10
p5627
g2
(g3
g4
Ntp5628
Rp5629
(dp5630
g8
g5627
sg9
F0.0
sg10
V77.93.128.0
p5631
sg12
g13
sg14
g13
sg15
V60648
p5632
sg17
g13
sbsV77.43.77.237
p5633
g2
(g3
g4
Ntp5634
Rp5635
(dp5636
g8
g5633
sg9
F0.0
sg10
V77.43.77.0
p5637
sg12
g13
sg14
g13
sg15
V5396
p5638
sg17
g13
sbsV223.197.237.233
p5639
g2
(g3
g4
Ntp5640
Rp5641
(dp5642
g8
g5639
sg9
F0.0
sg10
V223.197.237.0
p5643
sg12
g13
sg14
g13
sg15
V4760
p5644
sg17
g13
sbsV177.36.9.50
p5645
g2
(g3
g4
Ntp5646
Rp5647
(dp5648
g8
g5645
sg9
F0.0
sg10
V177.36.9.0
p5649
sg12
g13
sg14
g13
sg15
V52965
p5650
sg17
g13
sbsV190.144.124.75
p5651
g2
(g3
g4
Ntp5652
Rp5653
(dp5654
g8
g5651
sg9
F0.0
sg10
V190.144.124.0
p5655
sg12
g13
sg14
g13
sg15
V14080
p5656
sg17
g13
sbsV98.23.186.161
p5657
g2
(g3
g4
Ntp5658
Rp5659
(dp5660
g8
g5657
sg9
F0.0
sg10
V98.23.186.0
p5661
sg12
g13
sg14
g13
sg15
V7029
p5662
sg17
g13
sbsV52.3.210.82
p5663
g2
(g3
g4
Ntp5664
Rp5665
(dp5666
g8
g5663
sg9
F0.0
sg10
V52.3.210.0
p5667
sg12
g13
sg14
g13
sg15
V14618
p5668
sg17
g13
sbsV98.23.186.160
p5669
g2
(g3
g4
Ntp5670
Rp5671
(dp5672
g8
g5669
sg9
F0.0
sg10
V98.23.186.0
p5673
sg12
g13
sg14
g13
sg15
V7029
p5674
sg17
g13
sbsV207.157.12.4
p5675
g2
(g3
g4
Ntp5676
Rp5677
(dp5678
g8
g5675
sg9
F0.0
sg10
V207.157.12.0
p5679
sg12
g13
sg14
g13
sg15
V3464
p5680
sg17
g13
sbsV188.138.75.221
p5681
g2
(g3
g4
Ntp5682
Rp5683
(dp5684
g8
g5681
sg9
F0.0
sg10
V188.138.75.0
p5685
sg12
g13
sg14
g13
sg15
V8972
p5686
sg17
g13
sbsV83.208.111.243
p5687
g2
(g3
g4
Ntp5688
Rp5689
(dp5690
g8
g5687
sg9
F0.0
sg10
V83.208.111.0
p5691
sg12
g13
sg14
g13
sg15
V5610
p5692
sg17
g13
sbsV93.237.145.105
p5693
g2
(g3
g4
Ntp5694
Rp5695
(dp5696
g8
g5693
sg9
F0.0
sg10
V93.237.145.0
p5697
sg12
g13
sg14
g13
sg15
V3320
p5698
sg17
g13
sbsV178.156.171.19
p5699
g2
(g3
g4
Ntp5700
Rp5701
(dp5702
g8
g5699
sg9
F0.0
sg10
V178.156.171.0
p5703
sg12
g13
sg14
g13
sg15
V35584
p5704
sg17
g13
sbsV192.252.215.177
p5705
g2
(g3
g4
Ntp5706
Rp5707
(dp5708
g8
g5705
sg9
F0.0
sg10
V192.252.215.0
p5709
sg12
g13
sg14
g13
sg15
V46562
p5710
sg17
g13
sbsV50.77.152.10
p5711
g2
(g3
g4
Ntp5712
Rp5713
(dp5714
g8
g5711
sg9
F0.0
sg10
V50.77.152.0
p5715
sg12
g13
sg14
g13
sg15
V7922
p5716
sg17
g13
sbsV107.190.140.10
p5717
g2
(g3
g4
Ntp5718
Rp5719
(dp5720
g8
g5717
sg9
F0.0
sg10
V107.190.140.0
p5721
sg12
g13
sg14
g13
sg15
V33182
p5722
sg17
g13
sbsV87.118.66.17
p5723
g2
(g3
g4
Ntp5724
Rp5725
(dp5726
g8
g5723
sg9
F0.0
sg10
V87.118.66.0
p5727
sg12
g13
sg14
g13
sg15
V31103
p5728
sg17
g13
sbsV186.4.186.124
p5729
g2
(g3
g4
Ntp5730
Rp5731
(dp5732
g8
g5729
sg9
F0.0
sg10
V186.4.186.0
p5733
sg12
g13
sg14
g13
sg15
V52257
p5734
sg17
g13
sbsV88.85.239.100
p5735
g2
(g3
g4
Ntp5736
Rp5737
(dp5738
g8
g5735
sg9
F0.0
sg10
V88.85.239.0
p5739
sg12
g13
sg14
g13
sg15
V29684
p5740
sg17
g13
sbsV78.37.124.252
p5741
g2
(g3
g4
Ntp5742
Rp5743
(dp5744
g8
g5741
sg9
F0.0
sg10
V78.37.124.0
p5745
sg12
g13
sg14
g13
sg15
V8997
p5746
sg17
g13
sbsV96.88.75.68
p5747
g2
(g3
g4
Ntp5748
Rp5749
(dp5750
g8
g5747
sg9
F0.0
sg10
V96.88.75.0
p5751
sg12
g13
sg14
g13
sg15
V7922
p5752
sg17
g13
sbsV188.175.31.10
p5753
g2
(g3
g4
Ntp5754
Rp5755
(dp5756
g8
g5753
sg9
F0.0
sg10
V188.175.31.0
p5757
sg12
g13
sg14
g13
sg15
V16246
p5758
sg17
g13
sbsV187.73.210.233
p5759
g2
(g3
g4
Ntp5760
Rp5761
(dp5762
g8
g5759
sg9
F0.0
sg10
V187.73.210.0
p5763
sg12
g13
sg14
g13
sg15
V53054
p5764
sg17
g13
sbsV24.139.44.195
p5765
g2
(g3
g4
Ntp5766
Rp5767
(dp5768
g8
g5765
sg9
F0.0
sg10
V24.139.44.0
p5769
sg12
g13
sg14
g13
sg15
V11976
p5770
sg17
g13
sbsV13.90.249.3
p5771
g2
(g3
g4
Ntp5772
Rp5773
(dp5774
g8
g5771
sg9
F0.0
sg10
V13.90.249.0
p5775
sg12
g13
sg14
g13
sg15
V8075
p5776
sg17
g13
sbsV50.207.19.115
p5777
g2
(g3
g4
Ntp5778
Rp5779
(dp5780
g8
g5777
sg9
F0.0
sg10
V50.207.19.0
p5781
sg12
g13
sg14
g13
sg15
V7922
p5782
sg17
g13
sbsV173.219.41.8
p5783
g2
(g3
g4
Ntp5784
Rp5785
(dp5786
g8
g5783
sg9
F0.0
sg10
V173.219.41.0
p5787
sg12
g13
sg14
g13
sg15
V19108
p5788
sg17
g13
sbsV90.181.192.66
p5789
g2
(g3
g4
Ntp5790
Rp5791
(dp5792
g8
g5789
sg9
F0.0
sg10
V90.181.192.0
p5793
sg12
g13
sg14
g13
sg15
V5610
p5794
sg17
g13
sbsV14.192.17.132
p5795
g2
(g3
g4
Ntp5796
Rp5797
(dp5798
g8
g5795
sg9
F0.0
sg10
V14.192.17.0
p5799
sg12
g13
sg14
g13
sg15
V132717
p5800
sg17
g13
sbsV86.123.150.246
p5801
g2
(g3
g4
Ntp5802
Rp5803
(dp5804
g8
g5801
sg9
F0.0
sg10
V86.123.150.0
p5805
sg12
g13
sg14
g13
sg15
V8708
p5806
sg17
g13
sbsV87.189.43.191
p5807
g2
(g3
g4
Ntp5808
Rp5809
(dp5810
g8
g5807
sg9
F0.0
sg10
V87.189.43.0
p5811
sg12
g13
sg14
g13
sg15
V3320
p5812
sg17
g13
sbsV73.88.137.91
p5813
g2
(g3
g4
Ntp5814
Rp5815
(dp5816
g8
g5813
sg9
F0.0
sg10
V73.88.137.0
p5817
sg12
g13
sg14
g13
sg15
V7922
p5818
sg17
g13
sbsV186.209.31.65
p5819
g2
(g3
g4
Ntp5820
Rp5821
(dp5822
g8
g5819
sg9
F0.0
sg10
V186.209.31.0
p5823
sg12
g13
sg14
g13
sg15
V28343
p5824
sg17
g13
sbsV79.184.209.155
p5825
g2
(g3
g4
Ntp5826
Rp5827
(dp5828
g8
g5825
sg9
F0.0
sg10
V79.184.209.0
p5829
sg12
g13
sg14
g13
sg15
V5617
p5830
sg17
g13
sbsV5.39.3.8
p5831
g2
(g3
g4
Ntp5832
Rp5833
(dp5834
g8
g5831
sg9
F0.0
sg10
V5.39.3.0
p5835
sg12
g13
sg14
g13
sg15
V16276
p5836
sg17
g13
sbsV86.123.150.247
p5837
g2
(g3
g4
Ntp5838
Rp5839
(dp5840
g8
g5837
sg9
F0.0
sg10
V86.123.150.0
p5841
sg12
g13
sg14
g13
sg15
V8708
p5842
sg17
g13
sbsV191.178.34.21
p5843
g2
(g3
g4
Ntp5844
Rp5845
(dp5846
g8
g5843
sg9
F0.0
sg10
V191.178.34.0
p5847
sg12
g13
sg14
g13
sg15
V28573
p5848
sg17
g13
sbsV73.10.109.228
p5849
g2
(g3
g4
Ntp5850
Rp5851
(dp5852
g8
g5849
sg9
F0.0
sg10
V73.10.109.0
p5853
sg12
g13
sg14
g13
sg15
V7922
p5854
sg17
g13
sbsV23.249.100.91
p5855
g2
(g3
g4
Ntp5856
Rp5857
(dp5858
g8
g5855
sg9
F0.0
sg10
V23.249.100.0
p5859
sg12
g13
sg14
g13
sg15
V32732
p5860
sg17
g13
sbsV212.156.91.238
p5861
g2
(g3
g4
Ntp5862
Rp5863
(dp5864
g8
g5861
sg9
F0.0
sg10
V212.156.91.0
p5865
sg12
g13
sg14
g13
sg15
V9121
p5866
sg17
g13
sbsV169.50.202.156
p5867
g2
(g3
g4
Ntp5868
Rp5869
(dp5870
g8
g5867
sg9
F0.0
sg10
V169.50.202.0
p5871
sg12
g13
sg14
g13
sg15
V36351
p5872
sg17
g13
sbsV210.208.104.163
p5873
g2
(g3
g4
Ntp5874
Rp5875
(dp5876
g8
g5873
sg9
F0.0
sg10
V210.208.104.0
p5877
sg12
g13
sg14
g13
sg15
V9924
p5878
sg17
g13
sbsV71.60.3.239
p5879
g2
(g3
g4
Ntp5880
Rp5881
(dp5882
g8
g5879
sg9
F0.0
sg10
V71.60.3.0
p5883
sg12
g13
sg14
g13
sg15
V7922
p5884
sg17
g13
sbsV5.154.57.202
p5885
g2
(g3
g4
Ntp5886
Rp5887
(dp5888
g8
g5885
sg9
F0.0
sg10
V5.154.57.0
p5889
sg12
g13
sg14
g13
sg15
V48427
p5890
sg17
g13
sbsV51.255.55.85
p5891
g2
(g3
g4
Ntp5892
Rp5893
(dp5894
g8
g5891
sg9
F0.0
sg10
V51.255.55.0
p5895
sg12
g13
sg14
g13
sg15
V16276
p5896
sg17
g13
sbsV220.133.18.178
p5897
g2
(g3
g4
Ntp5898
Rp5899
(dp5900
g8
g5897
sg9
F0.0
sg10
V220.133.18.0
p5901
sg12
g13
sg14
g13
sg15
V3462
p5902
sg17
g13
sbsV104.196.219.48
p5903
g2
(g3
g4
Ntp5904
Rp5905
(dp5906
g8
g5903
sg9
F0.0
sg10
V104.196.219.0
p5907
sg12
g13
sg14
g13
sg15
V15169
p5908
sg17
g13
sbsV62.33.39.71
p5909
g2
(g3
g4
Ntp5910
Rp5911
(dp5912
g8
g5909
sg9
F0.0
sg10
V62.33.39.0
p5913
sg12
g13
sg14
g13
sg15
V20485
p5914
sg17
g13
sbsV78.187.24.144
p5915
g2
(g3
g4
Ntp5916
Rp5917
(dp5918
g8
g5915
sg9
F0.0
sg10
V78.187.24.0
p5919
sg12
g13
sg14
g13
sg15
V9121
p5920
sg17
g13
sbsV182.150.24.10
p5921
g2
(g3
g4
Ntp5922
Rp5923
(dp5924
g8
g5921
sg9
F0.0
sg10
V182.150.24.0
p5925
sg12
g13
sg14
g13
sg15
V4134
p5926
sg17
g13
sbsV54.67.47.149
p5927
g2
(g3
g4
Ntp5928
Rp5929
(dp5930
g8
g5927
sg9
F0.0
sg10
V54.67.47.0
p5931
sg12
g13
sg14
g13
sg15
V16509
p5932
sg17
g13
sbsV187.109.97.114
p5933
g2
(g3
g4
Ntp5934
Rp5935
(dp5936
g8
g5933
sg9
F0.0
sg10
V187.109.97.0
p5937
sg12
g13
sg14
g13
sg15
V28158
p5938
sg17
g13
sbsV74.194.195.239
p5939
g2
(g3
g4
Ntp5940
Rp5941
(dp5942
g8
g5939
sg9
F0.0
sg10
V74.194.195.0
p5943
sg12
g13
sg14
g13
sg15
V19108
p5944
sg17
g13
sbsV200.46.249.101
p5945
g2
(g3
g4
Ntp5946
Rp5947
(dp5948
g8
g5945
sg9
F0.0
sg10
V200.46.249.0
p5949
sg12
g13
sg14
g13
sg15
V21599
p5950
sg17
g13
sbsV54.227.174.163
p5951
g2
(g3
g4
Ntp5952
Rp5953
(dp5954
g8
g5951
sg9
F0.0
sg10
V54.227.174.0
p5955
sg12
g13
sg14
g13
sg15
V14618
p5956
sg17
g13
sbsV82.77.200.118
p5957
g2
(g3
g4
Ntp5958
Rp5959
(dp5960
g8
g5957
sg9
F0.0
sg10
V82.77.200.0
p5961
sg12
g13
sg14
g13
sg15
V8708
p5962
sg17
g13
sbsV199.96.0.20
p5963
g2
(g3
g4
Ntp5964
Rp5965
(dp5966
g8
g5963
sg9
F0.0
sg10
V199.96.0.0
p5967
sg12
g13
sg14
g13
sg15
V19065
p5968
sg17
g13
sbsV209.5.230.242
p5969
g2
(g3
g4
Ntp5970
Rp5971
(dp5972
g8
g5969
sg9
F0.0
sg10
V209.5.230.0
p5973
sg12
g13
sg14
g13
sg15
V812
p5974
sg17
g13
sbsV52.53.237.159
p5975
g2
(g3
g4
Ntp5976
Rp5977
(dp5978
g8
g5975
sg9
F0.0
sg10
V52.53.237.0
p5979
sg12
g13
sg14
g13
sg15
V16509
p5980
sg17
g13
sbsV200.78.231.195
p5981
g2
(g3
g4
Ntp5982
Rp5983
(dp5984
g8
g5981
sg9
F0.0
sg10
V200.78.231.0
p5985
sg12
g13
sg14
g13
sg15
V6503
p5986
sg17
g13
sbsV200.105.112.174
p5987
g2
(g3
g4
Ntp5988
Rp5989
(dp5990
g8
g5987
sg9
F0.0
sg10
V200.105.112.0
p5991
sg12
g13
sg14
g13
sg15
V28058
p5992
sg17
g13
sbsV187.17.169.2
p5993
g2
(g3
g4
Ntp5994
Rp5995
(dp5996
g8
g5993
sg9
F0.0
sg10
V187.17.169.0
p5997
sg12
g13
sg14
g13
sg15
V28263
p5998
sg17
g13
sbsV177.12.226.242
p5999
g2
(g3
g4
Ntp6000
Rp6001
(dp6002
g8
g5999
sg9
F0.0
sg10
V177.12.226.0
p6003
sg12
g13
sg14
g13
sg15
V61568
p6004
sg17
g13
sbsV186.137.97.40
p6005
g2
(g3
g4
Ntp6006
Rp6007
(dp6008
g8
g6005
sg9
F0.0
sg10
V186.137.97.0
p6009
sg12
g13
sg14
g13
sg15
V10318
p6010
sg17
g13
sbsV187.60.52.96
p6011
g2
(g3
g4
Ntp6012
Rp6013
(dp6014
g8
g6011
sg9
F0.0
sg10
V187.60.52.0
p6015
sg12
g13
sg14
g13
sg15
V28151
p6016
sg17
g13
sbsV196.6.103.210
p6017
g2
(g3
g4
Ntp6018
Rp6019
(dp6020
g8
g6017
sg9
F0.0
sg10
V196.6.103.0
p6021
sg12
g13
sg14
g13
sg15
V37567
p6022
sg17
g13
sbsV124.107.138.238
p6023
g2
(g3
g4
Ntp6024
Rp6025
(dp6026
g8
g6023
sg9
F0.0
sg10
V124.107.138.0
p6027
sg12
g13
sg14
g13
sg15
V9299
p6028
sg17
g13
sbsV187.19.10.43
p6029
g2
(g3
g4
Ntp6030
Rp6031
(dp6032
g8
g6029
sg9
F0.0
sg10
V187.19.10.0
p6033
sg12
g13
sg14
g13
sg15
V28124
p6034
sg17
g13
sbsV179.190.28.244
p6035
g2
(g3
g4
Ntp6036
Rp6037
(dp6038
g8
g6035
sg9
F0.0
sg10
V179.190.28.0
p6039
sg12
g13
sg14
g13
sg15
V52925
p6040
sg17
g13
sbsV176.9.24.45
p6041
g2
(g3
g4
Ntp6042
Rp6043
(dp6044
g8
g6041
sg9
F0.0
sg10
V176.9.24.0
p6045
sg12
g13
sg14
g13
sg15
V24940
p6046
sg17
g13
sbsV190.165.160.238
p6047
g2
(g3
g4
Ntp6048
Rp6049
(dp6050
g8
g6047
sg9
F0.0
sg10
V190.165.160.0
p6051
sg12
g13
sg14
g13
sg15
V13489
p6052
sg17
g13
sbsV72.27.221.113
p6053
g2
(g3
g4
Ntp6054
Rp6055
(dp6056
g8
g6053
sg9
F0.0
sg10
V72.27.221.0
p6057
sg12
g13
sg14
g13
sg15
V30689
p6058
sg17
g13
sbsV200.98.129.43
p6059
g2
(g3
g4
Ntp6060
Rp6061
(dp6062
g8
g6059
sg9
F0.0
sg10
V200.98.129.0
p6063
sg12
g13
sg14
g13
sg15
V7162
p6064
sg17
g13
sbsV89.207.111.248
p6065
g2
(g3
g4
Ntp6066
Rp6067
(dp6068
g8
g6065
sg9
F0.0
sg10
V89.207.111.0
p6069
sg12
g13
sg14
g13
sg15
V41160
p6070
sg17
g13
sbsV185.10.114.91
p6071
g2
(g3
g4
Ntp6072
Rp6073
(dp6074
g8
g6071
sg9
F0.0
sg10
V185.10.114.0
p6075
sg12
g13
sg14
g13
sg15
V29684
p6076
sg17
g13
sbsV50.7.99.74
p6077
g2
(g3
g4
Ntp6078
Rp6079
(dp6080
g8
g6077
sg9
F0.0
sg10
V50.7.99.0
p6081
sg12
g13
sg14
g13
sg15
V174
p6082
sg17
g13
sbsV45.79.130.94
p6083
g2
(g3
g4
Ntp6084
Rp6085
(dp6086
g8
g6083
sg9
F0.0
sg10
V45.79.130.0
p6087
sg12
g13
sg14
g13
sg15
V63949
p6088
sg17
g13
sbsV87.236.246.28
p6089
g2
(g3
g4
Ntp6090
Rp6091
(dp6092
g8
g6089
sg9
F0.0
sg10
V87.236.246.0
p6093
sg12
g13
sg14
g13
sg15
V8426
p6094
sg17
g13
sbsV189.109.26.2
p6095
g2
(g3
g4
Ntp6096
Rp6097
(dp6098
g8
g6095
sg9
F0.0
sg10
V189.109.26.0
p6099
sg12
g13
sg14
g13
sg15
V10429
p6100
sg17
g13
sbsV133.18.96.57
p6101
g2
(g3
g4
Ntp6102
Rp6103
(dp6104
g8
g6101
sg9
F0.0
sg10
V133.18.96.0
p6105
sg12
g13
sg14
g13
sg15
V24282
p6106
sg17
g13
sbsV27.254.88.130
p6107
g2
(g3
g4
Ntp6108
Rp6109
(dp6110
g8
g6107
sg9
F0.0
sg10
V27.254.88.0
p6111
sg12
g13
sg14
g13
sg15
V4750
p6112
sg17
g13
sbsV112.120.79.143
p6113
g2
(g3
g4
Ntp6114
Rp6115
(dp6116
g8
g6113
sg9
F0.0
sg10
V112.120.79.0
p6117
sg12
g13
sg14
g13
sg15
V4760
p6118
sg17
g13
sbsV139.162.2.145
p6119
g2
(g3
g4
Ntp6120
Rp6121
(dp6122
g8
g6119
sg9
F0.0
sg10
V139.162.2.0
p6123
sg12
g13
sg14
g13
sg15
V63949
p6124
sg17
g13
sbsV31.147.204.111
p6125
g2
(g3
g4
Ntp6126
Rp6127
(dp6128
g8
g6125
sg9
F0.0
sg10
V31.147.204.0
p6129
sg12
g13
sg14
g13
sg15
V2108
p6130
sg17
g13
sbsV72.38.5.89
p6131
g2
(g3
g4
Ntp6132
Rp6133
(dp6134
g8
g6131
sg9
F0.0
sg10
V72.38.5.0
p6135
sg12
g13
sg14
g13
sg15
V7992
p6136
sg17
g13
sbsV41.222.123.5
p6137
g2
(g3
g4
Ntp6138
Rp6139
(dp6140
g8
g6137
sg9
F0.0
sg10
V41.222.123.0
p6141
sg12
g13
sg14
g13
sg15
V37511
p6142
sg17
g13
sbsV112.120.67.249
p6143
g2
(g3
g4
Ntp6144
Rp6145
(dp6146
g8
g6143
sg9
F0.0
sg10
V112.120.67.0
p6147
sg12
g13
sg14
g13
sg15
V4760
p6148
sg17
g13
sbsV179.184.44.116
p6149
g2
(g3
g4
Ntp6150
Rp6151
(dp6152
g8
g6149
sg9
F0.0
sg10
V179.184.44.0
p6153
sg12
g13
sg14
g13
sg15
V18881
p6154
sg17
g13
sbsV187.62.208.107
p6155
g2
(g3
g4
Ntp6156
Rp6157
(dp6158
g8
g6155
sg9
F0.0
sg10
V187.62.208.0
p6159
sg12
g13
sg14
g13
sg15
V28165
p6160
sg17
g13
sbsV208.101.63.211
p6161
g2
(g3
g4
Ntp6162
Rp6163
(dp6164
g8
g6161
sg9
F0.0
sg10
V208.101.63.0
p6165
sg12
g13
sg14
g13
sg15
V36351
p6166
sg17
g13
sbsV68.169.203.53
p6167
g2
(g3
g4
Ntp6168
Rp6169
(dp6170
g8
g6167
sg9
F0.0
sg10
V68.169.203.0
p6171
sg12
g13
sg14
g13
sg15
V17223
p6172
sg17
g13
sbsV179.234.2.53
p6173
g2
(g3
g4
Ntp6174
Rp6175
(dp6176
g8
g6173
sg9
F0.0
sg10
V179.234.2.0
p6177
sg12
g13
sg14
g13
sg15
V28573
p6178
sg17
g13
sbsV198.50.220.173
p6179
g2
(g3
g4
Ntp6180
Rp6181
(dp6182
g8
g6179
sg9
F0.0
sg10
V198.50.220.0
p6183
sg12
g13
sg14
g13
sg15
V16276
p6184
sg17
g13
sbsV54.202.181.129
p6185
g2
(g3
g4
Ntp6186
Rp6187
(dp6188
g8
g6185
sg9
F0.0
sg10
V54.202.181.0
p6189
sg12
g13
sg14
g13
sg15
V16509
p6190
sg17
g13
sbsV42.200.192.128
p6191
g2
(g3
g4
Ntp6192
Rp6193
(dp6194
g8
g6191
sg9
F0.0
sg10
V42.200.192.0
p6195
sg12
g13
sg14
g13
sg15
V4760
p6196
sg17
g13
sbsV217.248.78.21
p6197
g2
(g3
g4
Ntp6198
Rp6199
(dp6200
g8
g6197
sg9
F0.0
sg10
V217.248.78.0
p6201
sg12
g13
sg14
g13
sg15
V3320
p6202
sg17
g13
sbsV51.255.55.86
p6203
g2
(g3
g4
Ntp6204
Rp6205
(dp6206
g8
g6203
sg9
F0.0
sg10
V51.255.55.0
p6207
sg12
g13
sg14
g13
sg15
V16276
p6208
sg17
g13
sbsV122.146.92.88
p6209
g2
(g3
g4
Ntp6210
Rp6211
(dp6212
g8
g6209
sg9
F0.0
sg10
V122.146.92.0
p6213
sg12
g13
sg14
g13
sg15
V9919
p6214
sg17
g13
sbsV96.38.34.222
p6215
g2
(g3
g4
Ntp6216
Rp6217
(dp6218
g8
g6215
sg9
F0.0
sg10
V96.38.34.0
p6219
sg12
g13
sg14
g13
sg15
V20115
p6220
sg17
g13
sbsV195.227.96.126
p6221
g2
(g3
g4
Ntp6222
Rp6223
(dp6224
g8
g6221
sg9
F0.0
sg10
V195.227.96.0
p6225
sg12
g13
sg14
g13
sg15
V8469
p6226
sg17
g13
sbsV67.113.123.61
p6227
g2
(g3
g4
Ntp6228
Rp6229
(dp6230
g8
g6227
sg9
F0.0
sg10
V67.113.123.0
p6231
sg12
g13
sg14
g13
sg15
V7018
p6232
sg17
g13
sbsV173.231.129.192
p6233
g2
(g3
g4
Ntp6234
Rp6235
(dp6236
g8
g6233
sg9
F0.0
sg10
V173.231.129.0
p6237
sg12
g13
sg14
g13
sg15
V29791
p6238
sg17
g13
sbsV218.103.112.97
p6239
g2
(g3
g4
Ntp6240
Rp6241
(dp6242
g8
g6239
sg9
F0.0
sg10
V218.103.112.0
p6243
sg12
g13
sg14
g13
sg15
V4760
p6244
sg17
g13
sbsV190.60.232.197
p6245
g2
(g3
g4
Ntp6246
Rp6247
(dp6248
g8
g6245
sg9
F0.0
sg10
V190.60.232.0
p6249
sg12
g13
sg14
g13
sg15
V18747
p6250
sg17
g13
sbsV190.57.239.66
p6251
g2
(g3
g4
Ntp6252
Rp6253
(dp6254
g8
g6251
sg9
F0.0
sg10
V190.57.239.0
p6255
sg12
g13
sg14
g13
sg15
V20207
p6256
sg17
g13
sbsV62.4.22.242
p6257
g2
(g3
g4
Ntp6258
Rp6259
(dp6260
g8
g6257
sg9
F0.0
sg10
V62.4.22.0
p6261
sg12
g13
sg14
g13
sg15
V12876
p6262
sg17
g13
sbsV81.171.251.114
p6263
g2
(g3
g4
Ntp6264
Rp6265
(dp6266
g8
g6263
sg9
F0.0
sg10
V81.171.251.0
p6267
sg12
g13
sg14
g13
sg15
V8426
p6268
sg17
g13
sbsV89.239.191.69
p6269
g2
(g3
g4
Ntp6270
Rp6271
(dp6272
g8
g6269
sg9
F0.0
sg10
V89.239.191.0
p6273
sg12
g13
sg14
g13
sg15
V12389
p6274
sg17
g13
sbsV183.88.84.125
p6275
g2
(g3
g4
Ntp6276
Rp6277
(dp6278
g8
g6275
sg9
F0.0
sg10
V183.88.84.0
p6279
sg12
g13
sg14
g13
sg15
V45758
p6280
sg17
g13
sbsV219.76.176.66
p6281
g2
(g3
g4
Ntp6282
Rp6283
(dp6284
g8
g6281
sg9
F0.0
sg10
V219.76.176.0
p6285
sg12
g13
sg14
g13
sg15
V4760
p6286
sg17
g13
sbsV220.246.79.113
p6287
g2
(g3
g4
Ntp6288
Rp6289
(dp6290
g8
g6287
sg9
F0.0
sg10
V220.246.79.0
p6291
sg12
g13
sg14
g13
sg15
V4760
p6292
sg17
g13
sbsV27.114.136.149
p6293
g2
(g3
g4
Ntp6294
Rp6295
(dp6296
g8
g6293
sg9
F0.0
sg10
V27.114.136.0
p6297
sg12
g13
sg14
g13
sg15
V7642
p6298
sg17
g13
sbsV222.33.46.114
p6299
g2
(g3
g4
Ntp6300
Rp6301
(dp6302
g8
g6299
sg9
F0.0
sg10
V222.33.46.0
p6303
sg12
g13
sg14
g13
sg15
V9394
p6304
sg17
g13
sbsV42.200.198.229
p6305
g2
(g3
g4
Ntp6306
Rp6307
(dp6308
g8
g6305
sg9
F0.0
sg10
V42.200.198.0
p6309
sg12
g13
sg14
g13
sg15
V4760
p6310
sg17
g13
sbsV177.43.48.163
p6311
g2
(g3
g4
Ntp6312
Rp6313
(dp6314
g8
g6311
sg9
F0.0
sg10
V177.43.48.0
p6315
sg12
g13
sg14
g13
sg15
V18881
p6316
sg17
g13
sbsV42.200.249.73
p6317
g2
(g3
g4
Ntp6318
Rp6319
(dp6320
g8
g6317
sg9
F0.0
sg10
V42.200.249.0
p6321
sg12
g13
sg14
g13
sg15
V4760
p6322
sg17
g13
sbsV91.176.214.51
p6323
g2
(g3
g4
Ntp6324
Rp6325
(dp6326
g8
g6323
sg9
F0.0
sg10
V91.176.214.0
p6327
sg12
g13
sg14
g13
sg15
V5432
p6328
sg17
g13
sbsV129.170.224.246
p6329
g2
(g3
g4
Ntp6330
Rp6331
(dp6332
g8
g6329
sg9
F0.0
sg10
V129.170.224.0
p6333
sg12
g13
sg14
g13
sg15
V10755
p6334
sg17
g13
sbsV189.36.196.158
p6335
g2
(g3
g4
Ntp6336
Rp6337
(dp6338
g8
g6335
sg9
F0.0
sg10
V189.36.196.0
p6339
sg12
g13
sg14
g13
sg15
V28308
p6340
sg17
g13
sbsV138.68.230.99
p6341
g2
(g3
g4
Ntp6342
Rp6343
(dp6344
g8
g6341
sg9
F0.0
sg10
V138.68.230.0
p6345
sg12
g13
sg14
g13
sg15
V14061
p6346
sg17
g13
sbsV93.104.47.89
p6347
g2
(g3
g4
Ntp6348
Rp6349
(dp6350
g8
g6347
sg9
F0.0
sg10
V93.104.47.0
p6351
sg12
g13
sg14
g13
sg15
V8767
p6352
sg17
g13
sbsV189.152.73.68
p6353
g2
(g3
g4
Ntp6354
Rp6355
(dp6356
g8
g6353
sg9
F0.0
sg10
V189.152.73.0
p6357
sg12
g13
sg14
g13
sg15
V8151
p6358
sg17
g13
sbsV116.48.151.183
p6359
g2
(g3
g4
Ntp6360
Rp6361
(dp6362
g8
g6359
sg9
F0.0
sg10
V116.48.151.0
p6363
sg12
g13
sg14
g13
sg15
V4760
p6364
sg17
g13
sbsV203.198.248.151
p6365
g2
(g3
g4
Ntp6366
Rp6367
(dp6368
g8
g6365
sg9
F0.0
sg10
V203.198.248.0
p6369
sg12
g13
sg14
g13
sg15
V4760
p6370
sg17
g13
sbsV64.182.168.120
p6371
g2
(g3
g4
Ntp6372
Rp6373
(dp6374
g8
g6371
sg9
F0.0
sg10
V64.182.168.0
p6375
sg12
g13
sg14
g13
sg15
V54489
p6376
sg17
g13
sbsV223.197.182.23
p6377
g2
(g3
g4
Ntp6378
Rp6379
(dp6380
g8
g6377
sg9
F0.0
sg10
V223.197.182.0
p6381
sg12
g13
sg14
g13
sg15
V4760
p6382
sg17
g13
sbsV80.96.122.50
p6383
g2
(g3
g4
Ntp6384
Rp6385
(dp6386
g8
g6383
sg9
F0.0
sg10
V80.96.122.0
p6387
sg12
g13
sg14
g13
sg15
V2614
p6388
sg17
g13
sbsV45.52.3.125
p6389
g2
(g3
g4
Ntp6390
Rp6391
(dp6392
g8
g6389
sg9
F0.0
sg10
V45.52.3.0
p6393
sg12
g13
sg14
g13
sg15
V5650
p6394
sg17
g13
sbsV58.177.214.197
p6395
g2
(g3
g4
Ntp6396
Rp6397
(dp6398
g8
g6395
sg9
F0.0
sg10
V58.177.214.0
p6399
sg12
g13
sg14
g13
sg15
V9269
p6400
sg17
g13
sbsV91.191.151.101
p6401
g2
(g3
g4
Ntp6402
Rp6403
(dp6404
g8
g6401
sg9
F0.0
sg10
V91.191.151.0
p6405
sg12
g13
sg14
g13
sg15
V35393
p6406
sg17
g13
sbsV94.231.104.182
p6407
g2
(g3
g4
Ntp6408
Rp6409
(dp6410
g8
g6407
sg9
F0.0
sg10
V94.231.104.0
p6411
sg12
g13
sg14
g13
sg15
V48854
p6412
sg17
g13
sbsV62.210.72.150
p6413
g2
(g3
g4
Ntp6414
Rp6415
(dp6416
g8
g6413
sg9
F0.0
sg10
V62.210.72.0
p6417
sg12
g13
sg14
g13
sg15
V12876
p6418
sg17
g13
sbsV191.115.133.173
p6419
g2
(g3
g4
Ntp6420
Rp6421
(dp6422
g8
g6419
sg9
F0.0
sg10
V191.115.133.0
p6423
sg12
g13
sg14
g13
sg15
V7418
p6424
sg17
g13
sbsV98.23.186.174
p6425
g2
(g3
g4
Ntp6426
Rp6427
(dp6428
g8
g6425
sg9
F0.0
sg10
V98.23.186.0
p6429
sg12
g13
sg14
g13
sg15
V7029
p6430
sg17
g13
sbsV98.23.186.175
p6431
g2
(g3
g4
Ntp6432
Rp6433
(dp6434
g8
g6431
sg9
F0.0
sg10
V98.23.186.0
p6435
sg12
g13
sg14
g13
sg15
V7029
p6436
sg17
g13
sbsV109.167.58.40
p6437
g2
(g3
g4
Ntp6438
Rp6439
(dp6440
g8
g6437
sg9
F0.0
sg10
V109.167.58.0
p6441
sg12
g13
sg14
g13
sg15
V48427
p6442
sg17
g13
sbsV200.162.141.243
p6443
g2
(g3
g4
Ntp6444
Rp6445
(dp6446
g8
g6443
sg9
F0.0
sg10
V200.162.141.0
p6447
sg12
g13
sg14
g13
sg15
V22177
p6448
sg17
g13
sbsV220.246.41.48
p6449
g2
(g3
g4
Ntp6450
Rp6451
(dp6452
g8
g6449
sg9
F0.0
sg10
V220.246.41.0
p6453
sg12
g13
sg14
g13
sg15
V4760
p6454
sg17
g13
sbsV98.23.186.171
p6455
g2
(g3
g4
Ntp6456
Rp6457
(dp6458
g8
g6455
sg9
F0.0
sg10
V98.23.186.0
p6459
sg12
g13
sg14
g13
sg15
V7029
p6460
sg17
g13
sbsV98.23.186.172
p6461
g2
(g3
g4
Ntp6462
Rp6463
(dp6464
g8
g6461
sg9
F0.0
sg10
V98.23.186.0
p6465
sg12
g13
sg14
g13
sg15
V7029
p6466
sg17
g13
sbsV207.204.86.156
p6467
g2
(g3
g4
Ntp6468
Rp6469
(dp6470
g8
g6467
sg9
F0.0
sg10
V207.204.86.0
p6471
sg12
g13
sg14
g13
sg15
V30689
p6472
sg17
g13
sbsV87.189.194.219
p6473
g2
(g3
g4
Ntp6474
Rp6475
(dp6476
g8
g6473
sg9
F0.0
sg10
V87.189.194.0
p6477
sg12
g13
sg14
g13
sg15
V3320
p6478
sg17
g13
sbsV181.47.24.241
p6479
g2
(g3
g4
Ntp6480
Rp6481
(dp6482
g8
g6479
sg9
F0.0
sg10
V181.47.24.0
p6483
sg12
g13
sg14
g13
sg15
V27747
p6484
sg17
g13
sbsV96.231.207.20
p6485
g2
(g3
g4
Ntp6486
Rp6487
(dp6488
g8
g6485
sg9
F0.0
sg10
V96.231.207.0
p6489
sg12
g13
sg14
g13
sg15
V701
p6490
sg17
g13
sbsV189.212.167.173
p6491
g2
(g3
g4
Ntp6492
Rp6493
(dp6494
g8
g6491
sg9
F0.0
sg10
V189.212.167.0
p6495
sg12
g13
sg14
g13
sg15
V6503
p6496
sg17
g13
sbsV104.47.153.25
p6497
g2
(g3
g4
Ntp6498
Rp6499
(dp6500
g8
g6497
sg9
F0.0
sg10
V104.47.153.0
p6501
sg12
g13
sg14
g13
sg15
V8075
p6502
sg17
g13
sbsV86.126.87.104
p6503
g2
(g3
g4
Ntp6504
Rp6505
(dp6506
g8
g6503
sg9
F0.0
sg10
V86.126.87.0
p6507
sg12
g13
sg14
g13
sg15
V8708
p6508
sg17
g13
sbsV199.6.26.56
p6509
g2
(g3
g4
Ntp6510
Rp6511
(dp6512
g8
g6509
sg9
F0.0
sg10
V199.6.26.0
p6513
sg12
g13
sg14
g13
sg15
V209
p6514
sg17
g13
sbsV149.168.254.96
p6515
g2
(g3
g4
Ntp6516
Rp6517
(dp6518
g8
g6515
sg9
F0.0
sg10
V149.168.254.0
p6519
sg12
g13
sg14
g13
sg15
V6559
p6520
sg17
g13
sbsV94.142.237.64
p6521
g2
(g3
g4
Ntp6522
Rp6523
(dp6524
g8
g6521
sg9
F0.0
sg10
V94.142.237.0
p6525
sg12
g13
sg14
g13
sg15
V48926
p6526
sg17
g13
sbsV156.34.63.92
p6527
g2
(g3
g4
Ntp6528
Rp6529
(dp6530
g8
g6527
sg9
F0.0
sg10
V156.34.63.0
p6531
sg12
g13
sg14
g13
sg15
V855
p6532
sg17
g13
sbsV79.232.62.12
p6533
g2
(g3
g4
Ntp6534
Rp6535
(dp6536
g8
g6533
sg9
F0.0
sg10
V79.232.62.0
p6537
sg12
g13
sg14
g13
sg15
V3320
p6538
sg17
g13
sbsV72.249.76.43
p6539
g2
(g3
g4
Ntp6540
Rp6541
(dp6542
g8
g6539
sg9
F0.0
sg10
V72.249.76.0
p6543
sg12
g13
sg14
g13
sg15
V55045
p6544
sg17
g13
sbsV104.46.108.32
p6545
g2
(g3
g4
Ntp6546
Rp6547
(dp6548
g8
g6545
sg9
F0.0
sg10
V104.46.108.0
p6549
sg12
g13
sg14
g13
sg15
V8075
p6550
sg17
g13
sbsV66.191.238.126
p6551
g2
(g3
g4
Ntp6552
Rp6553
(dp6554
g8
g6551
sg9
F0.0
sg10
V66.191.238.0
p6555
sg12
g13
sg14
g13
sg15
V20115
p6556
sg17
g13
sbsV217.92.59.87
p6557
g2
(g3
g4
Ntp6558
Rp6559
(dp6560
g8
g6557
sg9
F0.0
sg10
V217.92.59.0
p6561
sg12
g13
sg14
g13
sg15
V3320
p6562
sg17
g13
sbsV143.192.97.178
p6563
g2
(g3
g4
Ntp6564
Rp6565
(dp6566
g8
g6563
sg9
F0.0
sg10
V143.192.97.0
p6567
sg12
g13
sg14
g13
sg15
V131310
p6568
sg17
g13
sbsV217.69.39.75
p6569
g2
(g3
g4
Ntp6570
Rp6571
(dp6572
g8
g6569
sg9
F0.0
sg10
V217.69.39.0
p6573
sg12
g13
sg14
g13
sg15
V29611
p6574
sg17
g13
sbsV84.137.155.192
p6575
g2
(g3
g4
Ntp6576
Rp6577
(dp6578
g8
g6575
sg9
F0.0
sg10
V84.137.155.0
p6579
sg12
g13
sg14
g13
sg15
V3320
p6580
sg17
g13
sbsV121.208.235.87
p6581
g2
(g3
g4
Ntp6582
Rp6583
(dp6584
g8
g6581
sg9
F0.0
sg10
V121.208.235.0
p6585
sg12
g13
sg14
g13
sg15
V1221
p6586
sg17
g13
sbsV52.187.188.219
p6587
g2
(g3
g4
Ntp6588
Rp6589
(dp6590
g8
g6587
sg9
F0.0
sg10
V52.187.188.0
p6591
sg12
g13
sg14
g13
sg15
V8075
p6592
sg17
g13
sbsV52.18.238.227
p6593
g2
(g3
g4
Ntp6594
Rp6595
(dp6596
g8
g6593
sg9
F0.0
sg10
V52.18.238.0
p6597
sg12
g13
sg14
g13
sg15
V16509
p6598
sg17
g13
sbsV196.219.194.180
p6599
g2
(g3
g4
Ntp6600
Rp6601
(dp6602
g8
g6599
sg9
F0.0
sg10
V196.219.194.0
p6603
sg12
g13
sg14
g13
sg15
V8452
p6604
sg17
g13
sbsV193.214.111.209
p6605
g2
(g3
g4
Ntp6606
Rp6607
(dp6608
g8
g6605
sg9
F0.0
sg10
V193.214.111.0
p6609
sg12
g13
sg14
g13
sg15
V2119
p6610
sg17
g13
sbsV211.174.239.151
p6611
g2
(g3
g4
Ntp6612
Rp6613
(dp6614
g8
g6611
sg9
F0.0
sg10
V211.174.239.0
p6615
sg12
g13
sg14
g13
sg15
V4663
p6616
sg17
g13
sbsV116.48.134.121
p6617
g2
(g3
g4
Ntp6618
Rp6619
(dp6620
g8
g6617
sg9
F0.0
sg10
V116.48.134.0
p6621
sg12
g13
sg14
g13
sg15
V4760
p6622
sg17
g13
sbsV120.131.8.223
p6623
g2
(g3
g4
Ntp6624
Rp6625
(dp6626
g8
g6623
sg9
F0.0
sg10
V120.131.8.0
p6627
sg12
g13
sg14
g13
sg15
V59019
p6628
sg17
g13
sbsV195.202.159.210
p6629
g2
(g3
g4
Ntp6630
Rp6631
(dp6632
g8
g6629
sg9
F0.0
sg10
V195.202.159.0
p6633
sg12
g13
sg14
g13
sg15
V8339
p6634
sg17
g13
sbsV173.231.129.209
p6635
g2
(g3
g4
Ntp6636
Rp6637
(dp6638
g8
g6635
sg9
F0.0
sg10
V173.231.129.0
p6639
sg12
g13
sg14
g13
sg15
V29791
p6640
sg17
g13
sbsV220.132.185.167
p6641
g2
(g3
g4
Ntp6642
Rp6643
(dp6644
g8
g6641
sg9
F0.0
sg10
V220.132.185.0
p6645
sg12
g13
sg14
g13
sg15
V3462
p6646
sg17
g13
sbsV212.160.235.74
p6647
g2
(g3
g4
Ntp6648
Rp6649
(dp6650
g8
g6647
sg9
F0.0
sg10
V212.160.235.0
p6651
sg12
g13
sg14
g13
sg15
V5617
p6652
sg17
g13
sbsV173.231.129.204
p6653
g2
(g3
g4
Ntp6654
Rp6655
(dp6656
g8
g6653
sg9
F0.0
sg10
V173.231.129.0
p6657
sg12
g13
sg14
g13
sg15
V29791
p6658
sg17
g13
sbsV59.127.84.107
p6659
g2
(g3
g4
Ntp6660
Rp6661
(dp6662
g8
g6659
sg9
F0.0
sg10
V59.127.84.0
p6663
sg12
g13
sg14
g13
sg15
V3462
p6664
sg17
g13
sbsV104.236.100.14
p6665
g2
(g3
g4
Ntp6666
Rp6667
(dp6668
g8
g6665
sg9
F0.0
sg10
V104.236.100.0
p6669
sg12
g13
sg14
g13
sg15
V393406
p6670
sg17
g13
sbsV173.231.129.201
p6671
g2
(g3
g4
Ntp6672
Rp6673
(dp6674
g8
g6671
sg9
F0.0
sg10
V173.231.129.0
p6675
sg12
g13
sg14
g13
sg15
V29791
p6676
sg17
g13
sbsV24.218.54.49
p6677
g2
(g3
g4
Ntp6678
Rp6679
(dp6680
g8
g6677
sg9
F0.0
sg10
V24.218.54.0
p6681
sg12
g13
sg14
g13
sg15
V7922
p6682
sg17
g13
sbsV162.209.235.39
p6683
g2
(g3
g4
Ntp6684
Rp6685
(dp6686
g8
g6683
sg9
F0.0
sg10
V162.209.235.0
p6687
sg12
g13
sg14
g13
sg15
V33330
p6688
sg17
g13
sbsV84.52.196.74
p6689
g2
(g3
g4
Ntp6690
Rp6691
(dp6692
g8
g6689
sg9
F0.0
sg10
V84.52.196.0
p6693
sg12
g13
sg14
g13
sg15
V34087
p6694
sg17
g13
sbsV86.109.72.14
p6695
g2
(g3
g4
Ntp6696
Rp6697
(dp6698
g8
g6695
sg9
F0.0
sg10
V86.109.72.0
p6699
sg12
g13
sg14
g13
sg15
V35263
p6700
sg17
g13
sbsV206.69.163.116
p6701
g2
(g3
g4
Ntp6702
Rp6703
(dp6704
g8
g6701
sg9
F0.0
sg10
V206.69.163.0
p6705
sg12
g13
sg14
g13
sg15
V27595
p6706
sg17
g13
sbsV131.255.20.44
p6707
g2
(g3
g4
Ntp6708
Rp6709
(dp6710
g8
g6707
sg9
F0.0
sg10
V131.255.20.0
p6711
sg12
g13
sg14
g13
sg15
V262271
p6712
sg17
g13
sbsV201.53.37.100
p6713
g2
(g3
g4
Ntp6714
Rp6715
(dp6716
g8
g6713
sg9
F0.0
sg10
V201.53.37.0
p6717
sg12
g13
sg14
g13
sg15
V28573
p6718
sg17
g13
sbsV220.135.101.59
p6719
g2
(g3
g4
Ntp6720
Rp6721
(dp6722
g8
g6719
sg9
F0.0
sg10
V220.135.101.0
p6723
sg12
g13
sg14
g13
sg15
V3462
p6724
sg17
g13
sbsV52.8.138.24
p6725
g2
(g3
g4
Ntp6726
Rp6727
(dp6728
g8
g6725
sg9
F0.0
sg10
V52.8.138.0
p6729
sg12
g13
sg14
g13
sg15
V16509
p6730
sg17
g13
sbsV213.56.231.160
p6731
g2
(g3
g4
Ntp6732
Rp6733
(dp6734
g8
g6731
sg9
F0.0
sg10
V213.56.231.0
p6735
sg12
g13
sg14
g13
sg15
V3215
p6736
sg17
g13
sbsV115.160.240.150
p6737
g2
(g3
g4
Ntp6738
Rp6739
(dp6740
g8
g6737
sg9
F0.0
sg10
V115.160.240.0
p6741
sg12
g13
sg14
g13
sg15
V45820
p6742
sg17
g13
sbsV124.82.4.233
p6743
g2
(g3
g4
Ntp6744
Rp6745
(dp6746
g8
g6743
sg9
F0.0
sg10
V124.82.4.0
p6747
sg12
g13
sg14
g13
sg15
V4788
p6748
sg17
g13
sbsV72.67.86.15
p6749
g2
(g3
g4
Ntp6750
Rp6751
(dp6752
g8
g6749
sg9
F0.0
sg10
V72.67.86.0
p6753
sg12
g13
sg14
g13
sg15
V5650
p6754
sg17
g13
sbsV37.58.70.213
p6755
g2
(g3
g4
Ntp6756
Rp6757
(dp6758
g8
g6755
sg9
F0.0
sg10
V37.58.70.0
p6759
sg12
g13
sg14
g13
sg15
V36351
p6760
sg17
g13
sbsV42.200.252.163
p6761
g2
(g3
g4
Ntp6762
Rp6763
(dp6764
g8
g6761
sg9
F0.0
sg10
V42.200.252.0
p6765
sg12
g13
sg14
g13
sg15
V4760
p6766
sg17
g13
sbsV201.48.152.98
p6767
g2
(g3
g4
Ntp6768
Rp6769
(dp6770
g8
g6767
sg9
F0.0
sg10
V201.48.152.0
p6771
sg12
g13
sg14
g13
sg15
V16735
p6772
sg17
g13
sbsV212.175.88.228
p6773
g2
(g3
g4
Ntp6774
Rp6775
(dp6776
g8
g6773
sg9
F0.0
sg10
V212.175.88.0
p6777
sg12
g13
sg14
g13
sg15
V9121
p6778
sg17
g13
sbsV70.35.202.142
p6779
g2
(g3
g4
Ntp6780
Rp6781
(dp6782
g8
g6779
sg9
F0.0
sg10
V70.35.202.0
p6783
sg12
g13
sg14
g13
sg15
V8560
p6784
sg17
g13
sbsV208.178.179.2
p6785
g2
(g3
g4
Ntp6786
Rp6787
(dp6788
g8
g6785
sg9
F0.0
sg10
V208.178.179.0
p6789
sg12
g13
sg14
g13
sg15
V3549
p6790
sg17
g13
sbsV203.30.237.59
p6791
g2
(g3
g4
Ntp6792
Rp6793
(dp6794
g8
g6791
sg9
F0.0
sg10
V203.30.237.0
p6795
sg12
g13
sg14
g13
sg15
V55666
p6796
sg17
g13
sbsV24.191.24.231
p6797
g2
(g3
g4
Ntp6798
Rp6799
(dp6800
g8
g6797
sg9
F0.0
sg10
V24.191.24.0
p6801
sg12
g13
sg14
g13
sg15
V6128
p6802
sg17
g13
sbsV50.62.140.107
p6803
g2
(g3
g4
Ntp6804
Rp6805
(dp6806
g8
g6803
sg9
F0.0
sg10
V50.62.140.0
p6807
sg12
g13
sg14
g13
sg15
V26496
p6808
sg17
g13
sbsV185.21.146.38
p6809
g2
(g3
g4
Ntp6810
Rp6811
(dp6812
g8
g6809
sg9
F0.0
sg10
V185.21.146.0
p6813
sg12
g13
sg14
g13
sg15
V3301
p6814
sg17
g13
sbsV177.22.43.59
p6815
g2
(g3
g4
Ntp6816
Rp6817
(dp6818
g8
g6815
sg9
F0.0
sg10
V177.22.43.0
p6819
sg12
g13
sg14
g13
sg15
V52981
p6820
sg17
g13
sbsV34.196.107.188
p6821
g2
(g3
g4
Ntp6822
Rp6823
(dp6824
g8
g6821
sg9
F0.0
sg10
V34.196.107.0
p6825
sg12
g13
sg14
g13
sg15
V14618
p6826
sg17
g13
sbsV213.32.68.20
p6827
g2
(g3
g4
Ntp6828
Rp6829
(dp6830
g8
g6827
sg9
F0.0
sg10
V213.32.68.0
p6831
sg12
g13
sg14
g13
sg15
V16276
p6832
sg17
g13
sbsV199.217.117.162
p6833
g2
(g3
g4
Ntp6834
Rp6835
(dp6836
g8
g6833
sg9
F0.0
sg10
V199.217.117.0
p6837
sg12
g13
sg14
g13
sg15
V30083
p6838
sg17
g13
sbsV179.53.140.91
p6839
g2
(g3
g4
Ntp6840
Rp6841
(dp6842
g8
g6839
sg9
F0.0
sg10
V179.53.140.0
p6843
sg12
g13
sg14
g13
sg15
V6400
p6844
sg17
g13
sbsV201.238.248.133
p6845
g2
(g3
g4
Ntp6846
Rp6847
(dp6848
g8
g6845
sg9
F0.0
sg10
V201.238.248.0
p6849
sg12
g13
sg14
g13
sg15
V14259
p6850
sg17
g13
sbsV50.87.35.112
p6851
g2
(g3
g4
Ntp6852
Rp6853
(dp6854
g8
g6851
sg9
F0.0
sg10
V50.87.35.0
p6855
sg12
g13
sg14
g13
sg15
V46606
p6856
sg17
g13
sbsV203.198.147.107
p6857
g2
(g3
g4
Ntp6858
Rp6859
(dp6860
g8
g6857
sg9
F0.0
sg10
V203.198.147.0
p6861
sg12
g13
sg14
g13
sg15
V4760
p6862
sg17
g13
sbsV94.56.128.123
p6863
g2
(g3
g4
Ntp6864
Rp6865
(dp6866
g8
g6863
sg9
F0.0
sg10
V94.56.128.0
p6867
sg12
g13
sg14
g13
sg15
V5384
p6868
sg17
g13
sbsV93.213.221.65
p6869
g2
(g3
g4
Ntp6870
Rp6871
(dp6872
g8
g6869
sg9
F0.0
sg10
V93.213.221.0
p6873
sg12
g13
sg14
g13
sg15
V3320
p6874
sg17
g13
sbsV200.98.64.85
p6875
g2
(g3
g4
Ntp6876
Rp6877
(dp6878
g8
g6875
sg9
F0.0
sg10
V200.98.64.0
p6879
sg12
g13
sg14
g13
sg15
V7162
p6880
sg17
g13
sbsV41.33.218.165
p6881
g2
(g3
g4
Ntp6882
Rp6883
(dp6884
g8
g6881
sg9
F0.0
sg10
V41.33.218.0
p6885
sg12
g13
sg14
g13
sg15
V8452
p6886
sg17
g13
sbsV123.56.170.139
p6887
g2
(g3
g4
Ntp6888
Rp6889
(dp6890
g8
g6887
sg9
F0.0
sg10
V123.56.170.0
p6891
sg12
g13
sg14
g13
sg15
V37963
p6892
sg17
g13
sbsV113.31.81.79
p6893
g2
(g3
g4
Ntp6894
Rp6895
(dp6896
g8
g6893
sg9
F0.0
sg10
V113.31.81.0
p6897
sg12
g13
sg14
g13
sg15
V23724
p6898
sg17
g13
sbsV50.92.142.133
p6899
g2
(g3
g4
Ntp6900
Rp6901
(dp6902
g8
g6899
sg9
F0.0
sg10
V50.92.142.0
p6903
sg12
g13
sg14
g13
sg15
V852
p6904
sg17
g13
sbsV190.116.39.38
p6905
g2
(g3
g4
Ntp6906
Rp6907
(dp6908
g8
g6905
sg9
F0.0
sg10
V190.116.39.0
p6909
sg12
g13
sg14
g13
sg15
V12252
p6910
sg17
g13
sbsV218.103.33.129
p6911
g2
(g3
g4
Ntp6912
Rp6913
(dp6914
g8
g6911
sg9
F0.0
sg10
V218.103.33.0
p6915
sg12
g13
sg14
g13
sg15
V4760
p6916
sg17
g13
sbsV83.170.113.194
p6917
g2
(g3
g4
Ntp6918
Rp6919
(dp6920
g8
g6917
sg9
F0.0
sg10
V83.170.113.0
p6921
sg12
g13
sg14
g13
sg15
V13213
p6922
sg17
g13
sbsV181.14.243.166
p6923
g2
(g3
g4
Ntp6924
Rp6925
(dp6926
g8
g6923
sg9
F0.0
sg10
V181.14.243.0
p6927
sg12
g13
sg14
g13
sg15
V7303
p6928
sg17
g13
sbsV82.117.248.140
p6929
g2
(g3
g4
Ntp6930
Rp6931
(dp6932
g8
g6929
sg9
F0.0
sg10
V82.117.248.0
p6933
sg12
g13
sg14
g13
sg15
V34248
p6934
sg17
g13
sbsV200.41.95.158
p6935
g2
(g3
g4
Ntp6936
Rp6937
(dp6938
g8
g6935
sg9
F0.0
sg10
V200.41.95.0
p6939
sg12
g13
sg14
g13
sg15
V3549
p6940
sg17
g13
sbsV220.246.47.157
p6941
g2
(g3
g4
Ntp6942
Rp6943
(dp6944
g8
g6941
sg9
F0.0
sg10
V220.246.47.0
p6945
sg12
g13
sg14
g13
sg15
V4760
p6946
sg17
g13
sbsV41.33.131.163
p6947
g2
(g3
g4
Ntp6948
Rp6949
(dp6950
g8
g6947
sg9
F0.0
sg10
V41.33.131.0
p6951
sg12
g13
sg14
g13
sg15
V8452
p6952
sg17
g13
sbsV77.246.211.199
p6953
g2
(g3
g4
Ntp6954
Rp6955
(dp6956
g8
g6953
sg9
F0.0
sg10
V77.246.211.0
p6957
sg12
g13
sg14
g13
sg15
V60447
p6958
sg17
g13
sbsV62.226.201.182
p6959
g2
(g3
g4
Ntp6960
Rp6961
(dp6962
g8
g6959
sg9
F0.0
sg10
V62.226.201.0
p6963
sg12
g13
sg14
g13
sg15
V3320
p6964
sg17
g13
sbsV104.24.158.206
p6965
g2
(g3
g4
Ntp6966
Rp6967
(dp6968
g8
g6965
sg9
F0.0
sg10
V104.24.158.0
p6969
sg12
g13
sg14
g13
sg15
V13335
p6970
sg17
g13
sbsV13.124.31.27
p6971
g2
(g3
g4
Ntp6972
Rp6973
(dp6974
g8
g6971
sg9
F0.0
sg10
V13.124.31.0
p6975
sg12
g13
sg14
g13
sg15
g3359
sg17
g13
sbsV52.15.139.40
p6976
g2
(g3
g4
Ntp6977
Rp6978
(dp6979
g8
g6976
sg9
F0.0
sg10
V52.15.139.0
p6980
sg12
g13
sg14
g13
sg15
V16509
p6981
sg17
g13
sbsV201.161.12.60
p6982
g2
(g3
g4
Ntp6983
Rp6984
(dp6985
g8
g6982
sg9
F0.0
sg10
V201.161.12.0
p6986
sg12
g13
sg14
g13
sg15
V22566
p6987
sg17
g13
sbsV92.243.14.179
p6988
g2
(g3
g4
Ntp6989
Rp6990
(dp6991
g8
g6988
sg9
F0.0
sg10
V92.243.14.0
p6992
sg12
g13
sg14
g13
sg15
V29169
p6993
sg17
g13
sbsV204.122.20.7
p6994
g2
(g3
g4
Ntp6995
Rp6996
(dp6997
g8
g6994
sg9
F0.0
sg10
V204.122.20.0
p6998
sg12
g13
sg14
g13
sg15
V18530
p6999
sg17
g13
sbsV91.35.50.170
p7000
g2
(g3
g4
Ntp7001
Rp7002
(dp7003
g8
g7000
sg9
F0.0
sg10
V91.35.50.0
p7004
sg12
g13
sg14
g13
sg15
V3320
p7005
sg17
g13
sbsV203.198.137.168
p7006
g2
(g3
g4
Ntp7007
Rp7008
(dp7009
g8
g7006
sg9
F0.0
sg10
V203.198.137.0
p7010
sg12
g13
sg14
g13
sg15
V4760
p7011
sg17
g13
sbsV82.153.190.197
p7012
g2
(g3
g4
Ntp7013
Rp7014
(dp7015
g8
g7012
sg9
F0.0
sg10
V82.153.190.0
p7016
sg12
g13
sg14
g13
sg15
V12513
p7017
sg17
g13
sbsV68.186.244.101
p7018
g2
(g3
g4
Ntp7019
Rp7020
(dp7021
g8
g7018
sg9
F0.0
sg10
V68.186.244.0
p7022
sg12
g13
sg14
g13
sg15
V20115
p7023
sg17
g13
sbsV220.137.4.193
p7024
g2
(g3
g4
Ntp7025
Rp7026
(dp7027
g8
g7024
sg9
F0.0
sg10
V220.137.4.0
p7028
sg12
g13
sg14
g13
sg15
V3462
p7029
sg17
g13
sbsV212.175.88.252
p7030
g2
(g3
g4
Ntp7031
Rp7032
(dp7033
g8
g7030
sg9
F0.0
sg10
V212.175.88.0
p7034
sg12
g13
sg14
g13
sg15
V9121
p7035
sg17
g13
sbsV104.236.147.156
p7036
g2
(g3
g4
Ntp7037
Rp7038
(dp7039
g8
g7036
sg9
F0.0
sg10
V104.236.147.0
p7040
sg12
g13
sg14
g13
sg15
V14061
p7041
sg17
g13
sbsV203.198.140.95
p7042
g2
(g3
g4
Ntp7043
Rp7044
(dp7045
g8
g7042
sg9
F0.0
sg10
V203.198.140.0
p7046
sg12
g13
sg14
g13
sg15
V4760
p7047
sg17
g13
sbsV223.197.129.122
p7048
g2
(g3
g4
Ntp7049
Rp7050
(dp7051
g8
g7048
sg9
F0.0
sg10
V223.197.129.0
p7052
sg12
g13
sg14
g13
sg15
V4760
p7053
sg17
g13
sbsV94.56.72.64
p7054
g2
(g3
g4
Ntp7055
Rp7056
(dp7057
g8
g7054
sg9
F0.0
sg10
V94.56.72.0
p7058
sg12
g13
sg14
g13
sg15
V5384
p7059
sg17
g13
sbsV177.130.63.102
p7060
g2
(g3
g4
Ntp7061
Rp7062
(dp7063
g8
g7060
sg9
F0.0
sg10
V177.130.63.0
p7064
sg12
g13
sg14
g13
sg15
V52747
p7065
sg17
g13
sbsV168.227.228.66
p7066
g2
(g3
g4
Ntp7067
Rp7068
(dp7069
g8
g7066
sg9
F0.0
sg10
V168.227.228.0
p7070
sg12
g13
sg14
g13
sg15
V264890
p7071
sg17
g13
sbsV177.139.140.242
p7072
g2
(g3
g4
Ntp7073
Rp7074
(dp7075
g8
g7072
sg9
F0.0
sg10
V177.139.140.0
p7076
sg12
g13
sg14
g13
sg15
V27699
p7077
sg17
g13
sbsV93.223.19.66
p7078
g2
(g3
g4
Ntp7079
Rp7080
(dp7081
g8
g7078
sg9
F0.0
sg10
V93.223.19.0
p7082
sg12
g13
sg14
g13
sg15
V3320
p7083
sg17
g13
sbsV79.212.161.182
p7084
g2
(g3
g4
Ntp7085
Rp7086
(dp7087
g8
g7084
sg9
F0.0
sg10
V79.212.161.0
p7088
sg12
g13
sg14
g13
sg15
V3320
p7089
sg17
g13
sbsV223.255.131.210
p7090
g2
(g3
g4
Ntp7091
Rp7092
(dp7093
g8
g7090
sg9
F0.0
sg10
V223.255.131.0
p7094
sg12
g13
sg14
g13
sg15
V9381
p7095
sg17
g13
sbsV80.19.120.228
p7096
g2
(g3
g4
Ntp7097
Rp7098
(dp7099
g8
g7096
sg9
F0.0
sg10
V80.19.120.0
p7100
sg12
g13
sg14
g13
sg15
V3269
p7101
sg17
g13
sbsV177.95.66.22
p7102
g2
(g3
g4
Ntp7103
Rp7104
(dp7105
g8
g7102
sg9
F0.0
sg10
V177.95.66.0
p7106
sg12
g13
sg14
g13
sg15
V27699
p7107
sg17
g13
sbsV114.34.79.94
p7108
g2
(g3
g4
Ntp7109
Rp7110
(dp7111
g8
g7108
sg9
F0.0
sg10
V114.34.79.0
p7112
sg12
g13
sg14
g13
sg15
V3462
p7113
sg17
g13
sbsV190.244.179.92
p7114
g2
(g3
g4
Ntp7115
Rp7116
(dp7117
g8
g7114
sg9
F0.0
sg10
V190.244.179.0
p7118
sg12
g13
sg14
g13
sg15
V10318
p7119
sg17
g13
sbsV50.248.80.195
p7120
g2
(g3
g4
Ntp7121
Rp7122
(dp7123
g8
g7120
sg9
F0.0
sg10
V50.248.80.0
p7124
sg12
g13
sg14
g13
sg15
V7922
p7125
sg17
g13
sbsV45.33.100.9
p7126
g2
(g3
g4
Ntp7127
Rp7128
(dp7129
g8
g7126
sg9
F0.0
sg10
V45.33.100.0
p7130
sg12
g13
sg14
g13
sg15
V63949
p7131
sg17
g13
sbsV216.237.16.150
p7132
g2
(g3
g4
Ntp7133
Rp7134
(dp7135
g8
g7132
sg9
F0.0
sg10
V216.237.16.0
p7136
sg12
g13
sg14
g13
sg15
V7829
p7137
sg17
g13
sbsV209.212.250.210
p7138
g2
(g3
g4
Ntp7139
Rp7140
(dp7141
g8
g7138
sg9
F0.0
sg10
V209.212.250.0
p7142
sg12
g13
sg14
g13
sg15
V30059
p7143
sg17
g13
sbsV184.61.25.98
p7144
g2
(g3
g4
Ntp7145
Rp7146
(dp7147
g8
g7144
sg9
F0.0
sg10
V184.61.25.0
p7148
sg12
g13
sg14
g13
sg15
V4181
p7149
sg17
g13
sbsV121.37.17.135
p7150
g2
(g3
g4
Ntp7151
Rp7152
(dp7153
g8
g7150
sg9
F0.0
sg10
V121.37.17.0
p7154
sg12
g13
sg14
g13
sg15
V4134
p7155
sg17
g13
sbsV217.231.36.103
p7156
g2
(g3
g4
Ntp7157
Rp7158
(dp7159
g8
g7156
sg9
F0.0
sg10
V217.231.36.0
p7160
sg12
g13
sg14
g13
sg15
V3320
p7161
sg17
g13
sbsV208.104.92.202
p7162
g2
(g3
g4
Ntp7163
Rp7164
(dp7165
g8
g7162
sg9
F0.0
sg10
V208.104.92.0
p7166
sg12
g13
sg14
g13
sg15
V14615
p7167
sg17
g13
sbsV166.62.121.33
p7168
g2
(g3
g4
Ntp7169
Rp7170
(dp7171
g8
g7168
sg9
F0.0
sg10
V166.62.121.0
p7172
sg12
g13
sg14
g13
sg15
V26496
p7173
sg17
g13
sbsV195.81.66.137
p7174
g2
(g3
g4
Ntp7175
Rp7176
(dp7177
g8
g7174
sg9
F0.0
sg10
V195.81.66.0
p7178
sg12
g13
sg14
g13
sg15
V8928
p7179
sg17
g13
sbsV89.204.242.186
p7180
g2
(g3
g4
Ntp7181
Rp7182
(dp7183
g8
g7180
sg9
F0.0
sg10
V89.204.242.0
p7184
sg12
g13
sg14
g13
sg15
V13280
p7185
sg17
g13
sbsV206.51.184.65
p7186
g2
(g3
g4
Ntp7187
Rp7188
(dp7189
g8
g7186
sg9
F0.0
sg10
V206.51.184.0
p7190
sg12
g13
sg14
g13
sg15
V31841
p7191
sg17
g13
sbsV223.197.201.151
p7192
g2
(g3
g4
Ntp7193
Rp7194
(dp7195
g8
g7192
sg9
F0.0
sg10
V223.197.201.0
p7196
sg12
g13
sg14
g13
sg15
V4760
p7197
sg17
g13
sbs.