ccopy_reg
_reconstructor
p0
(cip
IP
p1
c__builtin__
object
p2
Ntp3
Rp4
(dp5
S'ip'
p6
V173.167.217.40
p7
sS'asn'
p8
VAS7922
p9
sb.ccopy_reg
_reconstructor
p0
(cip
IP
p1
c__builtin__
object
p2
Ntp3
Rp4
(dp5
S'ip'
p6
V173.167.217.40
p7
sS'asn'
p8
VAS7922
p9
sb.ccopy_reg
_reconstructor
p0
(cip
IP
p1
c__builtin__
object
p2
Ntp3
Rp4
(dp5
S'ip'
p6
V173.167.217.40
p7
sS'asn'
p8
VAS7922
p9
sb.ccopy_reg
_reconstructor
p0
(cip
IP
p1
c__builtin__
object
p2
Ntp3
Rp4
(dp5
S'ip'
p6
V173.167.217.40
p7
sS'asn'
p8
VAS7922
p9
sb.ccopy_reg
_reconstructor
p0
(cip
IP
p1
c__builtin__
object
p2
Ntp3
Rp4
(dp5
S'ip'
p6
V173.167.217.40
p7
sS'asn'
p8
VAS7922
p9
sb.ccopy_reg
_reconstructor
p0
(cip
IP
p1
c__builtin__
object
p2
Ntp3
Rp4
(dp5
S'ip'
p6
V173.167.217.40
p7
sS'asn'
p8
VAS7922
p9
sb.ccopy_reg
_reconstructor
p0
(cip
IP
p1
c__builtin__
object
p2
Ntp3
Rp4
(dp5
S'ip'
p6
V173.167.217.40
p7
sS'asn'
p8
VAS7922
p9
sb.ccopy_reg
_reconstructor
p0
(cip
IP
p1
c__builtin__
object
p2
Ntp3
Rp4
(dp5
S'ip'
p6
V173.167.217.40
p7
sS'asn'
p8
VAS7922
p9
sb.ccopy_reg
_reconstructor
p0
(cip
IP
p1
c__builtin__
object
p2
Ntp3
Rp4
(dp5
S'ip'
p6
V173.167.217.40
p7
sS'asn'
p8
VAS7922
p9
sb.ccopy_reg
_reconstructor
p0
(cip
IP
p1
c__builtin__
object
p2
Ntp3
Rp4
(dp5
S'ip'
p6
V173.167.217.40
p7
sS'asn'
p8
VAS7922
p9
sb.ccopy_reg
_reconstructor
p0
(cip
IP
p1
c__builtin__
object
p2
Ntp3
Rp4
(dp5
S'ip'
p6
V173.167.217.40
p7
sS'asn'
p8
VAS7922
p9
sb.ccopy_reg
_reconstructor
p0
(cip
IP
p1
c__builtin__
object
p2
Ntp3
Rp4
(dp5
S'ip'
p6
V173.167.217.40
p7
sS'asn'
p8
VAS7922
p9
sb.ccopy_reg
_reconstructor
p0
(cip
IP
p1
c__builtin__
object
p2
Ntp3
Rp4
(dp5
S'ip'
p6
V173.167.217.40
p7
sS'asn'
p8
VAS7922
p9
sb.ccopy_reg
_reconstructor
p0
(cip
IP
p1
c__builtin__
object
p2
Ntp3
Rp4
(dp5
S'ip'
p6
V173.167.217.40
p7
sS'asn'
p8
VAS7922
p9
sb.ccopy_reg
_reconstructor
p0
(cip
IP
p1
c__builtin__
object
p2
Ntp3
Rp4
(dp5
S'ip'
p6
V173.167.217.40
p7
sS'asn'
p8
VAS7922
p9
sb.ccopy_reg
_reconstructor
p0
(cip
IP
p1
c__builtin__
object
p2
Ntp3
Rp4
(dp5
S'ip'
p6
V173.167.217.40
p7
sS'asn'
p8
VAS7922
p9
sb.ccopy_reg
_reconstructor
p0
(cip
IP
p1
c__builtin__
object
p2
Ntp3
Rp4
(dp5
S'ip'
p6
V173.167.217.40
p7
sS'asn'
p8
VAS7922
p9
sb.ccopy_reg
_reconstructor
p0
(cip
IP
p1
c__builtin__
object
p2
Ntp3
Rp4
(dp5
S'ip'
p6
V173.167.217.40
p7
sS'asn'
p8
VAS7922
p9
sb.ccopy_reg
_reconstructor
p0
(cip
IP
p1
c__builtin__
object
p2
Ntp3
Rp4
(dp5
S'ip'
p6
V173.167.217.40
p7
sS'asn'
p8
VAS7922
p9
sb.ccopy_reg
_reconstructor
p0
(cip
IP
p1
c__builtin__
object
p2
Ntp3
Rp4
(dp5
S'ip'
p6
V173.167.217.40
p7
sS'asn'
p8
VAS7922
p9
sb.ccopy_reg
_reconstructor
p0
(cip
IP
p1
c__builtin__
object
p2
Ntp3
Rp4
(dp5
S'ip'
p6
V173.167.217.40
p7
sS'asn'
p8
VAS7922
p9
sb.ccopy_reg
_reconstructor
p0
(cip
IP
p1
c__builtin__
object
p2
Ntp3
Rp4
(dp5
S'ip'
p6
V173.167.217.40
p7
sS'asn'
p8
VAS7922
p9
sb.ccopy_reg
_reconstructor
p0
(cip
IP
p1
c__builtin__
object
p2
Ntp3
Rp4
(dp5
S'ip'
p6
V173.167.217.40
p7
sS'asn'
p8
VAS7922
p9
sb.ccopy_reg
_reconstructor
p0
(cip
IP
p1
c__builtin__
object
p2
Ntp3
Rp4
(dp5
S'ip'
p6
V173.167.217.40
p7
sS'asn'
p8
VAS7922
p9
sb.ccopy_reg
_reconstructor
p0
(cip
IP
p1
c__builtin__
object
p2
Ntp3
Rp4
(dp5
S'ip'
p6
V173.167.217.40
p7
sS'asn'
p8
VAS7922
p9
sb.ccopy_reg
_reconstructor
p0
(cip
IP
p1
c__builtin__
object
p2
Ntp3
Rp4
(dp5
S'ip'
p6
V173.167.217.40
p7
sS'asn'
p8
VAS7922
p9
sb.ccopy_reg
_reconstructor
p0
(cip
IP
p1
c__builtin__
object
p2
Ntp3
Rp4
(dp5
S'ip'
p6
V173.167.217.40
p7
sS'asn'
p8
VAS7922
p9
sb.ccopy_reg
_reconstructor
p0
(cip
IP
p1
c__builtin__
object
p2
Ntp3
Rp4
(dp5
S'ip'
p6
V173.167.217.40
p7
sS'asn'
p8
VAS7922
p9
sb.ccopy_reg
_reconstructor
p0
(cip
IP
p1
c__builtin__
object
p2
Ntp3
Rp4
(dp5
S'ip'
p6
V173.167.217.40
p7
sS'asn'
p8
VAS7922
p9
sb.ccopy_reg
_reconstructor
p0
(cip
IP
p1
c__builtin__
object
p2
Ntp3
Rp4
(dp5
S'ip'
p6
V173.167.217.40
p7
sS'asn'
p8
VAS7922
p9
sb.ccopy_reg
_reconstructor
p0
(cip
IP
p1
c__builtin__
object
p2
Ntp3
Rp4
(dp5
S'ip'
p6
V173.167.217.40
p7
sS'asn'
p8
VAS7922
p9
sb.ccopy_reg
_reconstructor
p0
(cip
IP
p1
c__builtin__
object
p2
Ntp3
Rp4
(dp5
S'ip'
p6
V173.167.217.40
p7
sS'asn'
p8
VAS7922
p9
sb.ccopy_reg
_reconstructor
p0
(cip
IP
p1
c__builtin__
object
p2
Ntp3
Rp4
(dp5
S'ip'
p6
V173.167.217.40
p7
sS'asn'
p8
VAS7922
p9
sb.ccopy_reg
_reconstructor
p0
(cip
IP
p1
c__builtin__
object
p2
Ntp3
Rp4
(dp5
S'ip'
p6
V173.167.217.40
p7
sS'asn'
p8
VAS7922
p9
sb.ccopy_reg
_reconstructor
p0
(cip
IP
p1
c__builtin__
object
p2
Ntp3
Rp4
(dp5
S'ip'
p6
V173.167.217.40
p7
sS'asn'
p8
VAS7922
p9
sb.ccopy_reg
_reconstructor
p0
(cip
IP
p1
c__builtin__
object
p2
Ntp3
Rp4
(dp5
S'ip'
p6
V173.167.217.40
p7
sS'asn'
p8
VAS7922
p9
sb.ccopy_reg
_reconstructor
p0
(cip
IP
p1
c__builtin__
object
p2
Ntp3
Rp4
(dp5
S'ip'
p6
V173.167.217.40
p7
sS'asn'
p8
VAS7922
p9
sb.ccopy_reg
_reconstructor
p0
(cip
IP
p1
c__builtin__
object
p2
Ntp3
Rp4
(dp5
S'ip'
p6
V173.167.217.40
p7
sS'asn'
p8
VAS7922
p9
sb.ccopy_reg
_reconstructor
p0
(cip
IP
p1
c__builtin__
object
p2
Ntp3
Rp4
(dp5
S'ip'
p6
V173.167.217.40
p7
sS'asn'
p8
VAS7922
p9
sb.ccopy_reg
_reconstructor
p0
(cip
IP
p1
c__builtin__
object
p2
Ntp3
Rp4
(dp5
S'ip'
p6
V173.167.217.40
p7
sS'asn'
p8
VAS7922
p9
sb.ccopy_reg
_reconstructor
p0
(cip
IP
p1
c__builtin__
object
p2
Ntp3
Rp4
(dp5
S'ip'
p6
V173.167.217.40
p7
sS'asn'
p8
VAS7922
p9
sb.ccopy_reg
_reconstructor
p0
(cip
IP
p1
c__builtin__
object
p2
Ntp3
Rp4
(dp5
S'ip'
p6
V173.167.217.40
p7
sS'asn'
p8
VAS7922
p9
sb.ccopy_reg
_reconstructor
p0
(cip
IP
p1
c__builtin__
object
p2
Ntp3
Rp4
(dp5
S'ip'
p6
V173.167.217.40
p7
sS'asn'
p8
VAS7922
p9
sb.ccopy_reg
_reconstructor
p0
(cip
IP
p1
c__builtin__
object
p2
Ntp3
Rp4
(dp5
S'ip'
p6
V173.167.217.40
p7
sS'asn'
p8
VAS7922
p9
sb.ccopy_reg
_reconstructor
p0
(cip
IP
p1
c__builtin__
object
p2
Ntp3
Rp4
(dp5
S'ip'
p6
V173.167.217.40
p7
sS'asn'
p8
VAS7922
p9
sb.ccopy_reg
_reconstructor
p0
(cip
IP
p1
c__builtin__
object
p2
Ntp3
Rp4
(dp5
S'ip'
p6
V173.167.217.40
p7
sS'asn'
p8
VAS7922
p9
sb.ccopy_reg
_reconstructor
p0
(cip
IP
p1
c__builtin__
object
p2
Ntp3
Rp4
(dp5
S'ip'
p6
V173.167.217.40
p7
sS'asn'
p8
VAS7922
p9
sb.ccopy_reg
_reconstructor
p0
(cip
IP
p1
c__builtin__
object
p2
Ntp3
Rp4
(dp5
S'ip'
p6
V173.167.217.40
p7
sS'asn'
p8
VAS7922
p9
sb.ccopy_reg
_reconstructor
p0
(cip
IP
p1
c__builtin__
object
p2
Ntp3
Rp4
(dp5
S'ip'
p6
V173.167.217.40
p7
sS'asn'
p8
VAS7922
p9
sb.ccopy_reg
_reconstructor
p0
(cip
IP
p1
c__builtin__
object
p2
Ntp3
Rp4
(dp5
S'ip'
p6
V173.167.217.40
p7
sS'asn'
p8
VAS7922
p9
sb.ccopy_reg
_reconstructor
p0
(cip
IP
p1
c__builtin__
object
p2
Ntp3
Rp4
(dp5
S'ip'
p6
V173.167.217.40
p7
sS'asn'
p8
VAS7922
p9
sb.ccopy_reg
_reconstructor
p0
(cip
IP
p1
c__builtin__
object
p2
Ntp3
Rp4
(dp5
S'ip'
p6
V173.167.217.40
p7
sS'asn'
p8
VAS7922
p9
sb.ccopy_reg
_reconstructor
p0
(cip
IP
p1
c__builtin__
object
p2
Ntp3
Rp4
(dp5
S'ip'
p6
V173.167.217.40
p7
sS'asn'
p8
VAS7922
p9
sb.ccopy_reg
_reconstructor
p0
(cip
IP
p1
c__builtin__
object
p2
Ntp3
Rp4
(dp5
S'ip'
p6
V173.167.217.40
p7
sS'asn'
p8
VAS7922
p9
sb.ccopy_reg
_reconstructor
p0
(cip
IP
p1
c__builtin__
object
p2
Ntp3
Rp4
(dp5
S'ip'
p6
V173.167.217.40
p7
sS'asn'
p8
VAS7922
p9
sb.ccopy_reg
_reconstructor
p0
(cip
IP
p1
c__builtin__
object
p2
Ntp3
Rp4
(dp5
S'ip'
p6
V173.167.217.40
p7
sS'asn'
p8
VAS7922
p9
sb.ccopy_reg
_reconstructor
p0
(cip
IP
p1
c__builtin__
object
p2
Ntp3
Rp4
(dp5
S'ip'
p6
V173.167.217.40
p7
sS'asn'
p8
VAS7922
p9
sb.ccopy_reg
_reconstructor
p0
(cip
IP
p1
c__builtin__
object
p2
Ntp3
Rp4
(dp5
S'ip'
p6
V173.167.217.40
p7
sS'asn'
p8
VAS7922
p9
sb.ccopy_reg
_reconstructor
p0
(cip
IP
p1
c__builtin__
object
p2
Ntp3
Rp4
(dp5
S'ip'
p6
V173.167.217.40
p7
sS'asn'
p8
VAS7922
p9
sb.ccopy_reg
_reconstructor
p0
(cip
IP
p1
c__builtin__
object
p2
Ntp3
Rp4
(dp5
S'ip'
p6
V173.167.217.40
p7
sS'asn'
p8
VAS7922
p9
sb.ccopy_reg
_reconstructor
p0
(cip
IP
p1
c__builtin__
object
p2
Ntp3
Rp4
(dp5
S'ip'
p6
V173.167.217.40
p7
sS'asn'
p8
VAS7922
p9
sb.ccopy_reg
_reconstructor
p0
(cip
IP
p1
c__builtin__
object
p2
Ntp3
Rp4
(dp5
S'ip'
p6
V173.167.217.40
p7
sS'asn'
p8
VAS7922
p9
sb.ccopy_reg
_reconstructor
p0
(cip
IP
p1
c__builtin__
object
p2
Ntp3
Rp4
(dp5
S'ip'
p6
V173.167.217.40
p7
sS'asn'
p8
VAS7922
p9
sb.ccopy_reg
_reconstructor
p0
(cip
IP
p1
c__builtin__
object
p2
Ntp3
Rp4
(dp5
S'ip'
p6
V173.167.217.40
p7
sS'asn'
p8
VAS7922
p9
sb.